 tf_Pb_Xi__SG_slrt

 Timestamp is 61605e4a (Fri Oct  8 17:05:46 2021)

 Preferred load address is 10000000

 Start         Length     Name                   Class
 0001:00000000 0000e350H .text$di                CODE
 0001:0000e350 000a0230H .text$mn                CODE
 0001:000ae580 00004861H .text$x                 CODE
 0001:000b2de1 0000103eH .text$yd                CODE
 0002:00000000 00000104H .CRT$XCA                DATA
 0002:00000104 00000110H .CRT$XCC                DATA
 0002:00000214 0000010cH .CRT$XCL                DATA
 0002:00000320 00000104H .CRT$XCZ                DATA
 0002:00000424 00000104H .CRT$XIA                DATA
 0002:00000528 00000118H .CRT$XIC                DATA
 0002:00000640 00000104H .CRT$XIZ                DATA
 0002:00000744 00000104H .CRT$XPA                DATA
 0002:00000848 0000010cH .CRT$XPX                DATA
 0002:00000954 00000104H .CRT$XPXA               DATA
 0002:00000a58 00000104H .CRT$XPZ                DATA
 0002:00000b5c 00000104H .CRT$XTA                DATA
 0002:00000c60 00000110H .CRT$XTZ                DATA
 0002:00000d70 00033ef0H .rdata                  DATA
 0002:00034c60 00002010H .rdata$r                DATA
 0002:00036c70 00000548H .rdata$sxdata           DATA
 0002:000371b8 000001d0H .rdata$zzzdbg           DATA
 0002:00037388 00000104H .rtc$IAA                DATA
 0002:0003748c 00000104H .rtc$IZZ                DATA
 0002:00037590 00000104H .rtc$TAA                DATA
 0002:00037694 00000104H .rtc$TZZ                DATA
 0002:00037798 00005038H .xdata$x                DATA
 0002:0003c7d0 00000205H .edata                  DATA
 0003:00000000 00ea70d8H .data                   DATA
 0003:00ea70d8 000011c8H .data$r                 DATA
 0003:00ea82a0 000161acH .bss                    DATA
 0004:00000000 00000200H .idata$5                DATA
 0004:00000200 00000014H .idata$2                DATA
 0004:00000214 00000014H .idata$3                DATA
 0004:00000228 00000200H .idata$4                DATA
 0004:00000428 000008e8H .idata$6                DATA
 0005:00000000 00000104H .00cfg                  DATA

  Address         Publics by Value              Rva+Base       Lib:Object

 0000:00000000       __except_list              00000000     <absolute>
 0000:00000000       ___guard_longjmp_count     00000000     <absolute>
 0000:00000000       ___guard_fids_table        00000000     <absolute>
 0000:00000000       ___dynamic_value_reloc_table 00000000     <absolute>
 0000:00000000       ___guard_fids_count        00000000     <absolute>
 0000:00000000       ___guard_longjmp_table     00000000     <absolute>
 0000:00000000       ___enclave_config          00000000     <absolute>
 0000:00000000       ___hybrid_code_map         00000000     <absolute>
 0000:00000000       ___guard_iat_count         00000000     <absolute>
 0000:00000000       ___volatile_metadata       00000000     <absolute>
 0000:00000000       ___hybrid_auxiliary_iat    00000000     <absolute>
 0000:00000000       ___hybrid_code_map_count   00000000     <absolute>
 0000:00000000       ___guard_iat_table         00000000     <absolute>
 0000:000000e4       ___safe_se_handler_count   000000e4     <absolute>
 0000:00000100       ___guard_flags             00000100     <absolute>
 0000:00000000       ___ImageBase               10000000     <linker-defined>
 0001:0000e350       _DllMain@12                1000f350 f   xpctarget.obj
 0001:0000e360       _SLRTSetErrorStatus        1000f360 f   xpctarget.obj
 0001:0000e380       _changeStepSize            1000f380 f   xpctarget.obj
 0001:0000e3d0       _getDLMVersion             1000f3d0 f   xpctarget.obj
 0001:0000e3e0       _getFullPathToRefMdl       1000f3e0 f   xpctarget.obj
 0001:0000e490       _getRefMdlPath             1000f490 f   xpctarget.obj
 0001:0000e510       _getRefMdlSignalNumber     1000f510 f   xpctarget.obj
 0001:0000e5c0       _getrlmdlinfo              1000f5c0 f   xpctarget.obj
 0001:0000e720       _slrtRegisterSignalToLoggingService 1000f720 f   xpctarget.obj
 0001:0000e880       _tf_Pb_Xi__SG_ChangeStepSize 1000f880 f   xpctarget.obj
 0001:0000e8d0       _updateDiscreteEvents      1000f8d0 f   xpctarget.obj
 0001:0000e8e0       _getNumRef                 1000f8e0 f   appmappingData.obj
 0001:0000e8f0       ___local_stdio_printf_options 1000f8f0 f i legacy_stdio.obj
 0001:0000e900       __vfprintf_l               1000f900 f i legacy_stdio.obj
 0001:0000e930       _vprintf                   1000f930 f i legacy_stdio.obj
 0001:0000e970       _rt_mxCreateCharMatrixFromStrings 1000f970 f   rt_matrx.obj
 0001:0000ead0       _rt_mxCreateDoubleMatrix   1000fad0 f   rt_matrx.obj
 0001:0000eb30       _rt_mxCreateNumericArray   1000fb30 f   rt_matrx.obj
 0001:0000eba0       _rt_mxCreateString         1000fba0 f   rt_matrx.obj
 0001:0000ec30       _rt_mxDuplicateArray       1000fc30 f   rt_matrx.obj
 0001:0000ec90       _rt_mxGetDimensions        1000fc90 f   rt_matrx.obj
 0001:0000ecd0       _rt_mxGetEps               1000fcd0 f   rt_matrx.obj
 0001:0000ece0       _rt_mxGetString            1000fce0 f   rt_matrx.obj
 0001:0000ed60       _rtPrintfNoOp              1000fd60 f   rt_printf.obj
 0001:0000ed70       __vsnprintf_l              1000fd70 f i rt_logging.obj
 0001:0000edb0       __vsprintf_l               1000fdb0 f i rt_logging.obj
 0001:0000edf0       _fprintf                   1000fdf0 f i rt_logging.obj
 0001:0000f2f0       _printf                    100102f0 f i rt_logging.obj
 0001:0000f330       _rt_CreateLogVar           10010330 f   rt_logging.obj
 0001:0000f3c0       _rt_CreateLogVarWithConvert 100103c0 f   rt_logging.obj
 0001:0000fcf0       _rt_CreateStructLogVar     10010cf0 f   rt_logging.obj
 0001:00010a90       _rt_GetMxIdFromDTypeId     10011a90 f   rt_logging.obj
 0001:00010ac0       _rt_GetMxIdFromDTypeIdForRSim 10011ac0 f   rt_logging.obj
 0001:00013660       _rt_StartDataLogging       10014660 f   rt_logging.obj
 0001:00013b20       _rt_StartDataLoggingWithStartTime 10014b20 f   rt_logging.obj
 0001:00013fa0       _rt_StopDataLogging        10014fa0 f   rt_logging.obj
 0001:00013fc0       _rt_StopDataLoggingImpl    10014fc0 f   rt_logging.obj
 0001:00014400       _rt_UpdateLogVar           10015400 f   rt_logging.obj
 0001:000153f0       _rt_UpdateLogVarWithDiscontiguousData 100163f0 f   rt_logging.obj
 0001:000156b0       _rt_UpdateStructLogVar     100166b0 f   rt_logging.obj
 0001:00015740       _rt_UpdateTXXFYLogVars     10016740 f   rt_logging.obj
 0001:00015b90       _rt_UpdateTXYLogVars       10016b90 f   rt_logging.obj
 0001:00015dd0       _rt_getTempMemory          10016dd0 f   rt_logging.obj
 0001:00015e20       _rt_preProcessAndLogData   10016e20 f   rt_logging.obj
 0001:00015ec0       _rt_preProcessAndLogDataWithIndex 10016ec0 f   rt_logging.obj
 0001:00015f70       _sprintf                   10016f70 f i rt_logging.obj
 0001:00015fb0       _rtGetInf                  10016fb0 f   rtGetInf.obj
 0001:00015fe0       _rtGetInfF                 10016fe0 f   rtGetInf.obj
 0001:00016000       _rtGetMinusInf             10017000 f   rtGetInf.obj
 0001:00016030       _rtGetMinusInfF            10017030 f   rtGetInf.obj
 0001:00016050       _rtGetNaN                  10017050 f   rtGetNaN.obj
 0001:00016080       _rtGetNaNF                 10017080 f   rtGetNaN.obj
 0001:000160a0       _rtIsInf                   100170a0 f   rt_nonfinite.obj
 0001:000160e0       _rtIsInfF                  100170e0 f   rt_nonfinite.obj
 0001:00016120       _rtIsNaN                   10017120 f   rt_nonfinite.obj
 0001:00016170       _rtIsNaNF                  10017170 f   rt_nonfinite.obj
 0001:000161b0       _rt_InitInfAndNaN          100171b0 f   rt_nonfinite.obj
 0001:00016210       _MdlInitialize             10017210 f   tf_Pb_Xi__SG.obj
 0001:00016220       _MdlInitializeSampleTimes  10017220 f   tf_Pb_Xi__SG.obj
 0001:00016230       _MdlInitializeSizes        10017230 f   tf_Pb_Xi__SG.obj
 0001:00016240       _MdlOutputs                10017240 f   tf_Pb_Xi__SG.obj
 0001:00016250       _MdlStart                  10017250 f   tf_Pb_Xi__SG.obj
 0001:00016260       _MdlTerminate              10017260 f   tf_Pb_Xi__SG.obj
 0001:00016390       _MdlUpdate                 10017390 f   tf_Pb_Xi__SG.obj
 0001:00016890       _tf_Pb_Xi__HighpassFilter2_Start 10017890 f   tf_Pb_Xi__SG.obj
 0001:00016990       _tf_Pb_Xi__SG              10017990 f   tf_Pb_Xi__SG.obj
 0001:00016fc0       _tf_Pb_Xi__SG_HighpassFilter2 10017fc0 f   tf_Pb_Xi__SG.obj
 0001:00018c40       _tf_Pb_Xi___HighpassFilter2_Init 10019c40 f   tf_Pb_Xi__SG.obj
 0001:00018cd0       _tf_Pb_Xi___HighpassFilter2_Term 10019cd0 f   tf_Pb_Xi__SG.obj
 0001:00018e40       _tf_Pb_Xi__SG_GetCAPIStaticMap 10019e40 f   tf_Pb_Xi__SG_capi.obj
 0001:00018e50       _tf_Pb_Xi__SG_InitializeDataMapInfo 10019e50 f   tf_Pb_Xi__SG_capi.obj
 0001:00018f20       _mdlXcp_GetMdlXcpInfo      10019f20 f   tf_Pb_Xi__SG_xcp.obj
 0001:00018f30       _SLRT_update_TET           10019f30 f   tf_Pb_Xi__SG_xcp_TET.obj
 0001:00019000       _rt_CleanUpForStateLogWithMMI 1001a000 f   rt_logging_mmi.obj
 0001:00019110       _rt_FillStateSigInfoFromMMI 1001a110 f   rt_logging_mmi.obj
 0001:00019560       _rtwCAPI_CountSysRan       1001a560 f   rtw_modelmap_utils.obj
 0001:00019600       _rtwCAPI_EncodePath        1001a600 f   rtw_modelmap_utils.obj
 0001:000196a0       _rtwCAPI_FillSysRan        1001a6a0 f   rtw_modelmap_utils.obj
 0001:00019790       _rtwCAPI_FreeFullPaths     1001a790 f   rtw_modelmap_utils.obj
 0001:000197f0       _rtwCAPI_GetFullStateBlockPath 1001a7f0 f   rtw_modelmap_utils.obj
 0001:00019970       _rtwCAPI_GetNumContStateRecords 1001a970 f   rtw_modelmap_utils.obj
 0001:000199f0       _rtwCAPI_GetNumSigLogRecords 1001a9f0 f   rtw_modelmap_utils.obj
 0001:00019a40       _rtwCAPI_GetNumSigLogRecordsForRTWLogging 1001aa40 f   rtw_modelmap_utils.obj
 0001:00019ae0       _rtwCAPI_GetNumStateRecords 1001aae0 f   rtw_modelmap_utils.obj
 0001:00019b30       _rtwCAPI_GetNumStateRecordsForRTWLogging 1001ab30 f   rtw_modelmap_utils.obj
 0001:00019bd0       _rtwCAPI_GetSigAddrFromMap 1001abd0 f   rtw_modelmap_utils.obj
 0001:00019c60       _rtwCAPI_GetSigLogRecordInfo 1001ac60 f   rtw_modelmap_utils.obj
 0001:0001a060       _rtwCAPI_GetStateRecordInfo 1001b060 f   rtw_modelmap_utils.obj
 0001:0001a4f0       _rtwCAPI_GetStateWidth     1001b4f0 f   rtw_modelmap_utils.obj
 0001:0001a540       _rtwCAPI_HasStates         1001b540 f   rtw_modelmap_utils.obj
 0001:0001a5a0       _rtwCAPI_UpdateFullPaths   1001b5a0 f   rtw_modelmap_utils.obj
 0001:0001a6e0       _timestamp_x86             1001b6e0 f   host_timer_x86.obj
 0001:0001a6f0       _taskTimeEnd               1001b6f0 f   xpc_code_profiling_utility_functions.obj
 0001:0001a700       _taskTimeEnd_              1001b700 f   xpc_code_profiling_utility_functions.obj
 0001:0001a710       _taskTimeStart             1001b710 f   xpc_code_profiling_utility_functions.obj
 0001:0001a720       _taskTimeStart_            1001b720 f   xpc_code_profiling_utility_functions.obj
 0001:0001a730       _xilProfilingTimerFreeze   1001b730 f   xpc_code_profiling_utility_functions.obj
 0001:0001a740       _xilProfilingTimerFreezeInternal 1001b740 f   xpc_code_profiling_utility_functions.obj
 0001:0001a750       _xilProfilingTimerUnFreeze 1001b750 f   xpc_code_profiling_utility_functions.obj
 0001:0001a760       _xilProfilingTimerUnFreezeInternal 1001b760 f   xpc_code_profiling_utility_functions.obj
 0001:0001a770       _xilUploadProfilingData    1001b770 f   xpc_code_profiling_utility_functions.obj
 0001:0001a780       _getAutoDACRanges          1001b780 f   sg_fpga_HDLCoder_io334_dac_sf_1.obj
 0001:0001aae0       _sg_fpga_HDLCoder_io334_dac_sf_1 1001bae0 f   sg_fpga_HDLCoder_io334_dac_sf_1.obj
 0001:0001af10       _sg_fpga_HDLCoder_io334_i2c_sf_1 1001bf10 f   sg_fpga_HDLCoder_io334_i2c_sf_1.obj
 0001:0001af70       _GetPCIDeviceFull          1001bf70 f   xpcruntime:xpcimports.obj
 0001:0001b0e0       _GetPCIDeviceFunction      1001c0e0 f   xpcruntime:xpcimports.obj
 0001:0001b250       _ShowPCIDevice             1001c250 f   xpcruntime:xpcimports.obj
 0001:0001b880       _slrtGetPciConfigAtFunction 1001c880 f   xpcruntime:xpcimports.obj
 0001:0001bbf0       _xpcGetPciConfigAtSlot     1001cbf0 f   xpcruntime:xpcimports.obj
 0001:0001bc10       _xpcInitProcs              1001cc10 f   xpcruntime:xpcimports.obj
 0001:0001d640       _xpceuploadevent           1001e640 f   xpcruntime:xpcimports.obj
 0001:0001d650       ??$__vcrt_va_start_verify_argument_type@QBD@@YAXXZ 1001e650 f i libsghdlcutils_MSVC150_vc:sg_fpga_HDLCoder_io3xx.obj
 0001:0001d660       _bitswap                   1001e660 f   libsghdlcutils_MSVC150_vc:sg_fpga_HDLCoder_io3xx.obj
 0001:0001d6a0       _createDMAMemoryPool       1001e6a0 f   libsghdlcutils_MSVC150_vc:sg_fpga_HDLCoder_io3xx.obj
 0001:0001d800       _freeDMAMemoryPool         1001e800 f   libsghdlcutils_MSVC150_vc:sg_fpga_HDLCoder_io3xx.obj
 0001:0001d900       _freeFPGAModule            1001e900 f   libsghdlcutils_MSVC150_vc:sg_fpga_HDLCoder_io3xx.obj
 0001:0001da50       _i2c_checkEEprom           1001ea50 f   libsghdlcutils_MSVC150_vc:sg_fpga_HDLCoder_io3xx.obj
 0001:0001dc70       _i2c_dummy_read            1001ec70 f   libsghdlcutils_MSVC150_vc:sg_fpga_HDLCoder_io3xx.obj
 0001:0001de50       _i2c_dyn_eeprom_read       1001ee50 f   libsghdlcutils_MSVC150_vc:sg_fpga_HDLCoder_io3xx.obj
 0001:0001e0b0       _i2c_dyn_eeprom_write      1001f0b0 f   libsghdlcutils_MSVC150_vc:sg_fpga_HDLCoder_io3xx.obj
 0001:0001e380       _i2c_dyn_read              1001f380 f   libsghdlcutils_MSVC150_vc:sg_fpga_HDLCoder_io3xx.obj
 0001:0001e560       _i2c_dyn_reset             1001f560 f   libsghdlcutils_MSVC150_vc:sg_fpga_HDLCoder_io3xx.obj
 0001:0001e590       _i2c_dyn_start             1001f590 f   libsghdlcutils_MSVC150_vc:sg_fpga_HDLCoder_io3xx.obj
 0001:0001e6b0       _i2c_dyn_write             1001f6b0 f   libsghdlcutils_MSVC150_vc:sg_fpga_HDLCoder_io3xx.obj
 0001:0001e910       _i2c_fprintfReg            1001f910 f   libsghdlcutils_MSVC150_vc:sg_fpga_HDLCoder_io3xx.obj
 0001:0001e980       _i2c_init                  1001f980 f   libsghdlcutils_MSVC150_vc:sg_fpga_HDLCoder_io3xx.obj
 0001:0001ea80       _i2c_read                  1001fa80 f   libsghdlcutils_MSVC150_vc:sg_fpga_HDLCoder_io3xx.obj
 0001:0001ec90       _i2c_readEEPROM            1001fc90 f   libsghdlcutils_MSVC150_vc:sg_fpga_HDLCoder_io3xx.obj
 0001:0001ef40       _i2c_write                 1001ff40 f   libsghdlcutils_MSVC150_vc:sg_fpga_HDLCoder_io3xx.obj
 0001:0001f030       _i2c_writeEEPROM           10020030 f   libsghdlcutils_MSVC150_vc:sg_fpga_HDLCoder_io3xx.obj
 0001:0001f230       _io3xxGetAddress           10020230 f   libsghdlcutils_MSVC150_vc:sg_fpga_HDLCoder_io3xx.obj
 0001:0001f2c0       _io3xxGetBCCPointer        100202c0 f   libsghdlcutils_MSVC150_vc:sg_fpga_HDLCoder_io3xx.obj
 0001:0001f320       _io3xxGetBoardName         10020320 f   libsghdlcutils_MSVC150_vc:sg_fpga_HDLCoder_io3xx.obj
 0001:0001f360       _io3xxGetBoardType         10020360 f   libsghdlcutils_MSVC150_vc:sg_fpga_HDLCoder_io3xx.obj
 0001:0001f3b0       _io3xxGetRamBaseAddr       100203b0 f   libsghdlcutils_MSVC150_vc:sg_fpga_HDLCoder_io3xx.obj
 0001:0001f400       _io3xxGetRamMaxOffset      10020400 f   libsghdlcutils_MSVC150_vc:sg_fpga_HDLCoder_io3xx.obj
 0001:0001f450       _io3xxGetSerialNumber      10020450 f   libsghdlcutils_MSVC150_vc:sg_fpga_HDLCoder_io3xx.obj
 0001:0001f4a0       _io3xxSetBoardType         100204a0 f   libsghdlcutils_MSVC150_vc:sg_fpga_HDLCoder_io3xx.obj
 0001:0001f4e0       _io3xxSetSerialNumber      100204e0 f   libsghdlcutils_MSVC150_vc:sg_fpga_HDLCoder_io3xx.obj
 0001:0001f520       _io3xxStart                10020520 f   libsghdlcutils_MSVC150_vc:sg_fpga_HDLCoder_io3xx.obj
 0001:0001f5b0       _io3xx_SPI_flashReconfiguration 100205b0 f   libsghdlcutils_MSVC150_vc:sg_fpga_HDLCoder_io3xx.obj
 0001:0001f770       _io3xx_decode_Timestamp    10020770 f   libsghdlcutils_MSVC150_vc:sg_fpga_HDLCoder_io3xx.obj
 0001:0001f7d0       _io3xx_reprogram_ICAP      100207d0 f   libsghdlcutils_MSVC150_vc:sg_fpga_HDLCoder_io3xx.obj
 0001:0001f9e0       _io3xx_search_Timestamp    100209e0 f   libsghdlcutils_MSVC150_vc:sg_fpga_HDLCoder_io3xx.obj
 0001:0001fcc0       _io3xx_slaveSelectMapConfiguration 10020cc0 f   libsghdlcutils_MSVC150_vc:sg_fpga_HDLCoder_io3xx.obj
 0001:00020000       _printCDMAEngineRegisters  10021000 f   libsghdlcutils_MSVC150_vc:sg_fpga_HDLCoder_io3xx.obj
 0001:000201b0       _printDMADescStatus        100211b0 f   libsghdlcutils_MSVC150_vc:sg_fpga_HDLCoder_io3xx.obj
 0001:00020520       _printDMAEngineRegisters   10021520 f   libsghdlcutils_MSVC150_vc:sg_fpga_HDLCoder_io3xx.obj
 0001:00020600       _printPCIHeader            10021600 f   libsghdlcutils_MSVC150_vc:sg_fpga_HDLCoder_io3xx.obj
 0001:00020670       _printPCIStorage           10021670 f   libsghdlcutils_MSVC150_vc:sg_fpga_HDLCoder_io3xx.obj
 0001:000206b0       _printSingleDescriptor     100216b0 f   libsghdlcutils_MSVC150_vc:sg_fpga_HDLCoder_io3xx.obj
 0001:000207c0       _readPCIHeader             100217c0 f   libsghdlcutils_MSVC150_vc:sg_fpga_HDLCoder_io3xx.obj
 0001:00020830       _registerBCC               10021830 f   libsghdlcutils_MSVC150_vc:sg_fpga_HDLCoder_io3xx.obj
 0001:000208a0       _registerFPGAModule        100218a0 f   libsghdlcutils_MSVC150_vc:sg_fpga_HDLCoder_io3xx.obj
 0001:00020b50       _resetDMAEngine            10021b50 f   libsghdlcutils_MSVC150_vc:sg_fpga_HDLCoder_io3xx.obj
 0001:00020d90       _sg_fpga_mcs2bin           10021d90 f   libsghdlcutils_MSVC150_vc:sg_fpga_HDLCoder_io3xx.obj
 0001:00021130       _sg_initializeHexValues    10022130 f   libsghdlcutils_MSVC150_vc:sg_fpga_HDLCoder_io3xx.obj
 0001:000211d0       _sg_line2Bytes             100221d0 f   libsghdlcutils_MSVC150_vc:sg_fpga_HDLCoder_io3xx.obj
 0001:000212c0       _waitForDMAResetComplete   100222c0 f   libsghdlcutils_MSVC150_vc:sg_fpga_HDLCoder_io3xx.obj
 0001:00021410       _writePCIHeader            10022410 f   libsghdlcutils_MSVC150_vc:sg_fpga_HDLCoder_io3xx.obj
 0001:000214f0       _io334GetADCRange          100224f0 f   libsghdlcutils_MSVC150_vc:sg_fpga_HDLCoder_io334util.obj
 0001:000216d0       _io334Init                 100226d0 f   libsghdlcutils_MSVC150_vc:sg_fpga_HDLCoder_io334util.obj
 0001:00021c70       _io334SetDACRange          10022c70 f   libsghdlcutils_MSVC150_vc:sg_fpga_HDLCoder_io334util.obj
 0001:00021da0       _sg_hdlc_allocPhysicalMemory_v19b 10022da0 f   libsg_MSVC150_vc:sg_hdlc_api.obj
 0001:00021db0       _sg_hdlc_findPciDevice_v19b 10022db0 f   libsg_MSVC150_vc:sg_hdlc_api.obj
 0001:00021dc0       _sg_hdlc_freePhysicalMemory_v19b 10022dc0 f   libsg_MSVC150_vc:sg_hdlc_api.obj
 0001:00021dd0       _sg_hdlc_getElapsedTime_v19b 10022dd0 f   libsg_MSVC150_vc:sg_hdlc_api.obj
 0001:00021de0       _sg_hdlc_inpDW_v19b        10022de0 f   libsg_MSVC150_vc:sg_hdlc_api.obj
 0001:00021df0       _sg_hdlc_isModelInit_v19b  10022df0 f   libsg_MSVC150_vc:sg_hdlc_api.obj
 0001:00021e00       _sg_hdlc_mapMemory_v19b    10022e00 f   libsg_MSVC150_vc:sg_hdlc_api.obj
 0001:00021e10       _sg_hdlc_module_get_v19b   10022e10 f   libsg_MSVC150_vc:sg_hdlc_api.obj
 0001:00021e20       _sg_hdlc_module_register_v19b 10022e20 f   libsg_MSVC150_vc:sg_hdlc_api.obj
 0001:00021e30       _sg_hdlc_module_unregister_v19b 10022e30 f   libsg_MSVC150_vc:sg_hdlc_api.obj
 0001:00021e40       _sg_hdlc_outpDW_v19b       10022e40 f   libsg_MSVC150_vc:sg_hdlc_api.obj
 0001:00021e50       _sg_hdlc_setAbilities_v19b 10022e50 f   libsg_MSVC150_vc:sg_hdlc_api.obj
 0001:00021e60       _sg_hdlc_showPciDevice_v19b 10022e60 f   libsg_MSVC150_vc:sg_hdlc_api.obj
 0001:00021e70       _sg_hdlc_wait_s_v19b       10022e70 f   libsg_MSVC150_vc:sg_hdlc_api.obj
 0001:00021e90       ??$_Destroy_range@V?$allocator@V?$basic_string@DU?$char_traits@D@std@@V?$allocator@D@2@@std@@@std@@@std@@YAXPAV?$basic_string@DU?$char_traits@D@std@@V?$allocator@D@2@@0@0AAV?$allocator@V?$basic_string@DU?$char_traits@D@std@@V?$allocator@D@2@@std@@@0@@Z 10022e90 f i libsg_MSVC150_vc:sg_common.obj
 0001:00021f10       ??$_Emplace_reallocate@V?$basic_string@DU?$char_traits@D@std@@V?$allocator@D@2@@std@@@?$vector@V?$basic_string@DU?$char_traits@D@std@@V?$allocator@D@2@@std@@V?$allocator@V?$basic_string@DU?$char_traits@D@std@@V?$allocator@D@2@@std@@@2@@std@@QAEPAV?$basic_string@DU?$char_traits@D@std@@V?$allocator@D@2@@1@QAV21@$$QAV21@@Z 10022f10 f i libsg_MSVC150_vc:sg_common.obj
 0001:00022160       ??$_Immortalize_impl@V_Iostream_error_category@std@@@std@@YGHPAX0PAPAX@Z 10023160 f i libsg_MSVC150_vc:sg_common.obj
 0001:00022190       ??$_UIntegral_to_buff@D_K@std@@YAPADPAD_K@Z 10023190 f i libsg_MSVC150_vc:sg_common.obj
 0001:00022270       ??$_Uninitialized_move@PAV?$basic_string@DU?$char_traits@D@std@@V?$allocator@D@2@@std@@PAV12@V?$allocator@V?$basic_string@DU?$char_traits@D@std@@V?$allocator@D@2@@std@@@2@@std@@YAPAV?$basic_string@DU?$char_traits@D@std@@V?$allocator@D@2@@0@QAV10@0PAV10@AAV?$allocator@V?$basic_string@DU?$char_traits@D@std@@V?$allocator@D@2@@std@@@0@@Z 10023270 f i libsg_MSVC150_vc:sg_common.obj
 0001:00022300       ??$endl@DU?$char_traits@D@std@@@std@@YAAAV?$basic_ostream@DU?$char_traits@D@std@@@0@AAV10@@Z 10023300 f i libsg_MSVC150_vc:sg_common.obj
 0001:000223e0       ??$use_facet@V?$ctype@D@std@@@std@@YAABV?$ctype@D@0@ABVlocale@0@@Z 100233e0 f i libsg_MSVC150_vc:sg_common.obj
 0001:000225c0       ??$use_facet@V?$numpunct@D@std@@@std@@YAABV?$numpunct@D@0@ABVlocale@0@@Z 100235c0 f i libsg_MSVC150_vc:sg_common.obj
 0001:000227a0       ??0?$basic_string@DU?$char_traits@D@std@@V?$allocator@D@2@@std@@QAE@ID@Z 100237a0 f i libsg_MSVC150_vc:sg_common.obj
 0001:000228f0       ??0_Locinfo@std@@QAE@PBD@Z 100238f0 f i libsg_MSVC150_vc:sg_common.obj
 0001:000229e0       ??0_System_error@std@@IAE@Verror_code@1@ABV?$basic_string@DU?$char_traits@D@std@@V?$allocator@D@2@@1@@Z 100239e0 f i libsg_MSVC150_vc:sg_common.obj
 0001:00022c30       ??0_System_error@std@@QAE@ABV01@@Z 10023c30 f i libsg_MSVC150_vc:sg_common.obj
 0001:00022c90       ??0bad_cast@std@@QAE@ABV01@@Z 10023c90 f i libsg_MSVC150_vc:sg_common.obj
 0001:00022cd0       ??0exception@std@@QAE@ABV01@@Z 10023cd0 f i libsg_MSVC150_vc:sg_common.obj
 0001:00022d10       ??0failure@ios_base@std@@QAE@ABV012@@Z 10023d10 f i libsg_MSVC150_vc:sg_common.obj
 0001:00022d70       ??0failure@ios_base@std@@QAE@PBDABVerror_code@2@@Z 10023d70 f i libsg_MSVC150_vc:sg_common.obj
 0001:00022e90       ??0runtime_error@std@@QAE@ABV01@@Z 10023e90 f i libsg_MSVC150_vc:sg_common.obj
 0001:00022ed0       ??0runtime_error@std@@QAE@PBD@Z 10023ed0 f i libsg_MSVC150_vc:sg_common.obj
 0001:00022f30       ??0sentry@?$basic_ostream@DU?$char_traits@D@std@@@std@@QAE@AAV12@@Z 10023f30 f i libsg_MSVC150_vc:sg_common.obj
 0001:00022fe0       ??0system_error@std@@QAE@ABV01@@Z 10023fe0 f i libsg_MSVC150_vc:sg_common.obj
 0001:00023040       ??1?$_Yarn@D@std@@QAE@XZ   10024040 f i libsg_MSVC150_vc:sg_common.obj
 0001:00023060       ??1?$_Yarn@_W@std@@QAE@XZ  10024060 f i libsg_MSVC150_vc:sg_common.obj
 0001:00023080       ??1?$basic_string@DU?$char_traits@D@std@@V?$allocator@D@2@@std@@QAE@XZ 10024080 f i libsg_MSVC150_vc:sg_common.obj
 0001:000230e0       ??1?$ctype@D@std@@MAE@XZ   100240e0 f i libsg_MSVC150_vc:sg_common.obj
 0001:00023130       ??1?$num_put@DV?$ostreambuf_iterator@DU?$char_traits@D@std@@@std@@@std@@MAE@XZ 10024130 f i libsg_MSVC150_vc:sg_common.obj
 0001:00023140       ??1?$numpunct@D@std@@MAE@XZ 10024140 f i libsg_MSVC150_vc:sg_common.obj
 0001:00023180       ??1?$unique_ptr@V_Facet_base@std@@U?$default_delete@V_Facet_base@std@@@2@@std@@QAE@XZ 10024180 f i libsg_MSVC150_vc:sg_common.obj
 0001:00023190       ??1?$vector@V?$basic_string@DU?$char_traits@D@std@@V?$allocator@D@2@@std@@V?$allocator@V?$basic_string@DU?$char_traits@D@std@@V?$allocator@D@2@@std@@@2@@std@@QAE@XZ 10024190 f i libsg_MSVC150_vc:sg_common.obj
 0001:00023230       ??1_Facet_base@std@@UAE@XZ 10024230 f i libsg_MSVC150_vc:sg_common.obj
 0001:00023240       ??1_Locinfo@std@@QAE@XZ    10024240 f i libsg_MSVC150_vc:sg_common.obj
 0001:00023350       ??1_Sentry_base@?$basic_ostream@DU?$char_traits@D@std@@@std@@QAE@XZ 10024350 f i libsg_MSVC150_vc:sg_common.obj
 0001:000233b0       ??1bad_cast@std@@UAE@XZ    100243b0 f i libsg_MSVC150_vc:sg_common.obj
 0001:000233d0       ??1error_category@std@@UAE@XZ 100243d0 f i libsg_MSVC150_vc:sg_common.obj
 0001:000233e0       ??1exception@std@@UAE@XZ   100243e0 f i libsg_MSVC150_vc:sg_common.obj
 0001:00023400       ??1facet@locale@std@@MAE@XZ 10024400 f i libsg_MSVC150_vc:sg_common.obj
 0001:00023410       ??1failure@ios_base@std@@UAE@XZ 10024410 f i libsg_MSVC150_vc:sg_common.obj
 0001:00023430       ??1locale@std@@QAE@XZ      10024430 f i libsg_MSVC150_vc:sg_common.obj
 0001:00023490       ??1runtime_error@std@@UAE@XZ 10024490 f i libsg_MSVC150_vc:sg_common.obj
 0001:000234b0       ??1sentry@?$basic_ostream@DU?$char_traits@D@std@@@std@@QAE@XZ 100244b0 f i libsg_MSVC150_vc:sg_common.obj
 0001:00023530       ??_G?$ctype@D@std@@MAEPAXI@Z 10024530 f i libsg_MSVC150_vc:sg_common.obj
 0001:00023530       ??_E?$ctype@D@std@@MAEPAXI@Z 10024530 f i libsg_MSVC150_vc:sg_common.obj
 0001:000235a0       ??_G?$num_put@DV?$ostreambuf_iterator@DU?$char_traits@D@std@@@std@@@std@@MAEPAXI@Z 100245a0 f i libsg_MSVC150_vc:sg_common.obj
 0001:000235a0       ??_E?$num_put@DV?$ostreambuf_iterator@DU?$char_traits@D@std@@@std@@@std@@MAEPAXI@Z 100245a0 f i libsg_MSVC150_vc:sg_common.obj
 0001:000235d0       ??_E?$numpunct@D@std@@MAEPAXI@Z 100245d0 f i libsg_MSVC150_vc:sg_common.obj
 0001:000235d0       ??_G?$numpunct@D@std@@MAEPAXI@Z 100245d0 f i libsg_MSVC150_vc:sg_common.obj
 0001:00023630       ??_E_Facet_base@std@@UAEPAXI@Z 10024630 f i libsg_MSVC150_vc:sg_common.obj
 0001:00023630       ??_G_Facet_base@std@@UAEPAXI@Z 10024630 f i libsg_MSVC150_vc:sg_common.obj
 0001:00023660       ??_G_Generic_error_category@std@@UAEPAXI@Z 10024660 f i libsg_MSVC150_vc:sg_common.obj
 0001:00023660       ??_E_Generic_error_category@std@@UAEPAXI@Z 10024660 f i libsg_MSVC150_vc:sg_common.obj
 0001:00023690       ??_G_Iostream_error_category@std@@UAEPAXI@Z 10024690 f i libsg_MSVC150_vc:sg_common.obj
 0001:00023690       ??_E_Iostream_error_category@std@@UAEPAXI@Z 10024690 f i libsg_MSVC150_vc:sg_common.obj
 0001:000236c0       ??_E_System_error@std@@UAEPAXI@Z 100246c0 f i libsg_MSVC150_vc:sg_common.obj
 0001:000236c0       ??_G_System_error@std@@UAEPAXI@Z 100246c0 f i libsg_MSVC150_vc:sg_common.obj
 0001:00023700       ??_Gbad_cast@std@@UAEPAXI@Z 10024700 f i libsg_MSVC150_vc:sg_common.obj
 0001:00023700       ??_Ebad_cast@std@@UAEPAXI@Z 10024700 f i libsg_MSVC150_vc:sg_common.obj
 0001:00023740       ??_Gctype_base@std@@UAEPAXI@Z 10024740 f i libsg_MSVC150_vc:sg_common.obj
 0001:00023740       ??_Ectype_base@std@@UAEPAXI@Z 10024740 f i libsg_MSVC150_vc:sg_common.obj
 0001:00023770       ??_Eexception@std@@UAEPAXI@Z 10024770 f i libsg_MSVC150_vc:sg_common.obj
 0001:00023770       ??_Gexception@std@@UAEPAXI@Z 10024770 f i libsg_MSVC150_vc:sg_common.obj
 0001:000237b0       ??_Gfacet@locale@std@@MAEPAXI@Z 100247b0 f i libsg_MSVC150_vc:sg_common.obj
 0001:000237b0       ??_Efacet@locale@std@@MAEPAXI@Z 100247b0 f i libsg_MSVC150_vc:sg_common.obj
 0001:000237e0       ??_Gfailure@ios_base@std@@UAEPAXI@Z 100247e0 f i libsg_MSVC150_vc:sg_common.obj
 0001:000237e0       ??_Efailure@ios_base@std@@UAEPAXI@Z 100247e0 f i libsg_MSVC150_vc:sg_common.obj
 0001:00023820       ??_Eruntime_error@std@@UAEPAXI@Z 10024820 f i libsg_MSVC150_vc:sg_common.obj
 0001:00023820       ??_Gruntime_error@std@@UAEPAXI@Z 10024820 f i libsg_MSVC150_vc:sg_common.obj
 0001:00023860       ??_Esystem_error@std@@UAEPAXI@Z 10024860 f i libsg_MSVC150_vc:sg_common.obj
 0001:00023860       ??_Gsystem_error@std@@UAEPAXI@Z 10024860 f i libsg_MSVC150_vc:sg_common.obj
 0001:000238a0       ?_Decref@facet@locale@std@@UAEPAV_Facet_base@3@XZ 100248a0 f i libsg_MSVC150_vc:sg_common.obj
 0001:000238c0       ?_Ffmt@?$num_put@DV?$ostreambuf_iterator@DU?$char_traits@D@std@@@std@@@std@@ABAPADPADDH@Z 100248c0 f i libsg_MSVC150_vc:sg_common.obj
 0001:000239b0       ?_Fput@?$num_put@DV?$ostreambuf_iterator@DU?$char_traits@D@std@@@std@@@std@@ABA?AV?$ostreambuf_iterator@DU?$char_traits@D@std@@@2@V32@AAVios_base@2@DPBDI@Z 100249b0 f i libsg_MSVC150_vc:sg_common.obj
 0001:000240e0       ?_Ifmt@?$num_put@DV?$ostreambuf_iterator@DU?$char_traits@D@std@@@std@@@std@@ABAPADPADPBDH@Z 100250e0 f i libsg_MSVC150_vc:sg_common.obj
 0001:00024190       ?_Incref@facet@locale@std@@UAEXXZ 10025190 f i libsg_MSVC150_vc:sg_common.obj
 0001:000241a0       ?_Init@?$numpunct@D@std@@IAEXABV_Locinfo@2@_N@Z 100251a0 f i libsg_MSVC150_vc:sg_common.obj
 0001:000243a0       ?_Iput@?$num_put@DV?$ostreambuf_iterator@DU?$char_traits@D@std@@@std@@@std@@ABA?AV?$ostreambuf_iterator@DU?$char_traits@D@std@@@2@V32@AAVios_base@2@DPADI@Z 100253a0 f i libsg_MSVC150_vc:sg_common.obj
 0001:00024a00       ?_Osfx@?$basic_ostream@DU?$char_traits@D@std@@@std@@QAEXXZ 10025a00 f i libsg_MSVC150_vc:sg_common.obj
 0001:00024b00       ?_Put@?$num_put@DV?$ostreambuf_iterator@DU?$char_traits@D@std@@@std@@@std@@ABA?AV?$ostreambuf_iterator@DU?$char_traits@D@std@@@2@V32@PBDI@Z 10025b00 f i libsg_MSVC150_vc:sg_common.obj
 0001:00024b90       ?_Rep@?$num_put@DV?$ostreambuf_iterator@DU?$char_traits@D@std@@@std@@@std@@ABA?AV?$ostreambuf_iterator@DU?$char_traits@D@std@@@2@V32@DI@Z 10025b90 f i libsg_MSVC150_vc:sg_common.obj
 0001:00024c20       ?_Tidy@?$numpunct@D@std@@AAEXXZ 10025c20 f i libsg_MSVC150_vc:sg_common.obj
 0001:00024c50       ?_Tidy_deallocate@?$basic_string@DU?$char_traits@D@std@@V?$allocator@D@2@@std@@QAEXXZ 10025c50 f i libsg_MSVC150_vc:sg_common.obj
 0001:00024cb0       ?_Xlen@?$basic_string@DU?$char_traits@D@std@@V?$allocator@D@2@@std@@SAXXZ 10025cb0 f i libsg_MSVC150_vc:sg_common.obj
 0001:00024cc0       ?_Xlength@?$vector@V?$basic_string@DU?$char_traits@D@std@@V?$allocator@D@2@@std@@V?$allocator@V?$basic_string@DU?$char_traits@D@std@@V?$allocator@D@2@@std@@@2@@std@@CAXXZ 10025cc0 f i libsg_MSVC150_vc:sg_common.obj
 0001:00024cd0       ?_Xran@?$_String_val@U?$_Simple_types@D@std@@@std@@SAXXZ 10025cd0 f i libsg_MSVC150_vc:sg_common.obj
 0001:00024ce0       ?allocate@?$allocator@D@std@@QAEPADI@Z 10025ce0 f i libsg_MSVC150_vc:sg_common.obj
 0001:00024d50       ?append@?$basic_string@DU?$char_traits@D@std@@V?$allocator@D@2@@std@@QAEAAV12@ID@Z 10025d50 f i libsg_MSVC150_vc:sg_common.obj
 0001:00024f10       ?append@?$basic_string@DU?$char_traits@D@std@@V?$allocator@D@2@@std@@QAEAAV12@QBDI@Z 10025f10 f i libsg_MSVC150_vc:sg_common.obj
 0001:000250c0       ?assign@?$basic_string@DU?$char_traits@D@std@@V?$allocator@D@2@@std@@QAEAAV12@QBDI@Z 100260c0 f i libsg_MSVC150_vc:sg_common.obj
 0001:000251f0       ?clear@ios_base@std@@QAEXH_N@Z 100261f0 f i libsg_MSVC150_vc:sg_common.obj
 0001:00025280       ?deallocate@?$allocator@V?$basic_string@DU?$char_traits@D@std@@V?$allocator@D@2@@std@@@std@@QAEXQAV?$basic_string@DU?$char_traits@D@std@@V?$allocator@D@2@@2@I@Z 10026280 f i libsg_MSVC150_vc:sg_common.obj
 0001:000252d0       ?dec@std@@YAAAVios_base@1@AAV21@@Z 100262d0 f i libsg_MSVC150_vc:sg_common.obj
 0001:000252f0       ?default_error_condition@error_category@std@@UBE?AVerror_condition@2@H@Z 100262f0 f i libsg_MSVC150_vc:sg_common.obj
 0001:00025310       ?do_decimal_point@?$numpunct@D@std@@MBEDXZ 10026310 f i libsg_MSVC150_vc:sg_common.obj
 0001:00025320       ?do_falsename@?$numpunct@D@std@@MBE?AV?$basic_string@DU?$char_traits@D@std@@V?$allocator@D@2@@2@XZ 10026320 f i libsg_MSVC150_vc:sg_common.obj
 0001:00025370       ?do_grouping@?$numpunct@D@std@@MBE?AV?$basic_string@DU?$char_traits@D@std@@V?$allocator@D@2@@2@XZ 10026370 f i libsg_MSVC150_vc:sg_common.obj
 0001:000253c0       ?do_narrow@?$ctype@D@std@@MBEDDD@Z 100263c0 f i libsg_MSVC150_vc:sg_common.obj
 0001:000253d0       ?do_narrow@?$ctype@D@std@@MBEPBDPBD0DPAD@Z 100263d0 f i libsg_MSVC150_vc:sg_common.obj
 0001:00025400       ?do_put@?$num_put@DV?$ostreambuf_iterator@DU?$char_traits@D@std@@@std@@@std@@MBE?AV?$ostreambuf_iterator@DU?$char_traits@D@std@@@2@V32@AAVios_base@2@DJ@Z 10026400 f i libsg_MSVC150_vc:sg_common.obj
 0001:00025490       ?do_put@?$num_put@DV?$ostreambuf_iterator@DU?$char_traits@D@std@@@std@@@std@@MBE?AV?$ostreambuf_iterator@DU?$char_traits@D@std@@@2@V32@AAVios_base@2@DK@Z 10026490 f i libsg_MSVC150_vc:sg_common.obj
 0001:00025520       ?do_put@?$num_put@DV?$ostreambuf_iterator@DU?$char_traits@D@std@@@std@@@std@@MBE?AV?$ostreambuf_iterator@DU?$char_traits@D@std@@@2@V32@AAVios_base@2@DN@Z 10026520 f i libsg_MSVC150_vc:sg_common.obj
 0001:00025750       ?do_put@?$num_put@DV?$ostreambuf_iterator@DU?$char_traits@D@std@@@std@@@std@@MBE?AV?$ostreambuf_iterator@DU?$char_traits@D@std@@@2@V32@AAVios_base@2@DO@Z 10026750 f i libsg_MSVC150_vc:sg_common.obj
 0001:00025980       ?do_put@?$num_put@DV?$ostreambuf_iterator@DU?$char_traits@D@std@@@std@@@std@@MBE?AV?$ostreambuf_iterator@DU?$char_traits@D@std@@@2@V32@AAVios_base@2@DPBX@Z 10026980 f i libsg_MSVC150_vc:sg_common.obj
 0001:00025a00       ?do_put@?$num_put@DV?$ostreambuf_iterator@DU?$char_traits@D@std@@@std@@@std@@MBE?AV?$ostreambuf_iterator@DU?$char_traits@D@std@@@2@V32@AAVios_base@2@D_J@Z 10026a00 f i libsg_MSVC150_vc:sg_common.obj
 0001:00025a90       ?do_put@?$num_put@DV?$ostreambuf_iterator@DU?$char_traits@D@std@@@std@@@std@@MBE?AV?$ostreambuf_iterator@DU?$char_traits@D@std@@@2@V32@AAVios_base@2@D_K@Z 10026a90 f i libsg_MSVC150_vc:sg_common.obj
 0001:00025b20       ?do_put@?$num_put@DV?$ostreambuf_iterator@DU?$char_traits@D@std@@@std@@@std@@MBE?AV?$ostreambuf_iterator@DU?$char_traits@D@std@@@2@V32@AAVios_base@2@D_N@Z 10026b20 f i libsg_MSVC150_vc:sg_common.obj
 0001:00025db0       ?do_thousands_sep@?$numpunct@D@std@@MBEDXZ 10026db0 f i libsg_MSVC150_vc:sg_common.obj
 0001:00025dc0       ?do_tolower@?$ctype@D@std@@MBEDD@Z 10026dc0 f i libsg_MSVC150_vc:sg_common.obj
 0001:00025de0       ?do_tolower@?$ctype@D@std@@MBEPBDPADPBD@Z 10026de0 f i libsg_MSVC150_vc:sg_common.obj
 0001:00025e40       ?do_toupper@?$ctype@D@std@@MBEDD@Z 10026e40 f i libsg_MSVC150_vc:sg_common.obj
 0001:00025e60       ?do_toupper@?$ctype@D@std@@MBEPBDPADPBD@Z 10026e60 f i libsg_MSVC150_vc:sg_common.obj
 0001:00025ec0       ?do_truename@?$numpunct@D@std@@MBE?AV?$basic_string@DU?$char_traits@D@std@@V?$allocator@D@2@@2@XZ 10026ec0 f i libsg_MSVC150_vc:sg_common.obj
 0001:00025f10       ?do_widen@?$ctype@D@std@@MBEDD@Z 10026f10 f i libsg_MSVC150_vc:sg_common.obj
 0001:00025f20       ?do_widen@?$ctype@D@std@@MBEPBDPBD0PAD@Z 10026f20 f i libsg_MSVC150_vc:sg_common.obj
 0001:00025f50       ?equivalent@error_category@std@@UBE_NABVerror_code@2@H@Z 10026f50 f i libsg_MSVC150_vc:sg_common.obj
 0001:00025f80       ?equivalent@error_category@std@@UBE_NHABVerror_condition@2@@Z 10026f80 f i libsg_MSVC150_vc:sg_common.obj
 0001:00025fd0       ?flush@?$basic_ostream@DU?$char_traits@D@std@@@std@@QAEAAV12@XZ 10026fd0 f i libsg_MSVC150_vc:sg_common.obj
 0001:00026110       ?hex@std@@YAAAVios_base@1@AAV21@@Z 10027110 f i libsg_MSVC150_vc:sg_common.obj
 0001:00026130       ?make_error_code@std@@YA?AVerror_code@1@W4io_errc@1@@Z 10027130 f i libsg_MSVC150_vc:sg_common.obj
 0001:00026170       ?message@_Generic_error_category@std@@UBE?AV?$basic_string@DU?$char_traits@D@std@@V?$allocator@D@2@@2@H@Z 10027170 f i libsg_MSVC150_vc:sg_common.obj
 0001:000261d0       ?message@_Iostream_error_category@std@@UBE?AV?$basic_string@DU?$char_traits@D@std@@V?$allocator@D@2@@2@H@Z 100271d0 f i libsg_MSVC150_vc:sg_common.obj
 0001:00026270       ?name@_Generic_error_category@std@@UBEPBDXZ 10027270 f i libsg_MSVC150_vc:sg_common.obj
 0001:00026280       ?name@_Iostream_error_category@std@@UBEPBDXZ 10027280 f i libsg_MSVC150_vc:sg_common.obj
 0001:00026290       ?push_back@?$vector@V?$basic_string@DU?$char_traits@D@std@@V?$allocator@D@2@@std@@V?$allocator@V?$basic_string@DU?$char_traits@D@std@@V?$allocator@D@2@@std@@@2@@std@@QAEX$$QAV?$basic_string@DU?$char_traits@D@std@@V?$allocator@D@2@@2@@Z 10027290 f i libsg_MSVC150_vc:sg_common.obj
 0001:00026300       ?put@?$basic_ostream@DU?$char_traits@D@std@@@std@@QAEAAV12@D@Z 10027300 f i libsg_MSVC150_vc:sg_common.obj
 0001:00026540       ?setstate@?$basic_ios@DU?$char_traits@D@std@@@std@@QAEXH_N@Z 10027540 f i libsg_MSVC150_vc:sg_common.obj
 0001:000265a0       ?to_string@std@@YA?AV?$basic_string@DU?$char_traits@D@std@@V?$allocator@D@2@@1@_J@Z 100275a0 f i libsg_MSVC150_vc:sg_common.obj
 0001:00026650       ?what@exception@std@@UBEPBDXZ 10027650 f i libsg_MSVC150_vc:sg_common.obj
 0001:00026670       _createEncryptedMacFile    10027670 f   libsg_MSVC150_vc:sg_common.obj
 0001:00026700       _createHashValue           10027700 f   libsg_MSVC150_vc:sg_common.obj
 0001:00026730       _getLowestBit              10027730 f   libsg_MSVC150_vc:sg_common.obj
 0001:00026760       _getPCIConfigData          10027760 f   libsg_MSVC150_vc:sg_common.obj
 0001:00026780       _getTargetAuthentication   10027780 f   libsg_MSVC150_vc:sg_common.obj
 0001:000275e0       _printWarningMessage       100285e0 f   libsg_MSVC150_vc:sg_common.obj
 0001:00027620       _readPciBar                10028620 f   libsg_MSVC150_vc:sg_common.obj
 0001:00027760       _setPCIConfigAddress       10028760 f   libsg_MSVC150_vc:sg_common.obj
 0001:000277b0       _setPCIConfigData          100287b0 f   libsg_MSVC150_vc:sg_common.obj
 0001:000277d0       _sg_checkTargetAuthentication 100287d0 f   libsg_MSVC150_vc:sg_common.obj
 0001:00027800       _sg_createMutex            10028800 f   libsg_MSVC150_vc:sg_common.obj
 0001:00027820       _sg_createSemaphore        10028820 f   libsg_MSVC150_vc:sg_common.obj
 0001:00027840       _sg_createThread           10028840 f   libsg_MSVC150_vc:sg_common.obj
 0001:00027880       _sg_destroyMutex           10028880 f   libsg_MSVC150_vc:sg_common.obj
 0001:000278a0       _sg_destroySemaphore       100288a0 f   libsg_MSVC150_vc:sg_common.obj
 0001:000278c0       _sg_destroyThread          100288c0 f   libsg_MSVC150_vc:sg_common.obj
 0001:000278f0       _sg_detectPciDevice        100288f0 f   libsg_MSVC150_vc:sg_common.obj
 0001:00027920       _sg_doesFsNodeExist        10028920 f   libsg_MSVC150_vc:sg_common.obj
 0001:00027940       _sg_findPciDevice          10028940 f   libsg_MSVC150_vc:sg_common.obj
 0001:00027c70       _sg_fullFile               10028c70 f   libsg_MSVC150_vc:sg_common.obj
 0001:00027d40       _sg_getElapsedTime         10028d40 f   libsg_MSVC150_vc:sg_common.obj
 0001:00027d60       _sg_lockMutex              10028d60 f   libsg_MSVC150_vc:sg_common.obj
 0001:00027d80       _sg_mapIo                  10028d80 f   libsg_MSVC150_vc:sg_common.obj
 0001:00027da0       _sg_mapMemory              10028da0 f   libsg_MSVC150_vc:sg_common.obj
 0001:00027dd0       _sg_module_get             10028dd0 f   libsg_MSVC150_vc:sg_common.obj
 0001:00027e90       _sg_module_register        10028e90 f   libsg_MSVC150_vc:sg_common.obj
 0001:00027f50       _sg_module_unregister      10028f50 f   libsg_MSVC150_vc:sg_common.obj
 0001:00028060       _sg_releaseSemaphore       10029060 f   libsg_MSVC150_vc:sg_common.obj
 0001:00028080       _sg_setAbilities           10029080 f   libsg_MSVC150_vc:sg_common.obj
 0001:00028090       _sg_showPciDevice          10029090 f   libsg_MSVC150_vc:sg_common.obj
 0001:00028170       _sg_tryLockMutex           10029170 f   libsg_MSVC150_vc:sg_common.obj
 0001:00028190       _sg_unlockMutex            10029190 f   libsg_MSVC150_vc:sg_common.obj
 0001:000281b0       _sg_waitForSemaphore       100291b0 f   libsg_MSVC150_vc:sg_common.obj
 0001:000281d0       _sg_wait_ns                100291d0 f   libsg_MSVC150_vc:sg_common.obj
 0001:00028230       _sg_wait_s                 10029230 f   libsg_MSVC150_vc:sg_common.obj
 0001:00028260       _sprintf_s                 10029260 f i libsg_MSVC150_vc:sg_common.obj
 0001:000282a0       _sg_getTargetMatlabVersion 100292a0 f   libsg_MSVC150_vc:sg_target.obj
 0001:00028540       _sg_target_getHostLinkMac  10029540 f   libsg_MSVC150_vc:sg_target.obj
 0001:00028580       ?MurmurHash3_x64_128@@YAXPBXHIPAX@Z 10029580 f   libsg_MSVC150_vc:MurmurHash3.obj
 0001:00028ae0       ?MurmurHash3_x86_128@@YAXPBXHIPAX@Z 10029ae0 f   libsg_MSVC150_vc:MurmurHash3.obj
 0001:00028ec0       ?MurmurHash3_x86_32@@YAXPBXHIPAX@Z 10029ec0 f   libsg_MSVC150_vc:MurmurHash3.obj
 0001:00028fb0       __ftoui3                   10029fb0 f   LIBCMT:ftol3.obj
 0001:00028fbf       __ftoul3                   10029fbf f   LIBCMT:ftol3.obj
 0001:00028fce       __ftol3                    10029fce f   LIBCMT:ftol3.obj
 0001:00028fdb       __ftol3_NaN                10029fdb f   LIBCMT:ftol3.obj
 0001:00028ff3       __ftol3_work               10029ff3 f   LIBCMT:ftol3.obj
 0001:00029079       __ftol3_common             1002a079 f   LIBCMT:ftol3.obj
 0001:0002913b       __ftol3_arg_error          1002a13b f   LIBCMT:ftol3.obj
 0001:0002914d       __ftol3_except             1002a14d f   LIBCMT:ftol3.obj
 0001:00029191       __dtoui3                   1002a191 f   LIBCMT:ftol3.obj
 0001:000291a0       __dtoul3                   1002a1a0 f   LIBCMT:ftol3.obj
 0001:000291af       __dtol3                    1002a1af f   LIBCMT:ftol3.obj
 0001:000291bc       __dtol3_NaN                1002a1bc f   LIBCMT:ftol3.obj
 0001:000291d9       __dtol3_work               1002a1d9 f   LIBCMT:ftol3.obj
 0001:000292c0       __ultod3                   1002a2c0 f   LIBCMT:ftol3.obj
 0001:00029300       __ltod3                    1002a300 f   LIBCMT:ftol3.obj
 0001:00029404       ___raise_securityfailure   1002a404 f   LIBCMT:gs_report.obj
 0001:00029436       ___report_gsfailure        1002a436 f   LIBCMT:gs_report.obj
 0001:0002956d       ___report_rangecheckfailure 1002a56d f   LIBCMT:gs_report.obj
 0001:0002957c       ___report_securityfailure  1002a57c f   LIBCMT:gs_report.obj
 0001:0002967d       ___report_securityfailureEx 1002a67d f   LIBCMT:gs_report.obj
 0001:000297d6       @__security_check_cookie@4 1002a7d6 f   LIBCMT:secchk.obj
 0001:000297eb       ___isa_available_init      1002a7eb f   LIBCMT:cpu_disp.obj
 0001:00029dcc       __CRT_INIT@12              1002adcc f   LIBCMT:dll_dllmain.obj
 0001:00029dd7       __DllMainCRTStartup@12     1002add7 f   LIBCMT:dll_dllmain.obj
 0001:00029e02       ??2@YAPAXI@Z               1002ae02 f   LIBCMT:new_scalar.obj
 0001:00029e3e       ??3@YAXPAXI@Z              1002ae3e f   LIBCMT:delete_scalar_size.obj
 0001:00029e4f       ??_U@YAPAXI@Z              1002ae4f f   LIBCMT:new_array.obj
 0001:00029e5a       ??_V@YAXPAX@Z              1002ae5a f   LIBCMT:delete_array.obj
 0001:00029e60       __aulldiv                  1002ae60 f   LIBCMT:ulldiv.obj
 0001:00029ee2       ??1type_info@@UAE@XZ       1002aee2 f   LIBCMT:std_type_info_static.obj
 0001:00029ee9       ??_Etype_info@@UAEPAXI@Z   1002aee9 f i LIBCMT:std_type_info_static.obj
 0001:00029ee9       ??_Gtype_info@@UAEPAXI@Z   1002aee9 f i LIBCMT:std_type_info_static.obj
 0001:00029f20       __allmul                   1002af20 f   LIBCMT:llmul.obj
 0001:00029fc1       ___security_init_cookie    1002afc1 f   LIBCMT:gs_support.obj
 0001:0002a01e       ?__scrt_initialize_type_info@@YAXXZ 1002b01e f   LIBCMT:tncleanup.obj
 0001:0002a02d       ?__scrt_uninitialize_type_info@@YAXXZ 1002b02d f   LIBCMT:tncleanup.obj
 0001:0002a03c       ___local_stdio_scanf_options 1002b03c f i LIBCMT:default_local_stdio_options.obj
 0001:0002a042       ___scrt_initialize_default_local_stdio_options 1002b042 f   LIBCMT:default_local_stdio_options.obj
 0001:0002a066       ??$__crt_fast_decode_pointer@PAP6AXXZ@@YAPAP6AXXZQAP6AXXZ@Z 1002b066 f i LIBCMT:utility.obj
 0001:0002a07f       ??$__crt_fast_encode_pointer@PAP6AXXZ@@YAPAP6AXXZQAP6AXXZ@Z 1002b07f f i LIBCMT:utility.obj
 0001:0002a0a3       ?__crt_rotate_pointer_value@@YAIIH@Z 1002b0a3 f i LIBCMT:utility.obj
 0001:0002a0b3       ?configure_argv@__scrt_narrow_argv_policy@@SAHXZ 1002b0b3 f i LIBCMT:utility.obj
 0001:0002a118       ?initialize_environment@__scrt_narrow_environment_policy@@SAHXZ 1002b118 f i LIBCMT:utility.obj
 0001:0002a15e       _NtCurrentTeb              1002b15e f i LIBCMT:utility.obj
 0001:0002a165       ___scrt_acquire_startup_lock 1002b165 f   LIBCMT:utility.obj
 0001:0002a1a3       ___scrt_dllmain_after_initialize_c 1002b1a3 f   LIBCMT:utility.obj
 0001:0002a1d8       ___scrt_dllmain_before_initialize_c 1002b1d8 f   LIBCMT:utility.obj
 0001:0002a1e9       ___scrt_dllmain_crt_thread_attach 1002b1e9 f   LIBCMT:utility.obj
 0001:0002a20f       ___scrt_dllmain_crt_thread_detach 1002b20f f   LIBCMT:utility.obj
 0001:0002a21f       ___scrt_dllmain_exception_filter 1002b21f f   LIBCMT:utility.obj
 0001:0002a260       ___scrt_dllmain_uninitialize_c 1002b260 f   LIBCMT:utility.obj
 0001:0002a28b       ___scrt_dllmain_uninitialize_critical 1002b28b f   LIBCMT:utility.obj
 0001:0002a29b       ___scrt_initialize_crt     1002b29b f   LIBCMT:utility.obj
 0001:0002a2e2       ___scrt_initialize_onexit_tables 1002b2e2 f   LIBCMT:utility.obj
 0001:0002a3b0       ___scrt_is_nonwritable_in_current_image 1002b3b0 f   LIBCMT:utility.obj
 0001:0002a469       ___scrt_release_startup_lock 1002b469 f   LIBCMT:utility.obj
 0001:0002a48d       ___scrt_uninitialize_crt   1002b48d f   LIBCMT:utility.obj
 0001:0002a4bf       __onexit                   1002b4bf f   LIBCMT:utility.obj
 0001:0002a508       _at_quick_exit             1002b508 f   LIBCMT:utility.obj
 0001:0002a545       _atexit                    1002b545 f   LIBCMT:utility.obj
 0001:0002a55f       ___scrt_get_dyn_tls_init_callback 1002b55f f   LIBCMT:dyn_tls_init.obj
 0001:0002a565       ___scrt_fastfail           1002b565 f   LIBCMT:utility_desktop.obj
 0001:0002a6c5       ___scrt_get_show_window_mode 1002b6c5 f   LIBCMT:utility_desktop.obj
 0001:0002a702       ___scrt_initialize_mta     1002b702 f   LIBCMT:utility_desktop.obj
 0001:0002a707       ___scrt_initialize_winrt   1002b707 f   LIBCMT:utility_desktop.obj
 0001:0002a70a       ___scrt_is_managed_app     1002b70a f   LIBCMT:utility_desktop.obj
 0001:0002a75d       ___scrt_set_unhandled_exception_filter 1002b75d f   LIBCMT:utility_desktop.obj
 0001:0002a76c       ___scrt_exe_initialize_mta 1002b76c f   LIBCMT:utility_desktop.obj
 0001:0002a76c       ___scrt_stub_for_initialize_mta 1002b76c f   LIBCMT:utility_desktop.obj
 0001:0002a76f       ___scrt_unhandled_exception_filter@4 1002b76f f   LIBCMT:utility_desktop.obj
 0001:0002a7c0       __crt_debugger_hook        1002b7c0 f   LIBCMT:utility_desktop.obj
 0001:0002a7ca       __RTC_Initialize           1002b7ca f   LIBCMT:initsect.obj
 0001:0002a801       __RTC_Terminate            1002b801 f   LIBCMT:initsect.obj
 0001:0002a840       __SEH_prolog4              1002b840 f   LIBCMT:sehprolg4.obj
 0001:0002a886       __SEH_epilog4              1002b886 f   LIBCMT:sehprolg4.obj
 0001:0002a8b1       @_guard_check_icall_nop@4  1002b8b1 f i LIBCMT:guard_support.obj
 0001:0002a8b2       _ReadNoFence               1002b8b2 f i LIBCMT:guard_support.obj
 0001:0002a8be       _ReadPointerNoFence        1002b8be f i LIBCMT:guard_support.obj
 0001:0002a8ca       __guard_icall_checks_enforced 1002b8ca f i LIBCMT:guard_support.obj
 0001:0002a8e0       ??0bad_alloc@std@@AAE@QBD@Z 1002b8e0 f i LIBCMT:throw_bad_alloc.obj
 0001:0002a904       ??0bad_alloc@std@@QAE@ABV01@@Z 1002b904 f i LIBCMT:throw_bad_alloc.obj
 0001:0002a925       ??0bad_alloc@std@@QAE@XZ   1002b925 f i LIBCMT:throw_bad_alloc.obj
 0001:0002a943       ??0bad_array_new_length@std@@QAE@ABV01@@Z 1002b943 f i LIBCMT:throw_bad_alloc.obj
 0001:0002a964       ??0bad_array_new_length@std@@QAE@XZ 1002b964 f i LIBCMT:throw_bad_alloc.obj
 0001:0002a982       ??0exception@std@@QAE@QBDH@Z 1002b982 f i LIBCMT:throw_bad_alloc.obj
 0001:0002a9a6       ??1bad_alloc@std@@UAE@XZ   1002b9a6 f i LIBCMT:throw_bad_alloc.obj
 0001:0002a9bb       ??1bad_array_new_length@std@@UAE@XZ 1002b9bb f i LIBCMT:throw_bad_alloc.obj
 0001:0002a9d0       ??_Ebad_alloc@std@@UAEPAXI@Z 1002b9d0 f i LIBCMT:throw_bad_alloc.obj
 0001:0002a9d0       ??_Gbad_alloc@std@@UAEPAXI@Z 1002b9d0 f i LIBCMT:throw_bad_alloc.obj
 0001:0002aa08       ??_Gbad_array_new_length@std@@UAEPAXI@Z 1002ba08 f i LIBCMT:throw_bad_alloc.obj
 0001:0002aa08       ??_Ebad_array_new_length@std@@UAEPAXI@Z 1002ba08 f i LIBCMT:throw_bad_alloc.obj
 0001:0002aa40       ?__scrt_throw_std_bad_alloc@@YAXXZ 1002ba40 f   LIBCMT:throw_bad_alloc.obj
 0001:0002aa64       ?__scrt_throw_std_bad_array_new_length@@YAXXZ 1002ba64 f   LIBCMT:throw_bad_alloc.obj
 0001:0002aa88       ??3@YAXPAX@Z               1002ba88 f   LIBCMT:delete_scalar.obj
 0001:0002aa8d       __get_startup_argv_mode    1002ba8d f   LIBCMT:argv_mode.obj
 0001:0002aa91       ___scrt_is_ucrt_dll_in_use 1002ba91 f   LIBCMT:ucrt_detection.obj
 0001:0002aaa0       ??0_Init_locks@std@@QAE@XZ 1002baa0 f   libcpmt:xlock.obj
 0001:0002aad8       ??0_Lockit@std@@QAE@H@Z    1002bad8 f   libcpmt:xlock.obj
 0001:0002ab15       ??0_Lockit@std@@QAE@XZ     1002bb15 f   libcpmt:xlock.obj
 0001:0002ab27       ??1_Init_locks@std@@QAE@XZ 1002bb27 f   libcpmt:xlock.obj
 0001:0002ab57       ??1_Lockit@std@@QAE@XZ     1002bb57 f   libcpmt:xlock.obj
 0001:0002ab7d       ?_Init_locks_ctor@_Init_locks@std@@CAXPAV12@@Z 1002bb7d f   libcpmt:xlock.obj
 0001:0002abad       ?_Init_locks_dtor@_Init_locks@std@@CAXPAV12@@Z 1002bbad f   libcpmt:xlock.obj
 0001:0002abdd       ?_Lockit_ctor@_Lockit@std@@CAXPAV12@@Z 1002bbdd f   libcpmt:xlock.obj
 0001:0002abec       ?_Lockit_ctor@_Lockit@std@@CAXPAV12@H@Z 1002bbec f   libcpmt:xlock.obj
 0001:0002ac1f       ?_Lockit_ctor@_Lockit@std@@SAXH@Z 1002bc1f f   libcpmt:xlock.obj
 0001:0002ac4c       ?_Lockit_dtor@_Lockit@std@@CAXPAV12@@Z 1002bc4c f   libcpmt:xlock.obj
 0001:0002ac68       ?_Lockit_dtor@_Lockit@std@@SAXH@Z 1002bc68 f   libcpmt:xlock.obj
 0001:0002ac95       __Lock_at_thread_exit_mutex 1002bc95 f   libcpmt:xlock.obj
 0001:0002aca4       __Unlock_at_thread_exit_mutex 1002bca4 f   libcpmt:xlock.obj
 0001:0002acb3       ?uncaught_exception@std@@YA_NXZ 1002bcb3 f   libcpmt:uncaught_exception.obj
 0001:0002acb8       ??0bad_function_call@std@@QAE@ABV01@@Z 1002bcb8 f i libcpmt:xthrow.obj
 0001:0002acd9       ??0bad_function_call@std@@QAE@XZ 1002bcd9 f i libcpmt:xthrow.obj
 0001:0002acee       ??0exception@std@@QAE@QBD@Z 1002bcee f i libcpmt:xthrow.obj
 0001:0002ad30       ??0exception@std@@QAE@XZ   1002bd30 f i libcpmt:xthrow.obj
 0001:0002ad45       ??0invalid_argument@std@@QAE@ABV01@@Z 1002bd45 f i libcpmt:xthrow.obj
 0001:0002ad66       ??0invalid_argument@std@@QAE@PBD@Z 1002bd66 f i libcpmt:xthrow.obj
 0001:0002ad8c       ??0length_error@std@@QAE@ABV01@@Z 1002bd8c f i libcpmt:xthrow.obj
 0001:0002adad       ??0length_error@std@@QAE@PBD@Z 1002bdad f i libcpmt:xthrow.obj
 0001:0002add3       ??0logic_error@std@@QAE@ABV01@@Z 1002bdd3 f i libcpmt:xthrow.obj
 0001:0002adf4       ??0logic_error@std@@QAE@PBD@Z 1002bdf4 f i libcpmt:xthrow.obj
 0001:0002ae1a       ??0out_of_range@std@@QAE@ABV01@@Z 1002be1a f i libcpmt:xthrow.obj
 0001:0002ae3b       ??0out_of_range@std@@QAE@PBD@Z 1002be3b f i libcpmt:xthrow.obj
 0001:0002ae61       ??0overflow_error@std@@QAE@ABV01@@Z 1002be61 f i libcpmt:xthrow.obj
 0001:0002ae82       ??0overflow_error@std@@QAE@PBD@Z 1002be82 f i libcpmt:xthrow.obj
 0001:0002aea8       ??0regex_error@std@@QAE@ABV01@@Z 1002bea8 f i libcpmt:xthrow.obj
 0001:0002aed5       ??0regex_error@std@@QAE@W4error_type@regex_constants@1@@Z 1002bed5 f i libcpmt:xthrow.obj
 0001:0002af0e       ??1bad_function_call@std@@UAE@XZ 1002bf0e f i libcpmt:xthrow.obj
 0001:0002af23       ??1invalid_argument@std@@UAE@XZ 1002bf23 f i libcpmt:xthrow.obj
 0001:0002af38       ??1length_error@std@@UAE@XZ 1002bf38 f i libcpmt:xthrow.obj
 0001:0002af4d       ??1logic_error@std@@UAE@XZ 1002bf4d f i libcpmt:xthrow.obj
 0001:0002af62       ??1out_of_range@std@@UAE@XZ 1002bf62 f i libcpmt:xthrow.obj
 0001:0002af77       ??1overflow_error@std@@UAE@XZ 1002bf77 f i libcpmt:xthrow.obj
 0001:0002af8c       ??1regex_error@std@@UAE@XZ 1002bf8c f i libcpmt:xthrow.obj
 0001:0002afa1       ??_Gbad_function_call@std@@UAEPAXI@Z 1002bfa1 f i libcpmt:xthrow.obj
 0001:0002afa1       ??_Ebad_function_call@std@@UAEPAXI@Z 1002bfa1 f i libcpmt:xthrow.obj
 0001:0002afd9       ??_Ginvalid_argument@std@@UAEPAXI@Z 1002bfd9 f i libcpmt:xthrow.obj
 0001:0002afd9       ??_Einvalid_argument@std@@UAEPAXI@Z 1002bfd9 f i libcpmt:xthrow.obj
 0001:0002b011       ??_Glength_error@std@@UAEPAXI@Z 1002c011 f i libcpmt:xthrow.obj
 0001:0002b011       ??_Elength_error@std@@UAEPAXI@Z 1002c011 f i libcpmt:xthrow.obj
 0001:0002b049       ??_Glogic_error@std@@UAEPAXI@Z 1002c049 f i libcpmt:xthrow.obj
 0001:0002b049       ??_Elogic_error@std@@UAEPAXI@Z 1002c049 f i libcpmt:xthrow.obj
 0001:0002b081       ??_Gout_of_range@std@@UAEPAXI@Z 1002c081 f i libcpmt:xthrow.obj
 0001:0002b081       ??_Eout_of_range@std@@UAEPAXI@Z 1002c081 f i libcpmt:xthrow.obj
 0001:0002b0b9       ??_Eoverflow_error@std@@UAEPAXI@Z 1002c0b9 f i libcpmt:xthrow.obj
 0001:0002b0b9       ??_Goverflow_error@std@@UAEPAXI@Z 1002c0b9 f i libcpmt:xthrow.obj
 0001:0002b0f1       ??_Eregex_error@std@@UAEPAXI@Z 1002c0f1 f i libcpmt:xthrow.obj
 0001:0002b0f1       ??_Gregex_error@std@@UAEPAXI@Z 1002c0f1 f i libcpmt:xthrow.obj
 0001:0002b129       ?_Stringify@regex_error@std@@CAPBDW4error_type@regex_constants@2@@Z 1002c129 f i libcpmt:xthrow.obj
 0001:0002b219       ?_Xbad_alloc@std@@YAXXZ    1002c219 f   libcpmt:xthrow.obj
 0001:0002b23d       ?_Xbad_function_call@std@@YAXXZ 1002c23d f   libcpmt:xthrow.obj
 0001:0002b261       ?_Xinvalid_argument@std@@YAXPBD@Z 1002c261 f   libcpmt:xthrow.obj
 0001:0002b289       ?_Xlength_error@std@@YAXPBD@Z 1002c289 f   libcpmt:xthrow.obj
 0001:0002b2b1       ?_Xout_of_range@std@@YAXPBD@Z 1002c2b1 f   libcpmt:xthrow.obj
 0001:0002b2d9       ?_Xoverflow_error@std@@YAXPBD@Z 1002c2d9 f   libcpmt:xthrow.obj
 0001:0002b301       ?_Xregex_error@std@@YAXW4error_type@regex_constants@1@@Z 1002c301 f   libcpmt:xthrow.obj
 0001:0002b329       ?_Xruntime_error@std@@YAXPBD@Z 1002c329 f   libcpmt:xthrow.obj
 0001:0002b351       ?what@bad_function_call@std@@UBEPBDXZ 1002c351 f i libcpmt:xthrow.obj
 0001:0002b357       __Getctype                 1002c357 f   libcpmt:_tolower.obj
 0001:0002b3d9       __Tolower                  1002c3d9 f   libcpmt:_tolower.obj
 0001:0002b516       __Getcvt                   1002c516 f   libcpmt:xwctomb.obj
 0001:0002b5a5       __Wcrtomb                  1002c5a5 f   libcpmt:xwctomb.obj
 0001:0002b618       ___Wcrtomb_lk              1002c618 f   libcpmt:xwctomb.obj
 0001:0002b623       __Toupper                  1002c623 f   libcpmt:_toupper.obj
 0001:0002b760       ??0?$_Yarn@D@std@@QAE@PBD@Z 1002c760 f i libcpmt:locale0.obj
 0001:0002b783       ??0_Fac_node@std@@QAE@PAU01@PAV_Facet_base@1@@Z 1002c783 f i libcpmt:locale0.obj
 0001:0002b79c       ??0_Facet_base@std@@QAE@XZ 1002c79c f i libcpmt:locale0.obj
 0001:0002b7a7       ??0_Locimp@locale@std@@AAE@ABV012@@Z 1002c7a7 f i libcpmt:locale0.obj
 0001:0002b82b       ??0_Locimp@locale@std@@AAE@_N@Z 1002c82b f i libcpmt:locale0.obj
 0001:0002b87c       ??0facet@locale@std@@IAE@I@Z 1002c87c f i libcpmt:locale0.obj
 0001:0002b89b       ??0id@locale@std@@QAE@I@Z  1002c89b f i libcpmt:locale0.obj
 0001:0002b8ac       ??0locale@std@@AAE@PAV_Locimp@01@@Z 1002c8ac f i libcpmt:locale0.obj
 0001:0002b8be       ??0locale@std@@QAE@W4_Uninitialized@1@@Z 1002c8be f i libcpmt:locale0.obj
 0001:0002b8c3       ??1_Fac_node@std@@QAE@XZ   1002c8c3 f i libcpmt:locale0.obj
 0001:0002b939       ??1_Fac_tidy_reg_t@std@@QAE@XZ 1002c939 f i libcpmt:locale0.obj
 0001:0002b969       ??1_Locimp@locale@std@@MAE@XZ 1002c969 f i libcpmt:locale0.obj
 0001:0002b9d8       ??2@YAPAXIPAX@Z            1002c9d8 f i libcpmt:locale0.obj
 0001:0002b9e2       ??4?$_Yarn@D@std@@QAEAAV01@PBD@Z 1002c9e2 f i libcpmt:locale0.obj
 0001:0002ba4b       ??_G_Fac_node@std@@QAEPAXI@Z 1002ca4b f i libcpmt:locale0.obj
 0001:0002ba75       ??_E_Locimp@locale@std@@MAEPAXI@Z 1002ca75 f i libcpmt:locale0.obj
 0001:0002ba75       ??_G_Locimp@locale@std@@MAEPAXI@Z 1002ca75 f i libcpmt:locale0.obj
 0001:0002ba9f       ?_C_str@?$_Yarn@D@std@@QBEPBDXZ 1002ca9f f i libcpmt:locale0.obj
 0001:0002baab       ?_Empty@?$_Yarn@D@std@@QBE_NXZ 1002caab f i libcpmt:locale0.obj
 0001:0002bab2       ?_Facet_Register@std@@YAXPAV_Facet_base@1@@Z 1002cab2 f   libcpmt:locale0.obj
 0001:0002bae9       ?_Getgloballocale@locale@std@@CAPAV_Locimp@12@XZ 1002cae9 f   libcpmt:locale0.obj
 0001:0002baef       ?_Init@locale@std@@CAPAV_Locimp@12@_N@Z 1002caef f   libcpmt:locale0.obj
 0001:0002bba3       ?_Locimp_dtor@_Locimp@locale@std@@CAXPAV123@@Z 1002cba3 f   libcpmt:locale0.obj
 0001:0002bc37       ?_Locinfo_ctor@_Locinfo@std@@SAXPAV12@PBD@Z 1002cc37 f   libcpmt:locale0.obj
 0001:0002bc94       ?_Locinfo_dtor@_Locinfo@std@@SAXPAV12@@Z 1002cc94 f   libcpmt:locale0.obj
 0001:0002bcb4       ?_New_Locimp@_Locimp@locale@std@@CAPAV123@ABV123@@Z 1002ccb4 f   libcpmt:locale0.obj
 0001:0002bcf0       ?_New_Locimp@_Locimp@locale@std@@CAPAV123@_N@Z 1002ccf0 f   libcpmt:locale0.obj
 0001:0002bd1b       ?_Setgloballocale@locale@std@@CAXPAX@Z 1002cd1b f   libcpmt:locale0.obj
 0001:0002bd4d       ?_Tidy@?$_Yarn@D@std@@AAEXXZ 1002cd4d f i libcpmt:locale0.obj
 0001:0002bd67       ?c_str@?$_Yarn@D@std@@QBEPBDXZ 1002cd67 f i libcpmt:locale0.obj
 0001:0002bd73       ?classic@locale@std@@SAABV12@XZ 1002cd73 f   libcpmt:locale0.obj
 0001:0002bd84       ?empty@locale@std@@SA?AV12@XZ 1002cd84 f   libcpmt:locale0.obj
 0001:0002bda8       __Deletegloballocale       1002cda8 f   libcpmt:locale0.obj
 0001:0002be25       ??$?0$$V@?$_Compressed_pair@V?$allocator@D@std@@V?$_String_val@U?$_Simple_types@D@std@@@2@$00@std@@QAE@U_Zero_then_variadic_args_t@1@@Z 1002ce25 f i libcpmt:xonce.obj
 0001:0002be35       ??$?0V?$allocator@D@std@@$$V@?$_Compressed_pair@V?$allocator@D@std@@V?$_String_val@U?$_Simple_types@D@std@@@2@$00@std@@QAE@U_One_then_variadic_args_t@1@$$QAV?$allocator@D@1@@Z 1002ce35 f i libcpmt:xonce.obj
 0001:0002be45       ??$?0V?$allocator@D@std@@X@?$_String_alloc@U?$_String_base_types@DV?$allocator@D@std@@@std@@@std@@QAE@$$QAV?$allocator@D@1@@Z 1002ce45 f i libcpmt:xonce.obj
 0001:0002be55       ??$_Allocate@$07U_Default_allocate_traits@std@@$0A@@std@@YAPAXI@Z 1002ce55 f i libcpmt:xonce.obj
 0001:0002be84       ??$_Allocate_manually_vector_aligned@U_Default_allocate_traits@std@@@std@@YAPAXI@Z 1002ce84 f i libcpmt:xonce.obj
 0001:0002bebc       ??$_Convert_size@I@std@@YAII@Z 1002cebc f i libcpmt:xonce.obj
 0001:0002bec6       ??$_Deallocate@$07$0A@@std@@YAXPAXI@Z 1002cec6 f i libcpmt:xonce.obj
 0001:0002befd       ??$_Get_size_of_n@$00@std@@YAII@Z 1002cefd f i libcpmt:xonce.obj
 0001:0002bf07       ??$_Immortalize@V_Generic_error_category@std@@@std@@YAAAV_Generic_error_category@0@XZ 1002cf07 f i libcpmt:xonce.obj
 0001:0002bf3a       ??$_Immortalize@V_System_error_category@std@@@std@@YAAAV_System_error_category@0@XZ 1002cf3a f i libcpmt:xonce.obj
 0001:0002bf6d       ??$_Immortalize_impl@V_Generic_error_category@std@@@std@@YGHPAX0PAPAX@Z 1002cf6d f i libcpmt:xonce.obj
 0001:0002bf8d       ??$_Immortalize_impl@V_System_error_category@std@@@std@@YGHPAX0PAPAX@Z 1002cf8d f i libcpmt:xonce.obj
 0001:0002bfad       ??$_Max_value@I@std@@YAABIABI0@Z 1002cfad f i libcpmt:xonce.obj
 0001:0002bfc7       ??$_Min_value@I@std@@YAABIABI0@Z 1002cfc7 f i libcpmt:xonce.obj
 0001:0002c2b4       ??$_Unfancy@D@std@@YAPADPAD@Z 1002d2b4 f i libcpmt:xonce.obj
 0001:0002c2be       ??$addressof@PAD@std@@YAPAPADAAPAD@Z 1002d2be f i libcpmt:xonce.obj
 0001:0002c2c8       ??$addressof@V?$_String_val@U?$_Simple_types@D@std@@@std@@@std@@YAPAV?$_String_val@U?$_Simple_types@D@std@@@0@AAV10@@Z 1002d2c8 f i libcpmt:xonce.obj
 0001:0002c2d2       ??$construct@PADABQAD@?$_Default_allocator_traits@V?$allocator@D@std@@@std@@SAXAAV?$allocator@D@1@QAPADABQAD@Z 1002d2d2 f i libcpmt:xonce.obj
 0001:0002c2e4       ??$destroy@PAD@?$_Default_allocator_traits@V?$allocator@D@std@@@std@@SAXAAV?$allocator@D@1@QAPAD@Z 1002d2e4 f i libcpmt:xonce.obj
 0001:0002c2e5       ??$forward@ABQAD@std@@YAABQADABQAD@Z 1002d2e5 f i libcpmt:xonce.obj
 0001:0002c2ef       ??$forward@V?$allocator@D@std@@@std@@YA$$QAV?$allocator@D@0@AAV10@@Z 1002d2ef f i libcpmt:xonce.obj
 0001:0002c2f9       ??$move@AAV?$allocator@D@std@@@std@@YA$$QAV?$allocator@D@0@AAV10@@Z 1002d2f9 f i libcpmt:xonce.obj
 0001:0002c303       ??$move@AAV?$basic_string@DU?$char_traits@D@std@@V?$allocator@D@2@@std@@@std@@YA$$QAV?$basic_string@DU?$char_traits@D@std@@V?$allocator@D@2@@0@AAV10@@Z 1002d303 f i libcpmt:xonce.obj
 0001:0002c30d       ??0?$_String_alloc@U?$_String_base_types@DV?$allocator@D@std@@@std@@@std@@QAE@XZ 1002d30d f i libcpmt:xonce.obj
 0001:0002c31a       ??0?$_String_val@U?$_Simple_types@D@std@@@std@@QAE@XZ 1002d31a f i libcpmt:xonce.obj
 0001:0002c327       ??0?$allocator@D@std@@QAE@XZ 1002d327 f i libcpmt:xonce.obj
 0001:0002c32a       ??0?$basic_string@DU?$char_traits@D@std@@V?$allocator@D@2@@std@@QAE@$$QAV01@@Z 1002d32a f i libcpmt:xonce.obj
 0001:0002c367       ??0?$basic_string@DU?$char_traits@D@std@@V?$allocator@D@2@@std@@QAE@ABV01@@Z 1002d367 f i libcpmt:xonce.obj
 0001:0002c38b       ??0?$basic_string@DU?$char_traits@D@std@@V?$allocator@D@2@@std@@QAE@QBD@Z 1002d38b f i libcpmt:xonce.obj
 0001:0002c3b6       ??0_Bxty@?$_String_val@U?$_Simple_types@D@std@@@std@@QAE@XZ 1002d3b6 f i libcpmt:xonce.obj
 0001:0002c3b9       ??0_Generic_error_category@std@@QAE@XZ 1002d3b9 f i libcpmt:xonce.obj
 0001:0002c3cd       ??0_System_error_category@std@@QAE@XZ 1002d3cd f i libcpmt:xonce.obj
 0001:0002c3e1       ??0error_category@std@@QAE@XZ 1002d3e1 f i libcpmt:xonce.obj
 0001:0002c3e7       ??0error_code@std@@QAE@HABVerror_category@1@@Z 1002d3e7 f i libcpmt:xonce.obj
 0001:0002c400       ??0error_condition@std@@QAE@HABVerror_category@1@@Z 1002d400 f i libcpmt:xonce.obj
 0001:0002c419       ??0runtime_error@std@@QAE@ABV?$basic_string@DU?$char_traits@D@std@@V?$allocator@D@2@@1@@Z 1002d419 f i libcpmt:xonce.obj
 0001:0002c44b       ??0system_error@std@@QAE@Verror_code@1@@Z 1002d44b f i libcpmt:xonce.obj
 0001:0002c4bb       ??1?$_Compressed_pair@V?$allocator@D@std@@V?$_String_val@U?$_Simple_types@D@std@@@2@$00@std@@QAE@XZ 1002d4bb f i libcpmt:xonce.obj
 0001:0002c4bc       ??1?$_String_alloc@U?$_String_base_types@DV?$allocator@D@std@@@std@@@std@@QAE@XZ 1002d4bc f i libcpmt:xonce.obj
 0001:0002c4bd       ??1?$_String_val@U?$_Simple_types@D@std@@@std@@QAE@XZ 1002d4bd f i libcpmt:xonce.obj
 0001:0002c4be       ??1_Bxty@?$_String_val@U?$_Simple_types@D@std@@@std@@QAE@XZ 1002d4be f i libcpmt:xonce.obj
 0001:0002c4bf       ??1_Generic_error_category@std@@UAE@XZ 1002d4bf f i libcpmt:xonce.obj
 0001:0002c4c0       ??1_System_error@std@@UAE@XZ 1002d4c0 f i libcpmt:xonce.obj
 0001:0002c4d5       ??1_System_error_category@std@@UAE@XZ 1002d4d5 f i libcpmt:xonce.obj
 0001:0002c4d6       ??1system_error@std@@UAE@XZ 1002d4d6 f i libcpmt:xonce.obj
 0001:0002c4eb       ??4?$basic_string@DU?$char_traits@D@std@@V?$allocator@D@2@@std@@QAEAAV01@QBD@Z 1002d4eb f i libcpmt:xonce.obj
 0001:0002c4f6       ??8error_category@std@@QBE_NABV01@@Z 1002d4f6 f i libcpmt:xonce.obj
 0001:0002c50d       ??8std@@YA_NABVerror_condition@0@0@Z 1002d50d f i libcpmt:xonce.obj
 0001:0002c53d       ??A?$basic_string@DU?$char_traits@D@std@@V?$allocator@D@2@@std@@QAEAADI@Z 1002d53d f i libcpmt:xonce.obj
 0001:0002c629       ??_E_System_error_category@std@@UAEPAXI@Z 1002d629 f i libcpmt:xonce.obj
 0001:0002c629       ??_G_System_error_category@std@@UAEPAXI@Z 1002d629 f i libcpmt:xonce.obj
 0001:0002c64d       ?_Adjust_manually_vector_aligned@std@@YAXAAPAXAAI@Z 1002d64d f i libcpmt:xonce.obj
 0001:0002c67a       ?_Allocate@_Default_allocate_traits@std@@SAPAXI@Z 1002d67a f i libcpmt:xonce.obj
 0001:0002c685       ?_Assign_rv_contents_with_alloc_always_equal@?$basic_string@DU?$char_traits@D@std@@V?$allocator@D@2@@std@@QAEX$$QAV12@U?$integral_constant@_N$00@2@@Z 1002d685 f i libcpmt:xonce.obj
 0001:0002c6b3       ?_Become_small@?$basic_string@DU?$char_traits@D@std@@V?$allocator@D@2@@std@@QAEXXZ 1002d6b3 f i libcpmt:xonce.obj
 0001:0002c6e7       ?_Calculate_growth@?$basic_string@DU?$char_traits@D@std@@V?$allocator@D@2@@std@@QBEII@Z 1002d6e7 f i libcpmt:xonce.obj
 0001:0002c72a       ?_Construct_lv_contents@?$basic_string@DU?$char_traits@D@std@@V?$allocator@D@2@@std@@QAEXABV12@@Z 1002d72a f i libcpmt:xonce.obj
 0001:0002c7ac       ?_Eos@?$basic_string@DU?$char_traits@D@std@@V?$allocator@D@2@@std@@QAEXI@Z 1002d7ac f i libcpmt:xonce.obj
 0001:0002c7cd       ?_Execute_once@std@@YAHAAUonce_flag@1@P6GHPAX1PAPAX@Z1@Z 1002d7cd f   libcpmt:xonce.obj
 0001:0002c7eb       ?_Get_data@?$_String_alloc@U?$_String_base_types@DV?$allocator@D@std@@@std@@@std@@QAEAAV?$_String_val@U?$_Simple_types@D@std@@@2@XZ 1002d7eb f i libcpmt:xonce.obj
 0001:0002c7ee       ?_Get_data@?$_String_alloc@U?$_String_base_types@DV?$allocator@D@std@@@std@@@std@@QBEABV?$_String_val@U?$_Simple_types@D@std@@@2@XZ 1002d7ee f i libcpmt:xonce.obj
 0001:0002c7f1       ?_Get_first@?$_Compressed_pair@V?$allocator@D@std@@V?$_String_val@U?$_Simple_types@D@std@@@2@$00@std@@QAEAAV?$allocator@D@2@XZ 1002d7f1 f i libcpmt:xonce.obj
 0001:0002c7f4       ?_Get_first@?$_Compressed_pair@V?$allocator@D@std@@V?$_String_val@U?$_Simple_types@D@std@@@2@$00@std@@QBEABV?$allocator@D@2@XZ 1002d7f4 f i libcpmt:xonce.obj
 0001:0002c7f7       ?_Get_second@?$_Compressed_pair@V?$allocator@D@std@@V?$_String_val@U?$_Simple_types@D@std@@@2@$00@std@@QAEAAV?$_String_val@U?$_Simple_types@D@std@@@2@XZ 1002d7f7 f i libcpmt:xonce.obj
 0001:0002c7fa       ?_Get_second@?$_Compressed_pair@V?$allocator@D@std@@V?$_String_val@U?$_Simple_types@D@std@@@2@$00@std@@QBEABV?$_String_val@U?$_Simple_types@D@std@@@2@XZ 1002d7fa f i libcpmt:xonce.obj
 0001:0002c7fd       ?_Getal@?$_String_alloc@U?$_String_base_types@DV?$allocator@D@std@@@std@@@std@@QAEAAV?$allocator@D@2@XZ 1002d7fd f i libcpmt:xonce.obj
 0001:0002c800       ?_Getal@?$_String_alloc@U?$_String_base_types@DV?$allocator@D@std@@@std@@@std@@QBEABV?$allocator@D@2@XZ 1002d800 f i libcpmt:xonce.obj
 0001:0002c803       ?_Large_string_engaged@?$_String_val@U?$_Simple_types@D@std@@@std@@QBE_NXZ 1002d803 f i libcpmt:xonce.obj
 0001:0002c80e       ?_Makestr@_System_error@std@@CA?AV?$basic_string@DU?$char_traits@D@std@@V?$allocator@D@2@@2@Verror_code@2@V32@@Z 1002d80e f i libcpmt:xonce.obj
 0001:0002c89b       ?_Myptr@?$_String_val@U?$_Simple_types@D@std@@@std@@QAEPADXZ 1002d89b f i libcpmt:xonce.obj
 0001:0002c8a8       ?_Myptr@?$_String_val@U?$_Simple_types@D@std@@@std@@QBEPBDXZ 1002d8a8 f i libcpmt:xonce.obj
 0001:0002c8b5       ?_Orphan_all@?$_String_alloc@U?$_String_base_types@DV?$allocator@D@std@@@std@@@std@@QAEXXZ 1002d8b5 f i libcpmt:xonce.obj
 0001:0002c8b6       ?_Orphan_all@_Container_base0@std@@QAEXXZ 1002d8b6 f i libcpmt:xonce.obj
 0001:0002c8b7       ?_Tidy_init@?$basic_string@DU?$char_traits@D@std@@V?$allocator@D@2@@std@@QAEXXZ 1002d8b7 f i libcpmt:xonce.obj
 0001:0002c8c9       ?_XGetLastError@std@@YAXXZ 1002d8c9 f   libcpmt:xonce.obj
 0001:0002c90f       ?append@?$basic_string@DU?$char_traits@D@std@@V?$allocator@D@2@@std@@QAEAAV12@ABV12@@Z 1002d90f f i libcpmt:xonce.obj
 0001:0002c933       ?append@?$basic_string@DU?$char_traits@D@std@@V?$allocator@D@2@@std@@QAEAAV12@QBD@Z 1002d933 f i libcpmt:xonce.obj
 0001:0002c95c       ?assign@?$basic_string@DU?$char_traits@D@std@@V?$allocator@D@2@@std@@QAEAAV12@ID@Z 1002d95c f i libcpmt:xonce.obj
 0001:0002c9bb       ?assign@?$basic_string@DU?$char_traits@D@std@@V?$allocator@D@2@@std@@QAEAAV12@QBD@Z 1002d9bb f i libcpmt:xonce.obj
 0001:0002c9e4       ?assign@?$char_traits@D@std@@SAPADQADID@Z 1002d9e4 f i libcpmt:xonce.obj
 0001:0002ca02       ?assign@?$char_traits@D@std@@SAXAADABD@Z 1002da02 f i libcpmt:xonce.obj
 0001:0002ca14       ?c_str@?$basic_string@DU?$char_traits@D@std@@V?$allocator@D@2@@std@@QBEPBDXZ 1002da14 f i libcpmt:xonce.obj
 0001:0002ca21       ?category@error_code@std@@QBEABVerror_category@2@XZ 1002da21 f i libcpmt:xonce.obj
 0001:0002ca25       ?category@error_condition@std@@QBEABVerror_category@2@XZ 1002da25 f i libcpmt:xonce.obj
 0001:0002ca29       ?copy@?$char_traits@D@std@@SAPADQADQBDI@Z 1002da29 f i libcpmt:xonce.obj
 0001:0002ca34       ?deallocate@?$allocator@D@std@@QAEXQADI@Z 1002da34 f i libcpmt:xonce.obj
 0001:0002ca4d       ?default_error_condition@_System_error_category@std@@UBE?AVerror_condition@2@H@Z 1002da4d f i libcpmt:xonce.obj
 0001:0002cac5       ?empty@?$basic_string@DU?$char_traits@D@std@@V?$allocator@D@2@@std@@QBE_NXZ 1002dac5 f i libcpmt:xonce.obj
 0001:0002cacf       ?generic_category@std@@YAABVerror_category@1@XZ 1002dacf f i libcpmt:xonce.obj
 0001:0002cad4       ?length@?$char_traits@D@std@@SAIQBD@Z 1002dad4 f i libcpmt:xonce.obj
 0001:0002caed       ?max@?$numeric_limits@H@std@@SAHXZ 1002daed f i libcpmt:xonce.obj
 0001:0002caf3       ?max_size@?$_Default_allocator_traits@V?$allocator@D@std@@@std@@SAIABV?$allocator@D@2@@Z 1002daf3 f i libcpmt:xonce.obj
 0001:0002caf7       ?max_size@?$basic_string@DU?$char_traits@D@std@@V?$allocator@D@2@@std@@QBEIXZ 1002daf7 f i libcpmt:xonce.obj
 0001:0002cafd       ?message@_System_error_category@std@@UBE?AV?$basic_string@DU?$char_traits@D@std@@V?$allocator@D@2@@2@H@Z 1002dafd f i libcpmt:xonce.obj
 0001:0002cb9a       ?message@error_code@std@@QBE?AV?$basic_string@DU?$char_traits@D@std@@V?$allocator@D@2@@2@XZ 1002db9a f i libcpmt:xonce.obj
 0001:0002cbca       ?move@?$char_traits@D@std@@SAPADQADQBDI@Z 1002dbca f i libcpmt:xonce.obj
 0001:0002cbd5       ?name@_System_error_category@std@@UBEPBDXZ 1002dbd5 f i libcpmt:xonce.obj
 0001:0002cbdb       ?resize@?$basic_string@DU?$char_traits@D@std@@V?$allocator@D@2@@std@@QAEXID@Z 1002dbdb f i libcpmt:xonce.obj
 0001:0002cc12       ?select_on_container_copy_construction@?$_Default_allocator_traits@V?$allocator@D@std@@@std@@SA?AV?$allocator@D@2@ABV32@@Z 1002dc12 f i libcpmt:xonce.obj
 0001:0002cc1c       ?shrink_to_fit@?$basic_string@DU?$char_traits@D@std@@V?$allocator@D@2@@std@@QAEXXZ 1002dc1c f i libcpmt:xonce.obj
 0001:0002cc8f       ?size@?$basic_string@DU?$char_traits@D@std@@V?$allocator@D@2@@std@@QBEIXZ 1002dc8f f i libcpmt:xonce.obj
 0001:0002cc93       ?system_category@std@@YAABVerror_category@1@XZ 1002dc93 f i libcpmt:xonce.obj
 0001:0002cc98       ?value@error_code@std@@QBEHXZ 1002dc98 f i libcpmt:xonce.obj
 0001:0002cc9b       ?value@error_condition@std@@QBEHXZ 1002dc9b f i libcpmt:xonce.obj
 0001:0002cc9e       ??$?0$$V@?$_Compressed_pair@V?$allocator@_W@std@@V?$_String_val@U?$_Simple_types@_W@std@@@2@$00@std@@QAE@U_Zero_then_variadic_args_t@1@@Z 1002dc9e f i libcpmt:syserror.obj
 0001:0002ccae       ??$_Get_size_of_n@$01@std@@YAII@Z 1002dcae f i libcpmt:syserror.obj
 0001:0002cd5d       ??$_Unfancy@_W@std@@YAPA_WPA_W@Z 1002dd5d f i libcpmt:syserror.obj
 0001:0002cd67       ??$addressof@PA_W@std@@YAPAPA_WAAPA_W@Z 1002dd67 f i libcpmt:syserror.obj
 0001:0002cd71       ??$construct@PA_WABQA_W@?$_Default_allocator_traits@V?$allocator@_W@std@@@std@@SAXAAV?$allocator@_W@1@QAPA_WABQA_W@Z 1002dd71 f i libcpmt:syserror.obj
 0001:0002cd83       ??$destroy@PA_W@?$_Default_allocator_traits@V?$allocator@_W@std@@@std@@SAXAAV?$allocator@_W@1@QAPA_W@Z 1002dd83 f i libcpmt:syserror.obj
 0001:0002cd84       ??$end@$$CBU_Sys_errtab_t@std@@$0EO@@std@@YAPBU_Sys_errtab_t@0@AAY0EO@$$CBU10@@Z 1002dd84 f i libcpmt:syserror.obj
 0001:0002cd94       ??$end@$$CBU_Win_errtab_t@std@@$0EN@@std@@YAPBU_Win_errtab_t@0@AAY0EN@$$CBU10@@Z 1002dd94 f i libcpmt:syserror.obj
 0001:0002cda4       ??$forward@ABQA_W@std@@YAABQA_WABQA_W@Z 1002dda4 f i libcpmt:syserror.obj
 0001:0002cdae       ??0?$_String_alloc@U?$_String_base_types@_WV?$allocator@_W@std@@@std@@@std@@QAE@XZ 1002ddae f i libcpmt:syserror.obj
 0001:0002cdbb       ??0?$_String_val@U?$_Simple_types@_W@std@@@std@@QAE@XZ 1002ddbb f i libcpmt:syserror.obj
 0001:0002cdc8       ??0?$allocator@_W@std@@QAE@XZ 1002ddc8 f i libcpmt:syserror.obj
 0001:0002cdcb       ??0?$basic_string@_WU?$char_traits@_W@std@@V?$allocator@_W@2@@std@@QAE@I_W@Z 1002ddcb f i libcpmt:syserror.obj
 0001:0002cdfd       ??0_Bxty@?$_String_val@U?$_Simple_types@_W@std@@@std@@QAE@XZ 1002ddfd f i libcpmt:syserror.obj
 0001:0002ce00       ??1?$_Compressed_pair@V?$allocator@_W@std@@V?$_String_val@U?$_Simple_types@_W@std@@@2@$00@std@@QAE@XZ 1002de00 f i libcpmt:syserror.obj
 0001:0002ce01       ??1?$_String_alloc@U?$_String_base_types@_WV?$allocator@_W@std@@@std@@@std@@QAE@XZ 1002de01 f i libcpmt:syserror.obj
 0001:0002ce02       ??1?$_String_val@U?$_Simple_types@_W@std@@@std@@QAE@XZ 1002de02 f i libcpmt:syserror.obj
 0001:0002ce03       ??1?$basic_string@_WU?$char_traits@_W@std@@V?$allocator@_W@2@@std@@QAE@XZ 1002de03 f i libcpmt:syserror.obj
 0001:0002ce08       ??1_Bxty@?$_String_val@U?$_Simple_types@_W@std@@@std@@QAE@XZ 1002de08 f i libcpmt:syserror.obj
 0001:0002ce09       ??A?$basic_string@_WU?$char_traits@_W@std@@V?$allocator@_W@2@@std@@QAEAA_WI@Z 1002de09 f i libcpmt:syserror.obj
 0001:0002ce50       ?_Calculate_growth@?$basic_string@_WU?$char_traits@_W@std@@V?$allocator@_W@2@@std@@QBEII@Z 1002de50 f i libcpmt:syserror.obj
 0001:0002ce93       ?_Get_data@?$_String_alloc@U?$_String_base_types@_WV?$allocator@_W@std@@@std@@@std@@QAEAAV?$_String_val@U?$_Simple_types@_W@std@@@2@XZ 1002de93 f i libcpmt:syserror.obj
 0001:0002ce96       ?_Get_data@?$_String_alloc@U?$_String_base_types@_WV?$allocator@_W@std@@@std@@@std@@QBEABV?$_String_val@U?$_Simple_types@_W@std@@@2@XZ 1002de96 f i libcpmt:syserror.obj
 0001:0002ce99       ?_Get_first@?$_Compressed_pair@V?$allocator@_W@std@@V?$_String_val@U?$_Simple_types@_W@std@@@2@$00@std@@QAEAAV?$allocator@_W@2@XZ 1002de99 f i libcpmt:syserror.obj
 0001:0002ce9c       ?_Get_first@?$_Compressed_pair@V?$allocator@_W@std@@V?$_String_val@U?$_Simple_types@_W@std@@@2@$00@std@@QBEABV?$allocator@_W@2@XZ 1002de9c f i libcpmt:syserror.obj
 0001:0002ce9f       ?_Get_second@?$_Compressed_pair@V?$allocator@_W@std@@V?$_String_val@U?$_Simple_types@_W@std@@@2@$00@std@@QAEAAV?$_String_val@U?$_Simple_types@_W@std@@@2@XZ 1002de9f f i libcpmt:syserror.obj
 0001:0002cea2       ?_Get_second@?$_Compressed_pair@V?$allocator@_W@std@@V?$_String_val@U?$_Simple_types@_W@std@@@2@$00@std@@QBEABV?$_String_val@U?$_Simple_types@_W@std@@@2@XZ 1002dea2 f i libcpmt:syserror.obj
 0001:0002cea5       ?_Getal@?$_String_alloc@U?$_String_base_types@_WV?$allocator@_W@std@@@std@@@std@@QAEAAV?$allocator@_W@2@XZ 1002dea5 f i libcpmt:syserror.obj
 0001:0002cea8       ?_Getal@?$_String_alloc@U?$_String_base_types@_WV?$allocator@_W@std@@@std@@@std@@QBEABV?$allocator@_W@2@XZ 1002dea8 f i libcpmt:syserror.obj
 0001:0002ceab       ?_Large_string_engaged@?$_String_val@U?$_Simple_types@_W@std@@@std@@QBE_NXZ 1002deab f i libcpmt:syserror.obj
 0001:0002ceb6       ?_Myptr@?$_String_val@U?$_Simple_types@_W@std@@@std@@QAEPA_WXZ 1002deb6 f i libcpmt:syserror.obj
 0001:0002cec3       ?_Orphan_all@?$_String_alloc@U?$_String_base_types@_WV?$allocator@_W@std@@@std@@@std@@QAEXXZ 1002dec3 f i libcpmt:syserror.obj
 0001:0002cec4       ?_Syserror_map@std@@YAPBDH@Z 1002dec4 f   libcpmt:syserror.obj
 0001:0002cef2       ?_Tidy_deallocate@?$basic_string@_WU?$char_traits@_W@std@@V?$allocator@_W@2@@std@@QAEXXZ 1002def2 f i libcpmt:syserror.obj
 0001:0002cf2b       ?_Tidy_init@?$basic_string@_WU?$char_traits@_W@std@@V?$allocator@_W@2@@std@@QAEXXZ 1002df2b f i libcpmt:syserror.obj
 0001:0002cf40       ?_Winerror_map@std@@YAHH@Z 1002df40 f   libcpmt:syserror.obj
 0001:0002cf6a       ?_Winerror_message@std@@YAKKPADK@Z 1002df6a f   libcpmt:syserror.obj
 0001:0002d021       ?_Xlen@?$basic_string@_WU?$char_traits@_W@std@@V?$allocator@_W@2@@std@@SAXXZ 1002e021 f i libcpmt:syserror.obj
 0001:0002d02e       ?allocate@?$allocator@_W@std@@QAEPA_WI@Z 1002e02e f i libcpmt:syserror.obj
 0001:0002d053       ?assign@?$_WChar_traits@_W@std@@SAPA_WQA_WI_W@Z 1002e053 f i libcpmt:syserror.obj
 0001:0002d06e       ?assign@?$_WChar_traits@_W@std@@SAXAA_WAB_W@Z 1002e06e f i libcpmt:syserror.obj
 0001:0002d083       ?assign@?$basic_string@_WU?$char_traits@_W@std@@V?$allocator@_W@2@@std@@QAEAAV12@I_W@Z 1002e083 f i libcpmt:syserror.obj
 0001:0002d0e2       ?deallocate@?$allocator@_W@std@@QAEXQA_WI@Z 1002e0e2 f i libcpmt:syserror.obj
 0001:0002d0fe       ?max_size@?$_Default_allocator_traits@V?$allocator@_W@std@@@std@@SAIABV?$allocator@_W@2@@Z 1002e0fe f i libcpmt:syserror.obj
 0001:0002d104       ?max_size@?$basic_string@_WU?$char_traits@_W@std@@V?$allocator@_W@2@@std@@QBEIXZ 1002e104 f i libcpmt:syserror.obj
 0001:0002d10a       _wmemset                   1002e10a f i libcpmt:syserror.obj
 0001:0002d13e       __Mtxdst                   1002e13e f   libcpmt:xmtx.obj
 0001:0002d14f       __Mtxinit                  1002e14f f   libcpmt:xmtx.obj
 0001:0002d16b       __Mtxlock                  1002e16b f   libcpmt:xmtx.obj
 0001:0002d17c       __Mtxunlock                1002e17c f   libcpmt:xmtx.obj
 0001:0002d18d       ??0?$__crt_scoped_stack_ptr@_W@@QAE@U?$__crt_scoped_stack_ptr_tag@_W@@@Z 1002e18d f i libcpmt:StlLCMapStringA.obj
 0001:0002d19e       ??0?$__crt_scoped_stack_ptr_tag@_W@@QAE@QA_W@Z 1002e19e f i libcpmt:StlLCMapStringA.obj
 0001:0002d1af       ??1?$__crt_scoped_stack_ptr@_W@@QAE@XZ 1002e1af f i libcpmt:StlLCMapStringA.obj
 0001:0002d1ba       ??B?$__crt_scoped_stack_ptr@_W@@QBE_NXZ 1002e1ba f i libcpmt:StlLCMapStringA.obj
 0001:0002d1c1       ?get@?$__crt_scoped_stack_ptr@_W@@QBEPA_WXZ 1002e1c1 f i libcpmt:StlLCMapStringA.obj
 0001:0002d1c4       __MallocaComputeSize       1002e1c4 f i libcpmt:StlLCMapStringA.obj
 0001:0002d1d9       __MarkAllocaS              1002e1d9 f i libcpmt:StlLCMapStringA.obj
 0001:0002d1f2       ___crtLCMapStringA         1002e1f2 f   libcpmt:StlLCMapStringA.obj
 0001:0002d43c       __freea_crt                1002e43c f i libcpmt:StlLCMapStringA.obj
 0001:0002d461       ??$?0AAPAV_Facet_base@std@@@?$_Compressed_pair@U?$default_delete@V_Facet_base@std@@@std@@PAV_Facet_base@2@$00@std@@QAE@U_Zero_then_variadic_args_t@1@AAPAV_Facet_base@1@@Z 1002e461 f i libcpmt:locale.obj
 0001:0002d475       ??$?0PAV_Facet_base@std@@@?$_Unique_ptr_base@V_Facet_base@std@@U?$default_delete@V_Facet_base@std@@@2@@std@@QAE@PAV_Facet_base@1@@Z 1002e475 f i libcpmt:locale.obj
 0001:0002d486       ??$?0U?$default_delete@V_Facet_base@std@@@std@@$0A@@?$unique_ptr@V_Facet_base@std@@U?$default_delete@V_Facet_base@std@@@2@@std@@QAE@PAV_Facet_base@1@@Z 1002e486 f i libcpmt:locale.obj
 0001:0002d497       ??$?0U?$integral_constant@_N$00@std@@@_Unused_parameter@std@@QAE@$$QAU?$integral_constant@_N$00@1@@Z 1002e497 f i libcpmt:locale.obj
 0001:0002d49c       ??$?8DU?$char_traits@D@std@@@std@@YA_NABV?$istreambuf_iterator@DU?$char_traits@D@std@@@0@0@Z 1002e49c f i libcpmt:locale.obj
 0001:0002d4b0       ??$?9DU?$char_traits@D@std@@@std@@YA_NABV?$istreambuf_iterator@DU?$char_traits@D@std@@@0@0@Z 1002e4b0 f i libcpmt:locale.obj
 0001:0002d4cb       ??$_Adl_verify_range@PBDPBD@std@@YAXABQBD0@Z 1002e4cb f i libcpmt:locale.obj
 0001:0002d4cc       ??$_Adl_verify_range@V?$istreambuf_iterator@DU?$char_traits@D@std@@@std@@V12@@std@@YAXABV?$istreambuf_iterator@DU?$char_traits@D@std@@@0@0@Z 1002e4cc f i libcpmt:locale.obj
 0001:0002d4cd       ??$_Find_elem@D$0BL@@std@@YAIAAY0BL@$$CBDD@Z 1002e4cd f i libcpmt:locale.obj
 0001:0002d4fb       ??$_Find_elem@D$0BN@@std@@YAIAAY0BN@$$CBDD@Z 1002e4fb f i libcpmt:locale.obj
 0001:0002d529       ??$_Find_elem@D$0P@@std@@YAIAAY0P@$$CBDD@Z 1002e529 f i libcpmt:locale.obj
 0001:0002d557       ??$_Find_unchecked1@PBDD@std@@YAPBDPBDQBDABDU?$integral_constant@_N$00@0@@Z 1002e557 f i libcpmt:locale.obj
 0001:0002d585       ??$_Find_unchecked@PBDD@std@@YAPBDQBD0ABD@Z 1002e585 f i libcpmt:locale.obj
 0001:0002d5aa       ??$_Getloctxt@DV?$istreambuf_iterator@DU?$char_traits@D@std@@@std@@@std@@YAHAAV?$istreambuf_iterator@DU?$char_traits@D@std@@@0@0IPBD@Z 1002e5aa f i libcpmt:locale.obj
 0001:0002d778       ??$_Getvals@D@?$numpunct@D@std@@IAEXDPBUlconv@@U_Cvtvec@@@Z 1002e778 f i libcpmt:locale.obj
 0001:0002d797       ??$_Maklocchr@D@std@@YADDPADABU_Cvtvec@@@Z 1002e797 f i libcpmt:locale.obj
 0001:0002d7a1       ??$_Maklocstr@D@std@@YAPADPBDPADABU_Cvtvec@@@Z 1002e7a1 f i libcpmt:locale.obj
 0001:0002d7fb       ??$_Pocma@V?$allocator@D@std@@@std@@YAXAAV?$allocator@D@0@0@Z 1002e7fb f i libcpmt:locale.obj
 0001:0002d7fc       ??$_Pocma@V?$allocator@D@std@@@std@@YAXAAV?$allocator@D@0@0U?$integral_constant@_N$00@0@@Z 1002e7fc f i libcpmt:locale.obj
 0001:0002dc4e       ??$_Within_limits@D@std@@YA_NABDU?$integral_constant@_N$00@0@1U_Unused_parameter@0@@Z 1002ec4e f i libcpmt:locale.obj
 0001:0002dc51       ??$_Within_limits@PBDD@std@@YA_NPBDABD@Z 1002ec51 f i libcpmt:locale.obj
 0001:0002dc54       ??$addressof@V?$basic_string@DU?$char_traits@D@std@@V?$allocator@D@2@@std@@@std@@YAPAV?$basic_string@DU?$char_traits@D@std@@V?$allocator@D@2@@0@AAV10@@Z 1002ec54 f i libcpmt:locale.obj
 0001:0002dc5e       ??$forward@AAPAV_Facet_base@std@@@std@@YAAAPAV_Facet_base@0@AAPAV10@@Z 1002ec5e f i libcpmt:locale.obj
 0001:0002dc68       ??$use_facet@V?$codecvt@DDU_Mbstatet@@@std@@@std@@YAABV?$codecvt@DDU_Mbstatet@@@0@ABVlocale@0@@Z 1002ec68 f i libcpmt:locale.obj
 0001:0002dd37       ??$use_facet@V?$num_get@DV?$istreambuf_iterator@DU?$char_traits@D@std@@@std@@@std@@@std@@YAABV?$num_get@DV?$istreambuf_iterator@DU?$char_traits@D@std@@@std@@@0@ABVlocale@0@@Z 1002ed37 f i libcpmt:locale.obj
 0001:0002de06       ??$use_facet@V?$num_put@DV?$ostreambuf_iterator@DU?$char_traits@D@std@@@std@@@std@@@std@@YAABV?$num_put@DV?$ostreambuf_iterator@DU?$char_traits@D@std@@@std@@@0@ABVlocale@0@@Z 1002ee06 f i libcpmt:locale.obj
 0001:0002ded5       ??0?$_Yarn@D@std@@QAE@XZ   1002eed5 f i libcpmt:locale.obj
 0001:0002dee1       ??0?$_Yarn@_W@std@@QAE@XZ  1002eee1 f i libcpmt:locale.obj
 0001:0002def0       ??0?$basic_string@DU?$char_traits@D@std@@V?$allocator@D@2@@std@@QAE@XZ 1002eef0 f i libcpmt:locale.obj
 0001:0002df05       ??0?$codecvt@DDU_Mbstatet@@@std@@QAE@ABV_Locinfo@1@I@Z 1002ef05 f i libcpmt:locale.obj
 0001:0002df24       ??0?$ctype@D@std@@QAE@ABV_Locinfo@1@I@Z 1002ef24 f i libcpmt:locale.obj
 0001:0002df67       ??0?$num_get@DV?$istreambuf_iterator@DU?$char_traits@D@std@@@std@@@std@@QAE@ABV_Locinfo@1@I@Z 1002ef67 f i libcpmt:locale.obj
 0001:0002df86       ??0?$num_put@DV?$ostreambuf_iterator@DU?$char_traits@D@std@@@std@@@std@@QAE@ABV_Locinfo@1@I@Z 1002ef86 f i libcpmt:locale.obj
 0001:0002dfa5       ??0?$numpunct@D@std@@QAE@ABV_Locinfo@1@I_N@Z 1002efa5 f i libcpmt:locale.obj
 0001:0002dfe8       ??0bad_cast@std@@QAE@XZ    1002efe8 f i libcpmt:locale.obj
 0001:0002e006       ??0codecvt_base@std@@QAE@I@Z 1002f006 f i libcpmt:locale.obj
 0001:0002e025       ??0ctype_base@std@@QAE@I@Z 1002f025 f i libcpmt:locale.obj
 0001:0002e044       ??0locale@std@@QAE@ABV01@@Z 1002f044 f i libcpmt:locale.obj
 0001:0002e0ae       ??0locale@std@@QAE@XZ      1002f0ae f i libcpmt:locale.obj
 0001:0002e0fe       ??1?$codecvt@DDU_Mbstatet@@@std@@MAE@XZ 1002f0fe f i libcpmt:locale.obj
 0001:0002e105       ??1?$num_get@DV?$istreambuf_iterator@DU?$char_traits@D@std@@@std@@@std@@MAE@XZ 1002f105 f i libcpmt:locale.obj
 0001:0002e10c       ??1codecvt_base@std@@UAE@XZ 1002f10c f i libcpmt:locale.obj
 0001:0002e113       ??1ctype_base@std@@UAE@XZ  1002f113 f i libcpmt:locale.obj
 0001:0002e11a       ??4?$basic_string@DU?$char_traits@D@std@@V?$allocator@D@2@@std@@QAEAAV01@$$QAV01@@Z 1002f11a f i libcpmt:locale.obj
 0001:0002e15c       ??4?$ostreambuf_iterator@DU?$char_traits@D@std@@@std@@QAEAAV01@D@Z 1002f15c f i libcpmt:locale.obj
 0001:0002e189       ??A?$basic_string@DU?$char_traits@D@std@@V?$allocator@D@2@@std@@QBEABDI@Z 1002f189 f i libcpmt:locale.obj
 0001:0002e1a2       ??Bid@locale@std@@QAEIXZ   1002f1a2 f i libcpmt:locale.obj
 0001:0002e1e4       ??D?$istreambuf_iterator@DU?$char_traits@D@std@@@std@@QBEDXZ 1002f1e4 f i libcpmt:locale.obj
 0001:0002e1fb       ??D?$ostreambuf_iterator@DU?$char_traits@D@std@@@std@@QAEAAV01@XZ 1002f1fb f i libcpmt:locale.obj
 0001:0002e1fe       ??E?$istreambuf_iterator@DU?$char_traits@D@std@@@std@@QAEAAV01@XZ 1002f1fe f i libcpmt:locale.obj
 0001:0002e20d       ??E?$ostreambuf_iterator@DU?$char_traits@D@std@@@std@@QAEAAV01@XZ 1002f20d f i libcpmt:locale.obj
 0001:0002e371       ??R?$default_delete@V_Facet_base@std@@@std@@QBEXPAV_Facet_base@1@@Z 1002f371 f i libcpmt:locale.obj
 0001:0002e39e       ??Y?$basic_string@DU?$char_traits@D@std@@V?$allocator@D@2@@std@@QAEAAV01@ABV01@@Z 1002f39e f i libcpmt:locale.obj
 0001:0002e3a9       ??_G?$codecvt@DDU_Mbstatet@@@std@@MAEPAXI@Z 1002f3a9 f i libcpmt:locale.obj
 0001:0002e3a9       ??_E?$codecvt@DDU_Mbstatet@@@std@@MAEPAXI@Z 1002f3a9 f i libcpmt:locale.obj
 0001:0002e3d4       ??_E?$num_get@DV?$istreambuf_iterator@DU?$char_traits@D@std@@@std@@@std@@MAEPAXI@Z 1002f3d4 f i libcpmt:locale.obj
 0001:0002e3d4       ??_G?$num_get@DV?$istreambuf_iterator@DU?$char_traits@D@std@@@std@@@std@@MAEPAXI@Z 1002f3d4 f i libcpmt:locale.obj
 0001:0002e3ff       ??_Gcodecvt_base@std@@UAEPAXI@Z 1002f3ff f i libcpmt:locale.obj
 0001:0002e3ff       ??_Ecodecvt_base@std@@UAEPAXI@Z 1002f3ff f i libcpmt:locale.obj
 0001:0002e42a       ?_Addfac@_Locimp@locale@std@@AAEXPAVfacet@23@I@Z 1002f42a f i libcpmt:locale.obj
 0001:0002e445       ?_Assign_rv_contents@?$basic_string@DU?$char_traits@D@std@@V?$allocator@D@2@@std@@QAEX$$QAV12@U?$integral_constant@_N$00@2@@Z 1002f445 f i libcpmt:locale.obj
 0001:0002e473       ?_Check_offset@?$_String_val@U?$_Simple_types@D@std@@@std@@QBEXI@Z 1002f473 f i libcpmt:locale.obj
 0001:0002e48d       ?_Get_first@?$_Compressed_pair@U?$default_delete@V_Facet_base@std@@@std@@PAV_Facet_base@2@$00@std@@QAEAAU?$default_delete@V_Facet_base@std@@@2@XZ 1002f48d f i libcpmt:locale.obj
 0001:0002e490       ?_Get_second@?$_Compressed_pair@U?$default_delete@V_Facet_base@std@@@std@@PAV_Facet_base@2@$00@std@@QAEAAPAV_Facet_base@2@XZ 1002f490 f i libcpmt:locale.obj
 0001:0002e493       ?_Get_second@?$_Compressed_pair@U?$default_delete@V_Facet_base@std@@@std@@PAV_Facet_base@2@$00@std@@QBEABQAV_Facet_base@2@XZ 1002f493 f i libcpmt:locale.obj
 0001:0002e496       ?_Getcat@?$codecvt@DDU_Mbstatet@@@std@@SAIPAPBVfacet@locale@2@PBV42@@Z 1002f496 f i libcpmt:locale.obj
 0001:0002e518       ?_Getcat@?$ctype@D@std@@SAIPAPBVfacet@locale@2@PBV42@@Z 1002f518 f i libcpmt:locale.obj
 0001:0002e597       ?_Getcat@?$num_get@DV?$istreambuf_iterator@DU?$char_traits@D@std@@@std@@@std@@SAIPAPBVfacet@locale@2@PBV42@@Z 1002f597 f i libcpmt:locale.obj
 0001:0002e619       ?_Getcat@?$num_put@DV?$ostreambuf_iterator@DU?$char_traits@D@std@@@std@@@std@@SAIPAPBVfacet@locale@2@PBV42@@Z 1002f619 f i libcpmt:locale.obj
 0001:0002e69b       ?_Getcat@?$numpunct@D@std@@SAIPAPBVfacet@locale@2@PBV42@@Z 1002f69b f i libcpmt:locale.obj
 0001:0002e734       ?_Getctype@_Locinfo@std@@QBE?AU_Ctypevec@@XZ 1002f734 f i libcpmt:locale.obj
 0001:0002e75f       ?_Getcvt@_Locinfo@std@@QBE?AU_Cvtvec@@XZ 1002f75f f i libcpmt:locale.obj
 0001:0002e78c       ?_Getfacet@locale@std@@QBEPBVfacet@12@I@Z 1002f78c f i libcpmt:locale.obj
 0001:0002e7d8       ?_Getfalse@_Locinfo@std@@QBEPBDXZ 1002f7d8 f i libcpmt:locale.obj
 0001:0002e7de       ?_Getffld@?$num_get@DV?$istreambuf_iterator@DU?$char_traits@D@std@@@std@@@std@@ABAHPADAAV?$istreambuf_iterator@DU?$char_traits@D@std@@@2@1AAVios_base@2@PAH@Z 1002f7de f i libcpmt:locale.obj
 0001:0002f078       ?_Getffldx@?$num_get@DV?$istreambuf_iterator@DU?$char_traits@D@std@@@std@@@std@@ABAHPADAAV?$istreambuf_iterator@DU?$char_traits@D@std@@@2@1AAVios_base@2@PAH@Z 10030078 f i libcpmt:locale.obj
 0001:0002f93b       ?_Getifld@?$num_get@DV?$istreambuf_iterator@DU?$char_traits@D@std@@@std@@@std@@ABAHPADAAV?$istreambuf_iterator@DU?$char_traits@D@std@@@2@1HABVlocale@2@@Z 1003093b f i libcpmt:locale.obj
 0001:0002fdb2       ?_Getlconv@_Locinfo@std@@QBEPBUlconv@@XZ 10030db2 f i libcpmt:locale.obj
 0001:0002fdb7       ?_Getname@_Locinfo@std@@QBEPBDXZ 10030db7 f i libcpmt:locale.obj
 0001:0002fdc4       ?_Gettrue@_Locinfo@std@@QBEPBDXZ 10030dc4 f i libcpmt:locale.obj
 0001:0002fdca       ?_Gnavail@?$basic_streambuf@DU?$char_traits@D@std@@@std@@IBE_JXZ 10030dca f i libcpmt:locale.obj
 0001:0002fde0       ?_Gninc@?$basic_streambuf@DU?$char_traits@D@std@@@std@@IAEPADXZ 10030de0 f i libcpmt:locale.obj
 0001:0002fdf4       ?_Inc@?$istreambuf_iterator@DU?$char_traits@D@std@@@std@@AAEXXZ 10030df4 f i libcpmt:locale.obj
 0001:0002fe1d       ?_Init@?$codecvt@DDU_Mbstatet@@@std@@IAEXABV_Locinfo@2@@Z 10030e1d f i libcpmt:locale.obj
 0001:0002fe20       ?_Init@?$ctype@D@std@@IAEXABV_Locinfo@2@@Z 10030e20 f i libcpmt:locale.obj
 0001:0002fe4b       ?_Init@?$num_get@DV?$istreambuf_iterator@DU?$char_traits@D@std@@@std@@@std@@IAEXABV_Locinfo@2@@Z 10030e4b f i libcpmt:locale.obj
 0001:0002fe4e       ?_Init@?$num_put@DV?$ostreambuf_iterator@DU?$char_traits@D@std@@@std@@@std@@IAEXABV_Locinfo@2@@Z 10030e4e f i libcpmt:locale.obj
 0001:0002fe51       ?_Locimp_Addfac@_Locimp@locale@std@@CAXPAV123@PAVfacet@23@I@Z 10030e51 f   libcpmt:locale.obj
 0001:0002ff48       ?_Locimp_ctor@_Locimp@locale@std@@CAXPAV123@ABV123@@Z 10030f48 f   libcpmt:locale.obj
 0001:0003002c       ?_Locinfo_Addcats@_Locinfo@std@@SAAAV12@PAV12@HPBD@Z 1003102c f   libcpmt:locale.obj
 0001:000300fa       ?_Locinfo_ctor@_Locinfo@std@@SAXPAV12@HPBD@Z 100310fa f   libcpmt:locale.obj
 0001:0003013d       ?_Makeloc@_Locimp@locale@std@@CAPAV123@ABV_Locinfo@3@HPAV123@PBV23@@Z 1003113d f   libcpmt:locale.obj
 0001:000303dc       ?_Move_alloc@?$_String_alloc@U?$_String_base_types@DV?$allocator@D@std@@@std@@@std@@QAEXAAV?$allocator@D@2@@Z 100313dc f i libcpmt:locale.obj
 0001:000303df       ?_Myptr@?$_Unique_ptr_base@V_Facet_base@std@@U?$default_delete@V_Facet_base@std@@@2@@std@@QAEAAPAV_Facet_base@2@XZ 100313df f i libcpmt:locale.obj
 0001:000303e2       ?_Myptr@?$_Unique_ptr_base@V_Facet_base@std@@U?$default_delete@V_Facet_base@std@@@2@@std@@QBEABQAV_Facet_base@2@XZ 100313e2 f i libcpmt:locale.obj
 0001:000303e5       ?_Peek@?$istreambuf_iterator@DU?$char_traits@D@std@@@std@@ABEDXZ 100313e5 f i libcpmt:locale.obj
 0001:00030412       ?_Pnavail@?$basic_streambuf@DU?$char_traits@D@std@@@std@@IBE_JXZ 10031412 f i libcpmt:locale.obj
 0001:00030428       ?_Pninc@?$basic_streambuf@DU?$char_traits@D@std@@@std@@IAEPADXZ 10031428 f i libcpmt:locale.obj
 0001:0003043c       ?_Stodx_v2@std@@YANPBDPAPADHPAH@Z 1003143c f i libcpmt:locale.obj
 0001:000304a1       ?_Stofx_v2@std@@YAMPBDPAPADHPAH@Z 100314a1 f i libcpmt:locale.obj
 0001:00030510       ?_Tidy@?$_Yarn@_W@std@@AAEXXZ 10031510 f i libcpmt:locale.obj
 0001:0003052a       ?_Tidy@?$ctype@D@std@@IAEXXZ 1003152a f i libcpmt:locale.obj
 0001:0003055e       ?assign@?$basic_string@DU?$char_traits@D@std@@V?$allocator@D@2@@std@@QAEAAV12@$$QAV12@@Z 1003155e f i libcpmt:locale.obj
 0001:00030578       ?c_str@locale@std@@QBEPBDXZ 10031578 f i libcpmt:locale.obj
 0001:00030596       ?decimal_point@?$numpunct@D@std@@QBEDXZ 10031596 f i libcpmt:locale.obj
 0001:000305b4       ?do_always_noconv@?$codecvt@DDU_Mbstatet@@@std@@MBE_NXZ 100315b4 f i libcpmt:locale.obj
 0001:000305b7       ?do_always_noconv@codecvt_base@std@@MBE_NXZ 100315b7 f i libcpmt:locale.obj
 0001:000305ba       ?do_encoding@codecvt_base@std@@MBEHXZ 100315ba f i libcpmt:locale.obj
 0001:000305be       ?do_get@?$num_get@DV?$istreambuf_iterator@DU?$char_traits@D@std@@@std@@@std@@MBE?AV?$istreambuf_iterator@DU?$char_traits@D@std@@@2@V32@0AAVios_base@2@AAHAAG@Z 100315be f i libcpmt:locale.obj
 0001:000306e7       ?do_get@?$num_get@DV?$istreambuf_iterator@DU?$char_traits@D@std@@@std@@@std@@MBE?AV?$istreambuf_iterator@DU?$char_traits@D@std@@@2@V32@0AAVios_base@2@AAHAAI@Z 100316e7 f i libcpmt:locale.obj
 0001:0003073a       ?do_get@?$num_get@DV?$istreambuf_iterator@DU?$char_traits@D@std@@@std@@@std@@MBE?AV?$istreambuf_iterator@DU?$char_traits@D@std@@@2@V32@0AAVios_base@2@AAHAAJ@Z 1003173a f i libcpmt:locale.obj
 0001:0003082f       ?do_get@?$num_get@DV?$istreambuf_iterator@DU?$char_traits@D@std@@@std@@@std@@MBE?AV?$istreambuf_iterator@DU?$char_traits@D@std@@@2@V32@0AAVios_base@2@AAHAAK@Z 1003182f f i libcpmt:locale.obj
 0001:00030924       ?do_get@?$num_get@DV?$istreambuf_iterator@DU?$char_traits@D@std@@@std@@@std@@MBE?AV?$istreambuf_iterator@DU?$char_traits@D@std@@@2@V32@0AAVios_base@2@AAHAAM@Z 10031924 f i libcpmt:locale.obj
 0001:00030a5d       ?do_get@?$num_get@DV?$istreambuf_iterator@DU?$char_traits@D@std@@@std@@@std@@MBE?AV?$istreambuf_iterator@DU?$char_traits@D@std@@@2@V32@0AAVios_base@2@AAHAAN@Z 10031a5d f i libcpmt:locale.obj
 0001:00030b8a       ?do_get@?$num_get@DV?$istreambuf_iterator@DU?$char_traits@D@std@@@std@@@std@@MBE?AV?$istreambuf_iterator@DU?$char_traits@D@std@@@2@V32@0AAVios_base@2@AAHAAO@Z 10031b8a f i libcpmt:locale.obj
 0001:00030bdb       ?do_get@?$num_get@DV?$istreambuf_iterator@DU?$char_traits@D@std@@@std@@@std@@MBE?AV?$istreambuf_iterator@DU?$char_traits@D@std@@@2@V32@0AAVios_base@2@AAHAAPAX@Z 10031bdb f i libcpmt:locale.obj
 0001:00030cd1       ?do_get@?$num_get@DV?$istreambuf_iterator@DU?$char_traits@D@std@@@std@@@std@@MBE?AV?$istreambuf_iterator@DU?$char_traits@D@std@@@2@V32@0AAVios_base@2@AAHAA_J@Z 10031cd1 f i libcpmt:locale.obj
 0001:00030dce       ?do_get@?$num_get@DV?$istreambuf_iterator@DU?$char_traits@D@std@@@std@@@std@@MBE?AV?$istreambuf_iterator@DU?$char_traits@D@std@@@2@V32@0AAVios_base@2@AAHAA_K@Z 10031dce f i libcpmt:locale.obj
 0001:00030ecb       ?do_get@?$num_get@DV?$istreambuf_iterator@DU?$char_traits@D@std@@@std@@@std@@MBE?AV?$istreambuf_iterator@DU?$char_traits@D@std@@@2@V32@0AAVios_base@2@AAHAA_N@Z 10031ecb f i libcpmt:locale.obj
 0001:0003114b       ?do_in@?$codecvt@DDU_Mbstatet@@@std@@MBEHAAU_Mbstatet@@PBD1AAPBDPAD3AAPAD@Z 1003214b f i libcpmt:locale.obj
 0001:0003116b       ?do_length@?$codecvt@DDU_Mbstatet@@@std@@MBEHAAU_Mbstatet@@PBD1I@Z 1003216b f i libcpmt:locale.obj
 0001:00031185       ?do_max_length@codecvt_base@std@@MBEHXZ 10032185 f i libcpmt:locale.obj
 0001:00031189       ?do_out@?$codecvt@DDU_Mbstatet@@@std@@MBEHAAU_Mbstatet@@PBD1AAPBDPAD3AAPAD@Z 10032189 f i libcpmt:locale.obj
 0001:000311a9       ?do_unshift@?$codecvt@DDU_Mbstatet@@@std@@MBEHAAU_Mbstatet@@PAD1AAPAD@Z 100321a9 f i libcpmt:locale.obj
 0001:000311be       ?eof@?$char_traits@D@std@@SAHXZ 100321be f i libcpmt:locale.obj
 0001:000311c2       ?eq_int_type@?$char_traits@D@std@@SA_NABH0@Z 100321c2 f i libcpmt:locale.obj
 0001:000311d8       ?equal@?$istreambuf_iterator@DU?$char_traits@D@std@@@std@@QBE_NABV12@@Z 100321d8 f i libcpmt:locale.obj
 0001:00031220       ?falsename@?$numpunct@D@std@@QBE?AV?$basic_string@DU?$char_traits@D@std@@V?$allocator@D@2@@2@XZ 10032220 f i libcpmt:locale.obj
 0001:0003124d       ?flags@ios_base@std@@QBEHXZ 1003224d f i libcpmt:locale.obj
 0001:00031251       ?get@?$unique_ptr@V_Facet_base@std@@U?$default_delete@V_Facet_base@std@@@2@@std@@QBEPAV_Facet_base@2@XZ 10032251 f i libcpmt:locale.obj
 0001:00031254       ?get_deleter@?$_Unique_ptr_base@V_Facet_base@std@@U?$default_delete@V_Facet_base@std@@@2@@std@@QAEAAU?$default_delete@V_Facet_base@std@@@2@XZ 10032254 f i libcpmt:locale.obj
 0001:00031257       ?getloc@ios_base@std@@QBE?AVlocale@2@XZ 10032257 f i libcpmt:locale.obj
 0001:00031271       ?global@locale@std@@SA?AV12@ABV12@@Z 10032271 f   libcpmt:locale.obj
 0001:00031396       ?gptr@?$basic_streambuf@DU?$char_traits@D@std@@@std@@IBEPADXZ 10032396 f i libcpmt:locale.obj
 0001:0003139c       ?grouping@?$numpunct@D@std@@QBE?AV?$basic_string@DU?$char_traits@D@std@@V?$allocator@D@2@@2@XZ 1003239c f i libcpmt:locale.obj
 0001:000313c9       ?insert@?$basic_string@DU?$char_traits@D@std@@V?$allocator@D@2@@std@@QAEAAV12@IID@Z 100323c9 f i libcpmt:locale.obj
 0001:0003145a       ?precision@ios_base@std@@QBE_JXZ 1003245a f i libcpmt:locale.obj
 0001:00031461       ?push_back@?$basic_string@DU?$char_traits@D@std@@V?$allocator@D@2@@std@@QAEXD@Z 10032461 f i libcpmt:locale.obj
 0001:000314ac       ?release@?$unique_ptr@V_Facet_base@std@@U?$default_delete@V_Facet_base@std@@@2@@std@@QAEPAV_Facet_base@2@XZ 100324ac f i libcpmt:locale.obj
 0001:000314b2       ?sbumpc@?$basic_streambuf@DU?$char_traits@D@std@@@std@@QAEHXZ 100324b2 f i libcpmt:locale.obj
 0001:000314ff       ?sgetc@?$basic_streambuf@DU?$char_traits@D@std@@@std@@QAEHXZ 100324ff f i libcpmt:locale.obj
 0001:0003153e       ?sputc@?$basic_streambuf@DU?$char_traits@D@std@@@std@@QAEHD@Z 1003253e f i libcpmt:locale.obj
 0001:000315a3       ?thousands_sep@?$numpunct@D@std@@QBEDXZ 100325a3 f i libcpmt:locale.obj
 0001:000315c1       ?to_char_type@?$char_traits@D@std@@SADABH@Z 100325c1 f i libcpmt:locale.obj
 0001:000315cd       ?to_int_type@?$char_traits@D@std@@SAHABD@Z 100325cd f i libcpmt:locale.obj
 0001:000315da       ?truename@?$numpunct@D@std@@QBE?AV?$basic_string@DU?$char_traits@D@std@@V?$allocator@D@2@@2@XZ 100325da f i libcpmt:locale.obj
 0001:00031607       ?widen@?$ctype@D@std@@QBEPBDPBD0PAD@Z 10032607 f i libcpmt:locale.obj
 0001:00031637       ?width@ios_base@std@@QAE_J_J@Z 10032637 f i libcpmt:locale.obj
 0001:00031658       ?width@ios_base@std@@QBE_JXZ 10032658 f i libcpmt:locale.obj
 0001:0003165f       __vsprintf_s_l             1003265f f i libcpmt:locale.obj
 0001:00031697       _fabsl                     10032697 f i libcpmt:locale.obj
 0001:000316a3       _frexpl                    100326a3 f i libcpmt:locale.obj
 0001:000316c1       _ldexpf                    100326c1 f i libcpmt:locale.obj
 0001:000316e7       _powf                      100326e7 f i libcpmt:locale.obj
 0001:00031703       ??1_Init_atexit@@QAE@XZ    10032703 f i libcpmt:iosptrs.obj
 0001:0003177e       ?_Atexit@@YAXP6AXXZ@Z      1003277e f   libcpmt:iosptrs.obj
 0001:00031c4b       ___crtAcquireSRWLockExclusive 10032c4b f   libcpmt:winapisupp.obj
 0001:00031c73       ___crtCloseThreadpoolTimer 10032c73 f   libcpmt:winapisupp.obj
 0001:00031c9d       ___crtCloseThreadpoolWait  10032c9d f   libcpmt:winapisupp.obj
 0001:00031cc7       ___crtCloseThreadpoolWork  10032cc7 f   libcpmt:winapisupp.obj
 0001:00031cef       ___crtCreateEventExW       10032cef f   libcpmt:winapisupp.obj
 0001:00031d46       ___crtCreateSemaphoreExW   10032d46 f   libcpmt:winapisupp.obj
 0001:00031db4       ___crtCreateSymbolicLinkW  10032db4 f   libcpmt:winapisupp.obj
 0001:00031df5       ___crtCreateThreadpoolTimer 10032df5 f   libcpmt:winapisupp.obj
 0001:00031e2c       ___crtCreateThreadpoolWait 10032e2c f   libcpmt:winapisupp.obj
 0001:00031e63       ___crtCreateThreadpoolWork 10032e63 f   libcpmt:winapisupp.obj
 0001:00031e92       ___crtFlsAlloc             10032e92 f   libcpmt:winapisupp.obj
 0001:00031ec6       ___crtFlsFree              10032ec6 f   libcpmt:winapisupp.obj
 0001:00031efa       ___crtFlsGetValue          10032efa f   libcpmt:winapisupp.obj
 0001:00031f2e       ___crtFlsSetValue          10032f2e f   libcpmt:winapisupp.obj
 0001:00031f66       ___crtFlushProcessWriteBuffers 10032f66 f   libcpmt:winapisupp.obj
 0001:00031f87       ___crtFreeLibraryWhenCallbackReturns 10032f87 f   libcpmt:winapisupp.obj
 0001:00031fb5       ___crtGetCurrentProcessorNumber 10032fb5 f   libcpmt:winapisupp.obj
 0001:00031fdb       ___crtGetFileInformationByHandleEx 10032fdb f   libcpmt:winapisupp.obj
 0001:0003201f       ___crtGetSystemTimePreciseAsFileTime 1003301f f   libcpmt:winapisupp.obj
 0001:00032053       ___crtGetTickCount64       10033053 f   libcpmt:winapisupp.obj
 0001:00032081       ___crtInitOnceExecuteOnce  10033081 f   libcpmt:winapisupp.obj
 0001:00032132       ___crtInitializeConditionVariable 10033132 f   libcpmt:winapisupp.obj
 0001:0003215a       ___crtInitializeCriticalSectionEx 1003315a f   libcpmt:winapisupp.obj
 0001:000321a1       ___crtInitializeSRWLock    100331a1 f   libcpmt:winapisupp.obj
 0001:000321c9       ___crtIsPackagedApp        100331c9 f   libcpmt:winapisupp.obj
 0001:000321ef       ___crtReleaseSRWLockExclusive 100331ef f   libcpmt:winapisupp.obj
 0001:00032217       ___crtSetFileInformationByHandle 10033217 f   libcpmt:winapisupp.obj
 0001:0003225b       ___crtSetThreadpoolTimer   1003325b f   libcpmt:winapisupp.obj
 0001:00032290       ___crtSetThreadpoolWait    10033290 f   libcpmt:winapisupp.obj
 0001:000322c2       ___crtSleepConditionVariableCS 100332c2 f   libcpmt:winapisupp.obj
 0001:000322f1       ___crtSleepConditionVariableSRW 100332f1 f   libcpmt:winapisupp.obj
 0001:00032324       ___crtSubmitThreadpoolWork 10033324 f   libcpmt:winapisupp.obj
 0001:0003234c       ___crtTryAcquireSRWLockExclusive 1003334c f   libcpmt:winapisupp.obj
 0001:00032374       ___crtWaitForThreadpoolTimerCallbacks 10033374 f   libcpmt:winapisupp.obj
 0001:000323a2       ___crtWakeAllConditionVariable 100333a2 f   libcpmt:winapisupp.obj
 0001:000323ca       ___crtWakeConditionVariable 100333ca f   libcpmt:winapisupp.obj
 0001:000323f2       ___crt_IsPackagedAppHelper 100333f2 f   libcpmt:winapisupp.obj
 0001:00032435       _GetTableIndexFromLcid     10033435 f   libcpmt:winapinls.obj
 0001:00032477       _GetTableIndexFromLocaleName 10033477 f   libcpmt:winapinls.obj
 0001:000324d8       ___crtCompareStringEx      100334d8 f   libcpmt:winapinls.obj
 0001:00032544       ___crtDownlevelLCIDToLocaleName 10033544 f   libcpmt:winapinls.obj
 0001:000325c9       ___crtDownlevelLocaleNameToLCID 100335c9 f   libcpmt:winapinls.obj
 0001:000325fd       ___crtGetLocaleInfoEx      100335fd f   libcpmt:winapinls.obj
 0001:00032645       ___crtLCMapStringEx        10033645 f   libcpmt:winapinls.obj
 0001:000326b1       ___wcsnicmp_ascii          100336b1 f   libcpmt:winapinls.obj
 0001:00032733       ??$?0$$V@?$_Compressed_pair@V?$allocator@G@std@@V?$_String_val@U?$_Simple_types@G@std@@@2@$00@std@@QAE@U_Zero_then_variadic_args_t@1@@Z 10033733 f i libcpmt:wlocale.obj
 0001:00032743       ??$?0V?$allocator@G@std@@$$V@?$_Compressed_pair@V?$allocator@G@std@@V?$_String_val@U?$_Simple_types@G@std@@@2@$00@std@@QAE@U_One_then_variadic_args_t@1@$$QAV?$allocator@G@1@@Z 10033743 f i libcpmt:wlocale.obj
 0001:00032753       ??$?0V?$allocator@G@std@@X@?$_String_alloc@U?$_String_base_types@GV?$allocator@G@std@@@std@@@std@@QAE@$$QAV?$allocator@G@1@@Z 10033753 f i libcpmt:wlocale.obj
 0001:00032763       ??$?0V?$allocator@_W@std@@$$V@?$_Compressed_pair@V?$allocator@_W@std@@V?$_String_val@U?$_Simple_types@_W@std@@@2@$00@std@@QAE@U_One_then_variadic_args_t@1@$$QAV?$allocator@_W@1@@Z 10033763 f i libcpmt:wlocale.obj
 0001:00032773       ??$?0V?$allocator@_W@std@@X@?$_String_alloc@U?$_String_base_types@_WV?$allocator@_W@std@@@std@@@std@@QAE@$$QAV?$allocator@_W@1@@Z 10033773 f i libcpmt:wlocale.obj
 0001:00032783       ??$?8GU?$char_traits@G@std@@@std@@YA_NABV?$istreambuf_iterator@GU?$char_traits@G@std@@@0@0@Z 10033783 f i libcpmt:wlocale.obj
 0001:00032797       ??$?8_WU?$char_traits@_W@std@@@std@@YA_NABV?$istreambuf_iterator@_WU?$char_traits@_W@std@@@0@0@Z 10033797 f i libcpmt:wlocale.obj
 0001:000327ab       ??$?9GU?$char_traits@G@std@@@std@@YA_NABV?$istreambuf_iterator@GU?$char_traits@G@std@@@0@0@Z 100337ab f i libcpmt:wlocale.obj
 0001:000327c6       ??$?9_WU?$char_traits@_W@std@@@std@@YA_NABV?$istreambuf_iterator@_WU?$char_traits@_W@std@@@0@0@Z 100337c6 f i libcpmt:wlocale.obj
 0001:000327e1       ??$_Adl_verify_range@PADPAD@std@@YAXABQAD0@Z 100337e1 f i libcpmt:wlocale.obj
 0001:000327e2       ??$_Adl_verify_range@PAGPAG@std@@YAXABQAG0@Z 100337e2 f i libcpmt:wlocale.obj
 0001:000327e3       ??$_Adl_verify_range@PA_WPA_W@std@@YAXABQA_W0@Z 100337e3 f i libcpmt:wlocale.obj
 0001:000327e4       ??$_Adl_verify_range@PBGPBG@std@@YAXABQBG0@Z 100337e4 f i libcpmt:wlocale.obj
 0001:000327e5       ??$_Adl_verify_range@PB_WPB_W@std@@YAXABQB_W0@Z 100337e5 f i libcpmt:wlocale.obj
 0001:000327e6       ??$_Adl_verify_range@V?$istreambuf_iterator@GU?$char_traits@G@std@@@std@@V12@@std@@YAXABV?$istreambuf_iterator@GU?$char_traits@G@std@@@0@0@Z 100337e6 f i libcpmt:wlocale.obj
 0001:000327e7       ??$_Adl_verify_range@V?$istreambuf_iterator@_WU?$char_traits@_W@std@@@std@@V12@@std@@YAXABV?$istreambuf_iterator@_WU?$char_traits@_W@std@@@0@0@Z 100337e7 f i libcpmt:wlocale.obj
 0001:000327e8       ??$_Copy_unchecked1@PA_WV?$ostreambuf_iterator@GU?$char_traits@G@std@@@std@@@std@@YA?AV?$ostreambuf_iterator@GU?$char_traits@G@std@@@0@PA_W0V10@U_General_ptr_iterator_tag@0@@Z 100337e8 f i libcpmt:wlocale.obj
 0001:0003283e       ??$_Copy_unchecked1@PA_WV?$ostreambuf_iterator@_WU?$char_traits@_W@std@@@std@@@std@@YA?AV?$ostreambuf_iterator@_WU?$char_traits@_W@std@@@0@PA_W0V10@U_General_ptr_iterator_tag@0@@Z 1003383e f i libcpmt:wlocale.obj
 0001:00032894       ??$_Copy_unchecked@PA_WV?$ostreambuf_iterator@GU?$char_traits@G@std@@@std@@@std@@YA?AV?$ostreambuf_iterator@GU?$char_traits@G@std@@@0@PA_W0V10@@Z 10033894 f i libcpmt:wlocale.obj
 0001:000328c4       ??$_Copy_unchecked@PA_WV?$ostreambuf_iterator@_WU?$char_traits@_W@std@@@std@@@std@@YA?AV?$ostreambuf_iterator@_WU?$char_traits@_W@std@@@0@PA_W0V10@@Z 100338c4 f i libcpmt:wlocale.obj
 0001:000328f4       ??$_Find_elem@G$0BL@@std@@YAIAAY0BL@$$CBGG@Z 100338f4 f i libcpmt:wlocale.obj
 0001:00032924       ??$_Find_elem@G$0BN@@std@@YAIAAY0BN@$$CBGG@Z 10033924 f i libcpmt:wlocale.obj
 0001:00032954       ??$_Find_elem@G$0M@@std@@YAIAAY0M@$$CBGG@Z 10033954 f i libcpmt:wlocale.obj
 0001:00032984       ??$_Find_elem@G$0P@@std@@YAIAAY0P@$$CBGG@Z 10033984 f i libcpmt:wlocale.obj
 0001:000329b4       ??$_Find_elem@_W$0BL@@std@@YAIAAY0BL@$$CB_W_W@Z 100339b4 f i libcpmt:wlocale.obj
 0001:000329e4       ??$_Find_elem@_W$0BN@@std@@YAIAAY0BN@$$CB_W_W@Z 100339e4 f i libcpmt:wlocale.obj
 0001:00032a14       ??$_Find_elem@_W$0M@@std@@YAIAAY0M@$$CB_W_W@Z 10033a14 f i libcpmt:wlocale.obj
 0001:00032a44       ??$_Find_elem@_W$0P@@std@@YAIAAY0P@$$CB_W_W@Z 10033a44 f i libcpmt:wlocale.obj
 0001:00032a74       ??$_Find_unchecked1@PBGG@std@@YAPBGPBGQBGABGU?$integral_constant@_N$0A@@0@@Z 10033a74 f i libcpmt:wlocale.obj
 0001:00032a9e       ??$_Find_unchecked1@PB_W_W@std@@YAPB_WPB_WQB_WAB_WU?$integral_constant@_N$0A@@0@@Z 10033a9e f i libcpmt:wlocale.obj
 0001:00032ac8       ??$_Find_unchecked@PBGG@std@@YAPBGQBG0ABG@Z 10033ac8 f i libcpmt:wlocale.obj
 0001:00032aed       ??$_Find_unchecked@PB_W_W@std@@YAPB_WQB_W0AB_W@Z 10033aed f i libcpmt:wlocale.obj
 0001:00032b12       ??$_Get_unwrapped@_W@std@@YAPA_WQA_W@Z 10033b12 f i libcpmt:wlocale.obj
 0001:00032b1c       ??$_Get_unwrapped_n@V?$ostreambuf_iterator@GU?$char_traits@G@std@@@std@@H$0A@@std@@YAABV?$ostreambuf_iterator@GU?$char_traits@G@std@@@0@ABV10@H@Z 10033b1c f i libcpmt:wlocale.obj
 0001:00032b26       ??$_Get_unwrapped_n@V?$ostreambuf_iterator@_WU?$char_traits@_W@std@@@std@@H$0A@@std@@YAABV?$ostreambuf_iterator@_WU?$char_traits@_W@std@@@0@ABV10@H@Z 10033b26 f i libcpmt:wlocale.obj
 0001:00032b30       ??$_Getloctxt@DV?$istreambuf_iterator@GU?$char_traits@G@std@@@std@@@std@@YAHAAV?$istreambuf_iterator@GU?$char_traits@G@std@@@0@0IPBD@Z 10033b30 f i libcpmt:wlocale.obj
 0001:00032d0c       ??$_Getloctxt@DV?$istreambuf_iterator@_WU?$char_traits@_W@std@@@std@@@std@@YAHAAV?$istreambuf_iterator@_WU?$char_traits@_W@std@@@0@0IPBD@Z 10033d0c f i libcpmt:wlocale.obj
 0001:00032ee8       ??$_Getloctxt@GV?$istreambuf_iterator@GU?$char_traits@G@std@@@std@@@std@@YAHAAV?$istreambuf_iterator@GU?$char_traits@G@std@@@0@0IPBG@Z 10033ee8 f i libcpmt:wlocale.obj
 0001:000330cb       ??$_Getloctxt@_WV?$istreambuf_iterator@_WU?$char_traits@_W@std@@@std@@@std@@YAHAAV?$istreambuf_iterator@_WU?$char_traits@_W@std@@@0@0IPB_W@Z 100340cb f i libcpmt:wlocale.obj
 0001:000332ae       ??$_Getvals@G@?$_Mpunct@G@std@@IAEXGPBUlconv@@@Z 100342ae f i libcpmt:wlocale.obj
 0001:00033364       ??$_Getvals@G@?$numpunct@G@std@@IAEXGPBUlconv@@U_Cvtvec@@@Z 10034364 f i libcpmt:wlocale.obj
 0001:000333de       ??$_Getvals@G@?$time_get@GV?$istreambuf_iterator@GU?$char_traits@G@std@@@std@@@std@@IAEXGABV_Locinfo@1@@Z 100343de f i libcpmt:wlocale.obj
 0001:00033463       ??$_Getvals@_W@?$time_get@_WV?$istreambuf_iterator@_WU?$char_traits@_W@std@@@std@@@std@@IAEX_WABV_Locinfo@1@@Z 10034463 f i libcpmt:wlocale.obj
 0001:000334d2       ??$_Hash_array_representation@G@std@@YAIQBGI@Z 100344d2 f i libcpmt:wlocale.obj
 0001:000334f3       ??$_Hash_array_representation@_W@std@@YAIQB_WI@Z 100344f3 f i libcpmt:wlocale.obj
 0001:00033514       ??$_Idl_distance@PA_WPA_W@std@@YAHABQA_W0@Z 10034514 f i libcpmt:wlocale.obj
 0001:00033529       ??$_LStrcoll@G@std@@YAHPBG000PBU_Collvec@@@Z 10034529 f i libcpmt:wlocale.obj
 0001:00033585       ??$_LStrcoll@_W@std@@YAHPB_W000PBU_Collvec@@@Z 10034585 f i libcpmt:wlocale.obj
 0001:00033590       ??$_LStrxfrm@G@std@@YAIPAG0PBG1PBU_Collvec@@@Z 10034590 f i libcpmt:wlocale.obj
 0001:000335ca       ??$_LStrxfrm@_W@std@@YAIPA_W0PB_W1PBU_Collvec@@@Z 100345ca f i libcpmt:wlocale.obj
 0001:000335d5       ??$_Maklocchr@G@std@@YAGDPAGABU_Cvtvec@@@Z 100345d5 f i libcpmt:wlocale.obj
 0001:00033612       ??$_Maklocchr@_W@std@@YA_WDPA_WABU_Cvtvec@@@Z 10034612 f i libcpmt:wlocale.obj
 0001:0003364f       ??$_Maklocstr@G@std@@YAPAGPBDPAGABU_Cvtvec@@@Z 1003464f f i libcpmt:wlocale.obj
 0001:00033721       ??$_Maklocstr@_W@std@@YAPA_WPBDPA_WABU_Cvtvec@@@Z 10034721 f i libcpmt:wlocale.obj
 0001:000337f3       ??$_Pocma@V?$allocator@G@std@@@std@@YAXAAV?$allocator@G@0@0@Z 100347f3 f i libcpmt:wlocale.obj
 0001:000337f4       ??$_Pocma@V?$allocator@G@std@@@std@@YAXAAV?$allocator@G@0@0U?$integral_constant@_N$00@0@@Z 100347f4 f i libcpmt:wlocale.obj
 0001:000337f5       ??$_Pocma@V?$allocator@_W@std@@@std@@YAXAAV?$allocator@_W@0@0@Z 100347f5 f i libcpmt:wlocale.obj
 0001:000337f6       ??$_Pocma@V?$allocator@_W@std@@@std@@YAXAAV?$allocator@_W@0@0U?$integral_constant@_N$00@0@@Z 100347f6 f i libcpmt:wlocale.obj
 0001:000337f7       ??$_Ptr_copy_cat@PA_WV?$ostreambuf_iterator@GU?$char_traits@G@std@@@std@@@std@@YA?AU_General_ptr_iterator_tag@0@ABQA_WABV?$ostreambuf_iterator@GU?$char_traits@G@std@@@0@@Z 100347f7 f i libcpmt:wlocale.obj
 0001:000337fa       ??$_Ptr_copy_cat@PA_WV?$ostreambuf_iterator@_WU?$char_traits@_W@std@@@std@@@std@@YA?AU_General_ptr_iterator_tag@0@ABQA_WABV?$ostreambuf_iterator@_WU?$char_traits@_W@std@@@0@@Z 100347fa f i libcpmt:wlocale.obj
 0001:000343df       ??$_Refancy@PAG$0A@@std@@YAPAGPAG@Z 100353df f i libcpmt:wlocale.obj
 0001:000343e9       ??$_Refancy@PA_W$0A@@std@@YAPA_WPA_W@Z 100353e9 f i libcpmt:wlocale.obj
 0001:000343f3       ??$_Seek_wrapped@V?$ostreambuf_iterator@GU?$char_traits@G@std@@@std@@V12@@std@@YAXAAV?$ostreambuf_iterator@GU?$char_traits@G@std@@@0@ABV10@@Z 100353f3 f i libcpmt:wlocale.obj
 0001:0003440d       ??$_Seek_wrapped@V?$ostreambuf_iterator@_WU?$char_traits@_W@std@@@std@@V12@@std@@YAXAAV?$ostreambuf_iterator@_WU?$char_traits@_W@std@@@0@ABV10@@Z 1003540d f i libcpmt:wlocale.obj
 0001:00034427       ??$_Unfancy@G@std@@YAPAGPAG@Z 10035427 f i libcpmt:wlocale.obj
 0001:00034431       ??$addressof@$$CBV?$moneypunct@G$00@std@@@std@@YAPBV?$moneypunct@G$00@0@ABV10@@Z 10035431 f i libcpmt:wlocale.obj
 0001:0003443b       ??$addressof@$$CBV?$moneypunct@G$0A@@std@@@std@@YAPBV?$moneypunct@G$0A@@0@ABV10@@Z 1003543b f i libcpmt:wlocale.obj
 0001:00034445       ??$addressof@$$CBV?$moneypunct@_W$00@std@@@std@@YAPBV?$moneypunct@_W$00@0@ABV10@@Z 10035445 f i libcpmt:wlocale.obj
 0001:0003444f       ??$addressof@$$CBV?$moneypunct@_W$0A@@std@@@std@@YAPBV?$moneypunct@_W$0A@@0@ABV10@@Z 1003544f f i libcpmt:wlocale.obj
 0001:00034459       ??$addressof@PAG@std@@YAPAPAGAAPAG@Z 10035459 f i libcpmt:wlocale.obj
 0001:00034463       ??$addressof@V?$_String_val@U?$_Simple_types@G@std@@@std@@@std@@YAPAV?$_String_val@U?$_Simple_types@G@std@@@0@AAV10@@Z 10035463 f i libcpmt:wlocale.obj
 0001:0003446d       ??$addressof@V?$_String_val@U?$_Simple_types@_W@std@@@std@@@std@@YAPAV?$_String_val@U?$_Simple_types@_W@std@@@0@AAV10@@Z 1003546d f i libcpmt:wlocale.obj
 0001:00034477       ??$addressof@V?$basic_string@GU?$char_traits@G@std@@V?$allocator@G@2@@std@@@std@@YAPAV?$basic_string@GU?$char_traits@G@std@@V?$allocator@G@2@@0@AAV10@@Z 10035477 f i libcpmt:wlocale.obj
 0001:00034481       ??$addressof@V?$basic_string@_WU?$char_traits@_W@std@@V?$allocator@_W@2@@std@@@std@@YAPAV?$basic_string@_WU?$char_traits@_W@std@@V?$allocator@_W@2@@0@AAV10@@Z 10035481 f i libcpmt:wlocale.obj
 0001:0003448b       ??$construct@PAGABQAG@?$_Default_allocator_traits@V?$allocator@G@std@@@std@@SAXAAV?$allocator@G@1@QAPAGABQAG@Z 1003548b f i libcpmt:wlocale.obj
 0001:0003449d       ??$copy@PA_WV?$ostreambuf_iterator@GU?$char_traits@G@std@@@std@@@std@@YA?AV?$ostreambuf_iterator@GU?$char_traits@G@std@@@0@PA_W0V10@@Z 1003549d f i libcpmt:wlocale.obj
 0001:000344d6       ??$copy@PA_WV?$ostreambuf_iterator@_WU?$char_traits@_W@std@@@std@@@std@@YA?AV?$ostreambuf_iterator@_WU?$char_traits@_W@std@@@0@PA_W0V10@@Z 100354d6 f i libcpmt:wlocale.obj
 0001:0003450f       ??$destroy@PAG@?$_Default_allocator_traits@V?$allocator@G@std@@@std@@SAXAAV?$allocator@G@1@QAPAG@Z 1003550f f i libcpmt:wlocale.obj
 0001:00034510       ??$forward@ABQAG@std@@YAABQAGABQAG@Z 10035510 f i libcpmt:wlocale.obj
 0001:0003451a       ??$forward@V?$allocator@G@std@@@std@@YA$$QAV?$allocator@G@0@AAV10@@Z 1003551a f i libcpmt:wlocale.obj
 0001:00034524       ??$forward@V?$allocator@_W@std@@@std@@YA$$QAV?$allocator@_W@0@AAV10@@Z 10035524 f i libcpmt:wlocale.obj
 0001:0003452e       ??$move@AAV?$allocator@G@std@@@std@@YA$$QAV?$allocator@G@0@AAV10@@Z 1003552e f i libcpmt:wlocale.obj
 0001:00034538       ??$move@AAV?$allocator@_W@std@@@std@@YA$$QAV?$allocator@_W@0@AAV10@@Z 10035538 f i libcpmt:wlocale.obj
 0001:00034542       ??$move@AAV?$basic_string@GU?$char_traits@G@std@@V?$allocator@G@2@@std@@@std@@YA$$QAV?$basic_string@GU?$char_traits@G@std@@V?$allocator@G@2@@0@AAV10@@Z 10035542 f i libcpmt:wlocale.obj
 0001:0003454c       ??$move@AAV?$basic_string@_WU?$char_traits@_W@std@@V?$allocator@_W@2@@std@@@std@@YA$$QAV?$basic_string@_WU?$char_traits@_W@std@@V?$allocator@_W@2@@0@AAV10@@Z 1003554c f i libcpmt:wlocale.obj
 0001:00034556       ??$use_facet@V?$codecvt@GDU_Mbstatet@@@std@@@std@@YAABV?$codecvt@GDU_Mbstatet@@@0@ABVlocale@0@@Z 10035556 f i libcpmt:wlocale.obj
 0001:00034625       ??$use_facet@V?$codecvt@_WDU_Mbstatet@@@std@@@std@@YAABV?$codecvt@_WDU_Mbstatet@@@0@ABVlocale@0@@Z 10035625 f i libcpmt:wlocale.obj
 0001:000346f4       ??$use_facet@V?$collate@G@std@@@std@@YAABV?$collate@G@0@ABVlocale@0@@Z 100356f4 f i libcpmt:wlocale.obj
 0001:000347c3       ??$use_facet@V?$collate@_W@std@@@std@@YAABV?$collate@_W@0@ABVlocale@0@@Z 100357c3 f i libcpmt:wlocale.obj
 0001:00034892       ??$use_facet@V?$ctype@G@std@@@std@@YAABV?$ctype@G@0@ABVlocale@0@@Z 10035892 f i libcpmt:wlocale.obj
 0001:00034961       ??$use_facet@V?$ctype@_W@std@@@std@@YAABV?$ctype@_W@0@ABVlocale@0@@Z 10035961 f i libcpmt:wlocale.obj
 0001:00034a30       ??$use_facet@V?$messages@G@std@@@std@@YAABV?$messages@G@0@ABVlocale@0@@Z 10035a30 f i libcpmt:wlocale.obj
 0001:00034aff       ??$use_facet@V?$messages@_W@std@@@std@@YAABV?$messages@_W@0@ABVlocale@0@@Z 10035aff f i libcpmt:wlocale.obj
 0001:00034bce       ??$use_facet@V?$money_get@GV?$istreambuf_iterator@GU?$char_traits@G@std@@@std@@@std@@@std@@YAABV?$money_get@GV?$istreambuf_iterator@GU?$char_traits@G@std@@@std@@@0@ABVlocale@0@@Z 10035bce f i libcpmt:wlocale.obj
 0001:00034c9d       ??$use_facet@V?$money_get@_WV?$istreambuf_iterator@_WU?$char_traits@_W@std@@@std@@@std@@@std@@YAABV?$money_get@_WV?$istreambuf_iterator@_WU?$char_traits@_W@std@@@std@@@0@ABVlocale@0@@Z 10035c9d f i libcpmt:wlocale.obj
 0001:00034d6c       ??$use_facet@V?$money_put@GV?$ostreambuf_iterator@GU?$char_traits@G@std@@@std@@@std@@@std@@YAABV?$money_put@GV?$ostreambuf_iterator@GU?$char_traits@G@std@@@std@@@0@ABVlocale@0@@Z 10035d6c f i libcpmt:wlocale.obj
 0001:00034e3b       ??$use_facet@V?$money_put@_WV?$ostreambuf_iterator@_WU?$char_traits@_W@std@@@std@@@std@@@std@@YAABV?$money_put@_WV?$ostreambuf_iterator@_WU?$char_traits@_W@std@@@std@@@0@ABVlocale@0@@Z 10035e3b f i libcpmt:wlocale.obj
 0001:00034f0a       ??$use_facet@V?$moneypunct@G$00@std@@@std@@YAABV?$moneypunct@G$00@0@ABVlocale@0@@Z 10035f0a f i libcpmt:wlocale.obj
 0001:00034fd9       ??$use_facet@V?$moneypunct@G$0A@@std@@@std@@YAABV?$moneypunct@G$0A@@0@ABVlocale@0@@Z 10035fd9 f i libcpmt:wlocale.obj
 0001:000350a8       ??$use_facet@V?$moneypunct@_W$00@std@@@std@@YAABV?$moneypunct@_W$00@0@ABVlocale@0@@Z 100360a8 f i libcpmt:wlocale.obj
 0001:00035177       ??$use_facet@V?$moneypunct@_W$0A@@std@@@std@@YAABV?$moneypunct@_W$0A@@0@ABVlocale@0@@Z 10036177 f i libcpmt:wlocale.obj
 0001:00035246       ??$use_facet@V?$num_get@GV?$istreambuf_iterator@GU?$char_traits@G@std@@@std@@@std@@@std@@YAABV?$num_get@GV?$istreambuf_iterator@GU?$char_traits@G@std@@@std@@@0@ABVlocale@0@@Z 10036246 f i libcpmt:wlocale.obj
 0001:00035315       ??$use_facet@V?$num_get@_WV?$istreambuf_iterator@_WU?$char_traits@_W@std@@@std@@@std@@@std@@YAABV?$num_get@_WV?$istreambuf_iterator@_WU?$char_traits@_W@std@@@std@@@0@ABVlocale@0@@Z 10036315 f i libcpmt:wlocale.obj
 0001:000353e4       ??$use_facet@V?$num_put@GV?$ostreambuf_iterator@GU?$char_traits@G@std@@@std@@@std@@@std@@YAABV?$num_put@GV?$ostreambuf_iterator@GU?$char_traits@G@std@@@std@@@0@ABVlocale@0@@Z 100363e4 f i libcpmt:wlocale.obj
 0001:000354b3       ??$use_facet@V?$num_put@_WV?$ostreambuf_iterator@_WU?$char_traits@_W@std@@@std@@@std@@@std@@YAABV?$num_put@_WV?$ostreambuf_iterator@_WU?$char_traits@_W@std@@@std@@@0@ABVlocale@0@@Z 100364b3 f i libcpmt:wlocale.obj
 0001:00035582       ??$use_facet@V?$numpunct@G@std@@@std@@YAABV?$numpunct@G@0@ABVlocale@0@@Z 10036582 f i libcpmt:wlocale.obj
 0001:00035651       ??$use_facet@V?$numpunct@_W@std@@@std@@YAABV?$numpunct@_W@0@ABVlocale@0@@Z 10036651 f i libcpmt:wlocale.obj
 0001:00035720       ??$use_facet@V?$time_get@GV?$istreambuf_iterator@GU?$char_traits@G@std@@@std@@@std@@@std@@YAABV?$time_get@GV?$istreambuf_iterator@GU?$char_traits@G@std@@@std@@@0@ABVlocale@0@@Z 10036720 f i libcpmt:wlocale.obj
 0001:000357ef       ??$use_facet@V?$time_get@_WV?$istreambuf_iterator@_WU?$char_traits@_W@std@@@std@@@std@@@std@@YAABV?$time_get@_WV?$istreambuf_iterator@_WU?$char_traits@_W@std@@@std@@@0@ABVlocale@0@@Z 100367ef f i libcpmt:wlocale.obj
 0001:000358be       ??$use_facet@V?$time_put@GV?$ostreambuf_iterator@GU?$char_traits@G@std@@@std@@@std@@@std@@YAABV?$time_put@GV?$ostreambuf_iterator@GU?$char_traits@G@std@@@std@@@0@ABVlocale@0@@Z 100368be f i libcpmt:wlocale.obj
 0001:0003598d       ??$use_facet@V?$time_put@_WV?$ostreambuf_iterator@_WU?$char_traits@_W@std@@@std@@@std@@@std@@YAABV?$time_put@_WV?$ostreambuf_iterator@_WU?$char_traits@_W@std@@@std@@@0@ABVlocale@0@@Z 1003698d f i libcpmt:wlocale.obj
 0001:00035a5c       ??0?$_Mpunct@G@std@@QAE@ABV_Locinfo@1@I_N1@Z 10036a5c f i libcpmt:wlocale.obj
 0001:00035aa7       ??0?$_Mpunct@_W@std@@QAE@ABV_Locinfo@1@I_N1@Z 10036aa7 f i libcpmt:wlocale.obj
 0001:00035af2       ??0?$_String_alloc@U?$_String_base_types@GV?$allocator@G@std@@@std@@@std@@QAE@XZ 10036af2 f i libcpmt:wlocale.obj
 0001:00035aff       ??0?$_String_const_iterator@V?$_String_val@U?$_Simple_types@G@std@@@std@@@std@@QAE@PBGPBU_Container_base0@1@@Z 10036aff f i libcpmt:wlocale.obj
 0001:00035b10       ??0?$_String_const_iterator@V?$_String_val@U?$_Simple_types@G@std@@@std@@@std@@QAE@XZ 10036b10 f i libcpmt:wlocale.obj
 0001:00035b16       ??0?$_String_const_iterator@V?$_String_val@U?$_Simple_types@_W@std@@@std@@@std@@QAE@PB_WPBU_Container_base0@1@@Z 10036b16 f i libcpmt:wlocale.obj
 0001:00035b27       ??0?$_String_const_iterator@V?$_String_val@U?$_Simple_types@_W@std@@@std@@@std@@QAE@XZ 10036b27 f i libcpmt:wlocale.obj
 0001:00035b2d       ??0?$_String_iterator@V?$_String_val@U?$_Simple_types@G@std@@@std@@@std@@QAE@PAGPBU_Container_base0@1@@Z 10036b2d f i libcpmt:wlocale.obj
 0001:00035b3e       ??0?$_String_iterator@V?$_String_val@U?$_Simple_types@_W@std@@@std@@@std@@QAE@PA_WPBU_Container_base0@1@@Z 10036b3e f i libcpmt:wlocale.obj
 0001:00035b4f       ??0?$_String_val@U?$_Simple_types@G@std@@@std@@QAE@XZ 10036b4f f i libcpmt:wlocale.obj
 0001:00035b5c       ??0?$allocator@G@std@@QAE@XZ 10036b5c f i libcpmt:wlocale.obj
 0001:00035b5f       ??0?$basic_string@GU?$char_traits@G@std@@V?$allocator@G@2@@std@@QAE@$$QAV01@@Z 10036b5f f i libcpmt:wlocale.obj
 0001:00035b9e       ??0?$basic_string@GU?$char_traits@G@std@@V?$allocator@G@2@@std@@QAE@ABV01@@Z 10036b9e f i libcpmt:wlocale.obj
 0001:00035bc2       ??0?$basic_string@GU?$char_traits@G@std@@V?$allocator@G@2@@std@@QAE@IG@Z 10036bc2 f i libcpmt:wlocale.obj
 0001:00035bf4       ??0?$basic_string@GU?$char_traits@G@std@@V?$allocator@G@2@@std@@QAE@QBG@Z 10036bf4 f i libcpmt:wlocale.obj
 0001:00035c22       ??0?$basic_string@GU?$char_traits@G@std@@V?$allocator@G@2@@std@@QAE@QBGI@Z 10036c22 f i libcpmt:wlocale.obj
 0001:00035c54       ??0?$basic_string@GU?$char_traits@G@std@@V?$allocator@G@2@@std@@QAE@XZ 10036c54 f i libcpmt:wlocale.obj
 0001:00035c6b       ??0?$basic_string@_WU?$char_traits@_W@std@@V?$allocator@_W@2@@std@@QAE@$$QAV01@@Z 10036c6b f i libcpmt:wlocale.obj
 0001:00035caa       ??0?$basic_string@_WU?$char_traits@_W@std@@V?$allocator@_W@2@@std@@QAE@ABV01@@Z 10036caa f i libcpmt:wlocale.obj
 0001:00035cce       ??0?$basic_string@_WU?$char_traits@_W@std@@V?$allocator@_W@2@@std@@QAE@QB_W@Z 10036cce f i libcpmt:wlocale.obj
 0001:00035cfc       ??0?$basic_string@_WU?$char_traits@_W@std@@V?$allocator@_W@2@@std@@QAE@QB_WI@Z 10036cfc f i libcpmt:wlocale.obj
 0001:00035d2e       ??0?$basic_string@_WU?$char_traits@_W@std@@V?$allocator@_W@2@@std@@QAE@XZ 10036d2e f i libcpmt:wlocale.obj
 0001:00035d45       ??0?$codecvt@GDU_Mbstatet@@@std@@QAE@ABV_Locinfo@1@I@Z 10036d45 f i libcpmt:wlocale.obj
 0001:00035d89       ??0?$codecvt@_WDU_Mbstatet@@@std@@QAE@ABV_Locinfo@1@I@Z 10036d89 f i libcpmt:wlocale.obj
 0001:00035dcd       ??0?$collate@G@std@@QAE@ABV_Locinfo@1@I@Z 10036dcd f i libcpmt:wlocale.obj
 0001:00035dff       ??0?$collate@_W@std@@QAE@ABV_Locinfo@1@I@Z 10036dff f i libcpmt:wlocale.obj
 0001:00035e31       ??0?$ctype@G@std@@QAE@ABV_Locinfo@1@I@Z 10036e31 f i libcpmt:wlocale.obj
 0001:00035e5f       ??0?$ctype@_W@std@@QAE@ABV_Locinfo@1@I@Z 10036e5f f i libcpmt:wlocale.obj
 0001:00035e8d       ??0?$messages@G@std@@QAE@ABV_Locinfo@1@I@Z 10036e8d f i libcpmt:wlocale.obj
 0001:00035eac       ??0?$messages@_W@std@@QAE@ABV_Locinfo@1@I@Z 10036eac f i libcpmt:wlocale.obj
 0001:00035ecb       ??0?$money_get@GV?$istreambuf_iterator@GU?$char_traits@G@std@@@std@@@std@@QAE@ABV_Locinfo@1@I@Z 10036ecb f i libcpmt:wlocale.obj
 0001:00035eea       ??0?$money_get@_WV?$istreambuf_iterator@_WU?$char_traits@_W@std@@@std@@@std@@QAE@ABV_Locinfo@1@I@Z 10036eea f i libcpmt:wlocale.obj
 0001:00035f09       ??0?$money_put@GV?$ostreambuf_iterator@GU?$char_traits@G@std@@@std@@@std@@QAE@ABV_Locinfo@1@I@Z 10036f09 f i libcpmt:wlocale.obj
 0001:00035f28       ??0?$money_put@_WV?$ostreambuf_iterator@_WU?$char_traits@_W@std@@@std@@@std@@QAE@ABV_Locinfo@1@I@Z 10036f28 f i libcpmt:wlocale.obj
 0001:00035f47       ??0?$moneypunct@G$00@std@@QAE@ABV_Locinfo@1@I_N@Z 10036f47 f i libcpmt:wlocale.obj
 0001:00035f77       ??0?$moneypunct@G$0A@@std@@QAE@ABV_Locinfo@1@I_N@Z 10036f77 f i libcpmt:wlocale.obj
 0001:00035fa7       ??0?$moneypunct@_W$00@std@@QAE@ABV_Locinfo@1@I_N@Z 10036fa7 f i libcpmt:wlocale.obj
 0001:00035fd7       ??0?$moneypunct@_W$0A@@std@@QAE@ABV_Locinfo@1@I_N@Z 10036fd7 f i libcpmt:wlocale.obj
 0001:00036007       ??0?$num_get@GV?$istreambuf_iterator@GU?$char_traits@G@std@@@std@@@std@@QAE@ABV_Locinfo@1@I@Z 10037007 f i libcpmt:wlocale.obj
 0001:00036026       ??0?$num_get@_WV?$istreambuf_iterator@_WU?$char_traits@_W@std@@@std@@@std@@QAE@ABV_Locinfo@1@I@Z 10037026 f i libcpmt:wlocale.obj
 0001:00036045       ??0?$num_put@GV?$ostreambuf_iterator@GU?$char_traits@G@std@@@std@@@std@@QAE@ABV_Locinfo@1@I@Z 10037045 f i libcpmt:wlocale.obj
 0001:00036064       ??0?$num_put@_WV?$ostreambuf_iterator@_WU?$char_traits@_W@std@@@std@@@std@@QAE@ABV_Locinfo@1@I@Z 10037064 f i libcpmt:wlocale.obj
 0001:00036083       ??0?$numpunct@G@std@@QAE@ABV_Locinfo@1@I_N@Z 10037083 f i libcpmt:wlocale.obj
 0001:000360c6       ??0?$numpunct@_W@std@@QAE@ABV_Locinfo@1@I_N@Z 100370c6 f i libcpmt:wlocale.obj
 0001:00036109       ??0?$time_get@GV?$istreambuf_iterator@GU?$char_traits@G@std@@@std@@@std@@QAE@ABV_Locinfo@1@I@Z 10037109 f i libcpmt:wlocale.obj
 0001:00036148       ??0?$time_get@_WV?$istreambuf_iterator@_WU?$char_traits@_W@std@@@std@@@std@@QAE@ABV_Locinfo@1@I@Z 10037148 f i libcpmt:wlocale.obj
 0001:00036187       ??0?$time_put@GV?$ostreambuf_iterator@GU?$char_traits@G@std@@@std@@@std@@QAE@ABV_Locinfo@1@I@Z 10037187 f i libcpmt:wlocale.obj
 0001:000361c4       ??0?$time_put@_WV?$ostreambuf_iterator@_WU?$char_traits@_W@std@@@std@@@std@@QAE@ABV_Locinfo@1@I@Z 100371c4 f i libcpmt:wlocale.obj
 0001:00036201       ??0_Bxty@?$_String_val@U?$_Simple_types@G@std@@@std@@QAE@XZ 10037201 f i libcpmt:wlocale.obj
 0001:00036204       ??0_Timevec@std@@QAE@PAX@Z 10037204 f i libcpmt:wlocale.obj
 0001:00036215       ??0messages_base@std@@QAE@I@Z 10037215 f i libcpmt:wlocale.obj
 0001:00036234       ??0money_base@std@@QAE@I@Z 10037234 f i libcpmt:wlocale.obj
 0001:00036253       ??0time_base@std@@QAE@I@Z  10037253 f i libcpmt:wlocale.obj
 0001:00036272       ??1?$_Compressed_pair@V?$allocator@G@std@@V?$_String_val@U?$_Simple_types@G@std@@@2@$00@std@@QAE@XZ 10037272 f i libcpmt:wlocale.obj
 0001:00036273       ??1?$_Mpunct@G@std@@MAE@XZ 10037273 f i libcpmt:wlocale.obj
 0001:0003628e       ??1?$_Mpunct@_W@std@@MAE@XZ 1003728e f i libcpmt:wlocale.obj
 0001:000362a9       ??1?$_String_alloc@U?$_String_base_types@GV?$allocator@G@std@@@std@@@std@@QAE@XZ 100372a9 f i libcpmt:wlocale.obj
 0001:000362aa       ??1?$_String_val@U?$_Simple_types@G@std@@@std@@QAE@XZ 100372aa f i libcpmt:wlocale.obj
 0001:000362ab       ??1?$basic_string@GU?$char_traits@G@std@@V?$allocator@G@2@@std@@QAE@XZ 100372ab f i libcpmt:wlocale.obj
 0001:000362b0       ??1?$codecvt@GDU_Mbstatet@@@std@@MAE@XZ 100372b0 f i libcpmt:wlocale.obj
 0001:000362b7       ??1?$codecvt@_WDU_Mbstatet@@@std@@MAE@XZ 100372b7 f i libcpmt:wlocale.obj
 0001:000362be       ??1?$collate@G@std@@MAE@XZ 100372be f i libcpmt:wlocale.obj
 0001:000362de       ??1?$collate@_W@std@@MAE@XZ 100372de f i libcpmt:wlocale.obj
 0001:000362fe       ??1?$ctype@G@std@@MAE@XZ   100372fe f i libcpmt:wlocale.obj
 0001:00036331       ??1?$ctype@_W@std@@MAE@XZ  10037331 f i libcpmt:wlocale.obj
 0001:00036364       ??1?$messages@G@std@@MAE@XZ 10037364 f i libcpmt:wlocale.obj
 0001:0003636b       ??1?$messages@_W@std@@MAE@XZ 1003736b f i libcpmt:wlocale.obj
 0001:00036372       ??1?$money_get@GV?$istreambuf_iterator@GU?$char_traits@G@std@@@std@@@std@@MAE@XZ 10037372 f i libcpmt:wlocale.obj
 0001:00036379       ??1?$money_get@_WV?$istreambuf_iterator@_WU?$char_traits@_W@std@@@std@@@std@@MAE@XZ 10037379 f i libcpmt:wlocale.obj
 0001:00036380       ??1?$money_put@GV?$ostreambuf_iterator@GU?$char_traits@G@std@@@std@@@std@@MAE@XZ 10037380 f i libcpmt:wlocale.obj
 0001:00036387       ??1?$money_put@_WV?$ostreambuf_iterator@_WU?$char_traits@_W@std@@@std@@@std@@MAE@XZ 10037387 f i libcpmt:wlocale.obj
 0001:0003638e       ??1?$moneypunct@G$00@std@@MAE@XZ 1003738e f i libcpmt:wlocale.obj
 0001:000363a9       ??1?$moneypunct@G$0A@@std@@MAE@XZ 100373a9 f i libcpmt:wlocale.obj
 0001:000363c4       ??1?$moneypunct@_W$00@std@@MAE@XZ 100373c4 f i libcpmt:wlocale.obj
 0001:000363df       ??1?$moneypunct@_W$0A@@std@@MAE@XZ 100373df f i libcpmt:wlocale.obj
 0001:000363fa       ??1?$num_get@GV?$istreambuf_iterator@GU?$char_traits@G@std@@@std@@@std@@MAE@XZ 100373fa f i libcpmt:wlocale.obj
 0001:00036401       ??1?$num_get@_WV?$istreambuf_iterator@_WU?$char_traits@_W@std@@@std@@@std@@MAE@XZ 10037401 f i libcpmt:wlocale.obj
 0001:00036408       ??1?$num_put@GV?$ostreambuf_iterator@GU?$char_traits@G@std@@@std@@@std@@MAE@XZ 10037408 f i libcpmt:wlocale.obj
 0001:0003640f       ??1?$num_put@_WV?$ostreambuf_iterator@_WU?$char_traits@_W@std@@@std@@@std@@MAE@XZ 1003740f f i libcpmt:wlocale.obj
 0001:00036416       ??1?$numpunct@G@std@@MAE@XZ 10037416 f i libcpmt:wlocale.obj
 0001:00036431       ??1?$numpunct@_W@std@@MAE@XZ 10037431 f i libcpmt:wlocale.obj
 0001:0003644c       ??1?$time_get@GV?$istreambuf_iterator@GU?$char_traits@G@std@@@std@@@std@@MAE@XZ 1003744c f i libcpmt:wlocale.obj
 0001:00036467       ??1?$time_get@_WV?$istreambuf_iterator@_WU?$char_traits@_W@std@@@std@@@std@@MAE@XZ 10037467 f i libcpmt:wlocale.obj
 0001:00036482       ??1?$time_put@GV?$ostreambuf_iterator@GU?$char_traits@G@std@@@std@@@std@@MAE@XZ 10037482 f i libcpmt:wlocale.obj
 0001:000364a2       ??1?$time_put@_WV?$ostreambuf_iterator@_WU?$char_traits@_W@std@@@std@@@std@@MAE@XZ 100374a2 f i libcpmt:wlocale.obj
 0001:000364c2       ??1_Bxty@?$_String_val@U?$_Simple_types@G@std@@@std@@QAE@XZ 100374c2 f i libcpmt:wlocale.obj
 0001:000364c3       ??1_Timevec@std@@QAE@XZ    100374c3 f i libcpmt:wlocale.obj
 0001:000364ce       ??1messages_base@std@@UAE@XZ 100374ce f i libcpmt:wlocale.obj
 0001:000364d5       ??1money_base@std@@UAE@XZ  100374d5 f i libcpmt:wlocale.obj
 0001:000364dc       ??1time_base@std@@UAE@XZ   100374dc f i libcpmt:wlocale.obj
 0001:000364e3       ??4?$_Yarn@_W@std@@QAEAAV01@PB_W@Z 100374e3 f i libcpmt:wlocale.obj
 0001:00036556       ??4?$basic_string@GU?$char_traits@G@std@@V?$allocator@G@2@@std@@QAEAAV01@$$QAV01@@Z 10037556 f i libcpmt:wlocale.obj
 0001:0003659a       ??4?$basic_string@_WU?$char_traits@_W@std@@V?$allocator@_W@2@@std@@QAEAAV01@$$QAV01@@Z 1003759a f i libcpmt:wlocale.obj
 0001:000365de       ??4?$ostreambuf_iterator@GU?$char_traits@G@std@@@std@@QAEAAV01@G@Z 100375de f i libcpmt:wlocale.obj
 0001:00036611       ??4?$ostreambuf_iterator@_WU?$char_traits@_W@std@@@std@@QAEAAV01@_W@Z 10037611 f i libcpmt:wlocale.obj
 0001:00036644       ??4_Timevec@std@@QAEAAV01@ABV01@@Z 10037644 f i libcpmt:wlocale.obj
 0001:0003665b       ??8?$_String_const_iterator@V?$_String_val@U?$_Simple_types@G@std@@@std@@@std@@QBE_NABV01@@Z 1003765b f i libcpmt:wlocale.obj
 0001:00036670       ??8?$_String_const_iterator@V?$_String_val@U?$_Simple_types@_W@std@@@std@@@std@@QBE_NABV01@@Z 10037670 f i libcpmt:wlocale.obj
 0001:00036685       ??9?$_String_const_iterator@V?$_String_val@U?$_Simple_types@G@std@@@std@@@std@@QBE_NABV01@@Z 10037685 f i libcpmt:wlocale.obj
 0001:0003669a       ??9?$_String_const_iterator@V?$_String_val@U?$_Simple_types@_W@std@@@std@@@std@@QBE_NABV01@@Z 1003769a f i libcpmt:wlocale.obj
 0001:000366af       ??A?$basic_string@GU?$char_traits@G@std@@V?$allocator@G@2@@std@@QAEAAGI@Z 100376af f i libcpmt:wlocale.obj
 0001:000366c9       ??A?$basic_string@GU?$char_traits@G@std@@V?$allocator@G@2@@std@@QBEABGI@Z 100376c9 f i libcpmt:wlocale.obj
 0001:000366e3       ??A?$basic_string@_WU?$char_traits@_W@std@@V?$allocator@_W@2@@std@@QBEAB_WI@Z 100376e3 f i libcpmt:wlocale.obj
 0001:000366fd       ??D?$_String_const_iterator@V?$_String_val@U?$_Simple_types@G@std@@@std@@@std@@QBEABGXZ 100376fd f i libcpmt:wlocale.obj
 0001:00036700       ??D?$_String_const_iterator@V?$_String_val@U?$_Simple_types@_W@std@@@std@@@std@@QBEAB_WXZ 10037700 f i libcpmt:wlocale.obj
 0001:00036703       ??D?$_String_iterator@V?$_String_val@U?$_Simple_types@G@std@@@std@@@std@@QBEAAGXZ 10037703 f i libcpmt:wlocale.obj
 0001:00036706       ??D?$_String_iterator@V?$_String_val@U?$_Simple_types@_W@std@@@std@@@std@@QBEAA_WXZ 10037706 f i libcpmt:wlocale.obj
 0001:00036709       ??D?$istreambuf_iterator@GU?$char_traits@G@std@@@std@@QBEGXZ 10037709 f i libcpmt:wlocale.obj
 0001:00036722       ??D?$istreambuf_iterator@_WU?$char_traits@_W@std@@@std@@QBE_WXZ 10037722 f i libcpmt:wlocale.obj
 0001:0003673b       ??D?$ostreambuf_iterator@GU?$char_traits@G@std@@@std@@QAEAAV01@XZ 1003773b f i libcpmt:wlocale.obj
 0001:0003673e       ??D?$ostreambuf_iterator@_WU?$char_traits@_W@std@@@std@@QAEAAV01@XZ 1003773e f i libcpmt:wlocale.obj
 0001:00036741       ??E?$_String_const_iterator@V?$_String_val@U?$_Simple_types@G@std@@@std@@@std@@QAEAAV01@XZ 10037741 f i libcpmt:wlocale.obj
 0001:00036747       ??E?$_String_const_iterator@V?$_String_val@U?$_Simple_types@_W@std@@@std@@@std@@QAEAAV01@XZ 10037747 f i libcpmt:wlocale.obj
 0001:0003674d       ??E?$_String_iterator@V?$_String_val@U?$_Simple_types@G@std@@@std@@@std@@QAEAAV01@XZ 1003774d f i libcpmt:wlocale.obj
 0001:00036753       ??E?$_String_iterator@V?$_String_val@U?$_Simple_types@_W@std@@@std@@@std@@QAEAAV01@XZ 10037753 f i libcpmt:wlocale.obj
 0001:00036759       ??E?$istreambuf_iterator@GU?$char_traits@G@std@@@std@@QAEAAV01@XZ 10037759 f i libcpmt:wlocale.obj
 0001:00036768       ??E?$istreambuf_iterator@_WU?$char_traits@_W@std@@@std@@QAEAAV01@XZ 10037768 f i libcpmt:wlocale.obj
 0001:00036777       ??E?$ostreambuf_iterator@GU?$char_traits@G@std@@@std@@QAEAAV01@H@Z 10037777 f i libcpmt:wlocale.obj
 0001:0003677c       ??E?$ostreambuf_iterator@GU?$char_traits@G@std@@@std@@QAEAAV01@XZ 1003777c f i libcpmt:wlocale.obj
 0001:0003677f       ??E?$ostreambuf_iterator@_WU?$char_traits@_W@std@@@std@@QAEAAV01@H@Z 1003777f f i libcpmt:wlocale.obj
 0001:00036784       ??E?$ostreambuf_iterator@_WU?$char_traits@_W@std@@@std@@QAEAAV01@XZ 10037784 f i libcpmt:wlocale.obj
 0001:00036787       ??G?$_String_iterator@V?$_String_val@U?$_Simple_types@G@std@@@std@@@std@@QBE?AV01@H@Z 10037787 f i libcpmt:wlocale.obj
 0001:000367a1       ??G?$_String_iterator@V?$_String_val@U?$_Simple_types@_W@std@@@std@@@std@@QBE?AV01@H@Z 100377a1 f i libcpmt:wlocale.obj
 0001:000367bb       ??H?$_String_iterator@V?$_String_val@U?$_Simple_types@G@std@@@std@@@std@@QBE?AV01@H@Z 100377bb f i libcpmt:wlocale.obj
 0001:000367d4       ??H?$_String_iterator@V?$_String_val@U?$_Simple_types@_W@std@@@std@@@std@@QBE?AV01@H@Z 100377d4 f i libcpmt:wlocale.obj
 0001:00036c51       ??Y?$_String_const_iterator@V?$_String_val@U?$_Simple_types@G@std@@@std@@@std@@QAEAAV01@H@Z 10037c51 f i libcpmt:wlocale.obj
 0001:00036c65       ??Y?$_String_const_iterator@V?$_String_val@U?$_Simple_types@_W@std@@@std@@@std@@QAEAAV01@H@Z 10037c65 f i libcpmt:wlocale.obj
 0001:00036c79       ??Y?$_String_iterator@V?$_String_val@U?$_Simple_types@G@std@@@std@@@std@@QAEAAV01@H@Z 10037c79 f i libcpmt:wlocale.obj
 0001:00036c8d       ??Y?$_String_iterator@V?$_String_val@U?$_Simple_types@_W@std@@@std@@@std@@QAEAAV01@H@Z 10037c8d f i libcpmt:wlocale.obj
 0001:00036ca1       ??Y?$basic_string@DU?$char_traits@D@std@@V?$allocator@D@2@@std@@QAEAAV01@D@Z 10037ca1 f i libcpmt:wlocale.obj
 0001:00036cbb       ??Y?$basic_string@GU?$char_traits@G@std@@V?$allocator@G@2@@std@@QAEAAV01@ABV01@@Z 10037cbb f i libcpmt:wlocale.obj
 0001:00036cc6       ??Y?$basic_string@_WU?$char_traits@_W@std@@V?$allocator@_W@2@@std@@QAEAAV01@ABV01@@Z 10037cc6 f i libcpmt:wlocale.obj
 0001:00036cd1       ??Z?$_String_iterator@V?$_String_val@U?$_Simple_types@G@std@@@std@@@std@@QAEAAV01@H@Z 10037cd1 f i libcpmt:wlocale.obj
 0001:00036ce7       ??Z?$_String_iterator@V?$_String_val@U?$_Simple_types@_W@std@@@std@@@std@@QAEAAV01@H@Z 10037ce7 f i libcpmt:wlocale.obj
 0001:00036cfd       ??_E?$_Mpunct@G@std@@MAEPAXI@Z 10037cfd f i libcpmt:wlocale.obj
 0001:00036cfd       ??_G?$_Mpunct@G@std@@MAEPAXI@Z 10037cfd f i libcpmt:wlocale.obj
 0001:00036d36       ??_G?$_Mpunct@_W@std@@MAEPAXI@Z 10037d36 f i libcpmt:wlocale.obj
 0001:00036d36       ??_E?$_Mpunct@_W@std@@MAEPAXI@Z 10037d36 f i libcpmt:wlocale.obj
 0001:00036d6f       ??_G?$codecvt@GDU_Mbstatet@@@std@@MAEPAXI@Z 10037d6f f i libcpmt:wlocale.obj
 0001:00036d6f       ??_E?$codecvt@GDU_Mbstatet@@@std@@MAEPAXI@Z 10037d6f f i libcpmt:wlocale.obj
 0001:00036d9a       ??_E?$codecvt@_WDU_Mbstatet@@@std@@MAEPAXI@Z 10037d9a f i libcpmt:wlocale.obj
 0001:00036d9a       ??_G?$codecvt@_WDU_Mbstatet@@@std@@MAEPAXI@Z 10037d9a f i libcpmt:wlocale.obj
 0001:00036dc5       ??_G?$collate@G@std@@MAEPAXI@Z 10037dc5 f i libcpmt:wlocale.obj
 0001:00036dc5       ??_E?$collate@G@std@@MAEPAXI@Z 10037dc5 f i libcpmt:wlocale.obj
 0001:00036def       ??_E?$collate@_W@std@@MAEPAXI@Z 10037def f i libcpmt:wlocale.obj
 0001:00036def       ??_G?$collate@_W@std@@MAEPAXI@Z 10037def f i libcpmt:wlocale.obj
 0001:00036e19       ??_G?$ctype@G@std@@MAEPAXI@Z 10037e19 f i libcpmt:wlocale.obj
 0001:00036e19       ??_E?$ctype@G@std@@MAEPAXI@Z 10037e19 f i libcpmt:wlocale.obj
 0001:00036e43       ??_G?$ctype@_W@std@@MAEPAXI@Z 10037e43 f i libcpmt:wlocale.obj
 0001:00036e43       ??_E?$ctype@_W@std@@MAEPAXI@Z 10037e43 f i libcpmt:wlocale.obj
 0001:00036e6d       ??_E?$messages@G@std@@MAEPAXI@Z 10037e6d f i libcpmt:wlocale.obj
 0001:00036e6d       ??_G?$messages@G@std@@MAEPAXI@Z 10037e6d f i libcpmt:wlocale.obj
 0001:00036e98       ??_E?$messages@_W@std@@MAEPAXI@Z 10037e98 f i libcpmt:wlocale.obj
 0001:00036e98       ??_G?$messages@_W@std@@MAEPAXI@Z 10037e98 f i libcpmt:wlocale.obj
 0001:00036ec3       ??_G?$money_get@GV?$istreambuf_iterator@GU?$char_traits@G@std@@@std@@@std@@MAEPAXI@Z 10037ec3 f i libcpmt:wlocale.obj
 0001:00036ec3       ??_E?$money_get@GV?$istreambuf_iterator@GU?$char_traits@G@std@@@std@@@std@@MAEPAXI@Z 10037ec3 f i libcpmt:wlocale.obj
 0001:00036eee       ??_G?$money_get@_WV?$istreambuf_iterator@_WU?$char_traits@_W@std@@@std@@@std@@MAEPAXI@Z 10037eee f i libcpmt:wlocale.obj
 0001:00036eee       ??_E?$money_get@_WV?$istreambuf_iterator@_WU?$char_traits@_W@std@@@std@@@std@@MAEPAXI@Z 10037eee f i libcpmt:wlocale.obj
 0001:00036f19       ??_E?$money_put@GV?$ostreambuf_iterator@GU?$char_traits@G@std@@@std@@@std@@MAEPAXI@Z 10037f19 f i libcpmt:wlocale.obj
 0001:00036f19       ??_G?$money_put@GV?$ostreambuf_iterator@GU?$char_traits@G@std@@@std@@@std@@MAEPAXI@Z 10037f19 f i libcpmt:wlocale.obj
 0001:00036f44       ??_E?$money_put@_WV?$ostreambuf_iterator@_WU?$char_traits@_W@std@@@std@@@std@@MAEPAXI@Z 10037f44 f i libcpmt:wlocale.obj
 0001:00036f44       ??_G?$money_put@_WV?$ostreambuf_iterator@_WU?$char_traits@_W@std@@@std@@@std@@MAEPAXI@Z 10037f44 f i libcpmt:wlocale.obj
 0001:00036f6f       ??_G?$moneypunct@G$00@std@@MAEPAXI@Z 10037f6f f i libcpmt:wlocale.obj
 0001:00036f6f       ??_E?$moneypunct@G$00@std@@MAEPAXI@Z 10037f6f f i libcpmt:wlocale.obj
 0001:00036fa8       ??_E?$moneypunct@G$0A@@std@@MAEPAXI@Z 10037fa8 f i libcpmt:wlocale.obj
 0001:00036fa8       ??_G?$moneypunct@G$0A@@std@@MAEPAXI@Z 10037fa8 f i libcpmt:wlocale.obj
 0001:00036fe1       ??_G?$moneypunct@_W$00@std@@MAEPAXI@Z 10037fe1 f i libcpmt:wlocale.obj
 0001:00036fe1       ??_E?$moneypunct@_W$00@std@@MAEPAXI@Z 10037fe1 f i libcpmt:wlocale.obj
 0001:0003701a       ??_E?$moneypunct@_W$0A@@std@@MAEPAXI@Z 1003801a f i libcpmt:wlocale.obj
 0001:0003701a       ??_G?$moneypunct@_W$0A@@std@@MAEPAXI@Z 1003801a f i libcpmt:wlocale.obj
 0001:00037053       ??_G?$num_get@GV?$istreambuf_iterator@GU?$char_traits@G@std@@@std@@@std@@MAEPAXI@Z 10038053 f i libcpmt:wlocale.obj
 0001:00037053       ??_E?$num_get@GV?$istreambuf_iterator@GU?$char_traits@G@std@@@std@@@std@@MAEPAXI@Z 10038053 f i libcpmt:wlocale.obj
 0001:0003707e       ??_G?$num_get@_WV?$istreambuf_iterator@_WU?$char_traits@_W@std@@@std@@@std@@MAEPAXI@Z 1003807e f i libcpmt:wlocale.obj
 0001:0003707e       ??_E?$num_get@_WV?$istreambuf_iterator@_WU?$char_traits@_W@std@@@std@@@std@@MAEPAXI@Z 1003807e f i libcpmt:wlocale.obj
 0001:000370a9       ??_G?$num_put@GV?$ostreambuf_iterator@GU?$char_traits@G@std@@@std@@@std@@MAEPAXI@Z 100380a9 f i libcpmt:wlocale.obj
 0001:000370a9       ??_E?$num_put@GV?$ostreambuf_iterator@GU?$char_traits@G@std@@@std@@@std@@MAEPAXI@Z 100380a9 f i libcpmt:wlocale.obj
 0001:000370d4       ??_G?$num_put@_WV?$ostreambuf_iterator@_WU?$char_traits@_W@std@@@std@@@std@@MAEPAXI@Z 100380d4 f i libcpmt:wlocale.obj
 0001:000370d4       ??_E?$num_put@_WV?$ostreambuf_iterator@_WU?$char_traits@_W@std@@@std@@@std@@MAEPAXI@Z 100380d4 f i libcpmt:wlocale.obj
 0001:000370ff       ??_G?$numpunct@G@std@@MAEPAXI@Z 100380ff f i libcpmt:wlocale.obj
 0001:000370ff       ??_E?$numpunct@G@std@@MAEPAXI@Z 100380ff f i libcpmt:wlocale.obj
 0001:00037138       ??_E?$numpunct@_W@std@@MAEPAXI@Z 10038138 f i libcpmt:wlocale.obj
 0001:00037138       ??_G?$numpunct@_W@std@@MAEPAXI@Z 10038138 f i libcpmt:wlocale.obj
 0001:00037171       ??_G?$time_get@GV?$istreambuf_iterator@GU?$char_traits@G@std@@@std@@@std@@MAEPAXI@Z 10038171 f i libcpmt:wlocale.obj
 0001:00037171       ??_E?$time_get@GV?$istreambuf_iterator@GU?$char_traits@G@std@@@std@@@std@@MAEPAXI@Z 10038171 f i libcpmt:wlocale.obj
 0001:000371aa       ??_G?$time_get@_WV?$istreambuf_iterator@_WU?$char_traits@_W@std@@@std@@@std@@MAEPAXI@Z 100381aa f i libcpmt:wlocale.obj
 0001:000371aa       ??_E?$time_get@_WV?$istreambuf_iterator@_WU?$char_traits@_W@std@@@std@@@std@@MAEPAXI@Z 100381aa f i libcpmt:wlocale.obj
 0001:000371e3       ??_G?$time_put@GV?$ostreambuf_iterator@GU?$char_traits@G@std@@@std@@@std@@MAEPAXI@Z 100381e3 f i libcpmt:wlocale.obj
 0001:000371e3       ??_E?$time_put@GV?$ostreambuf_iterator@GU?$char_traits@G@std@@@std@@@std@@MAEPAXI@Z 100381e3 f i libcpmt:wlocale.obj
 0001:0003720d       ??_G?$time_put@_WV?$ostreambuf_iterator@_WU?$char_traits@_W@std@@@std@@@std@@MAEPAXI@Z 1003820d f i libcpmt:wlocale.obj
 0001:0003720d       ??_E?$time_put@_WV?$ostreambuf_iterator@_WU?$char_traits@_W@std@@@std@@@std@@MAEPAXI@Z 1003820d f i libcpmt:wlocale.obj
 0001:00037237       ??_Gmessages_base@std@@UAEPAXI@Z 10038237 f i libcpmt:wlocale.obj
 0001:00037237       ??_Emessages_base@std@@UAEPAXI@Z 10038237 f i libcpmt:wlocale.obj
 0001:00037262       ??_Gmoney_base@std@@UAEPAXI@Z 10038262 f i libcpmt:wlocale.obj
 0001:00037262       ??_Emoney_base@std@@UAEPAXI@Z 10038262 f i libcpmt:wlocale.obj
 0001:0003728d       ??_Gtime_base@std@@UAEPAXI@Z 1003828d f i libcpmt:wlocale.obj
 0001:0003728d       ??_Etime_base@std@@UAEPAXI@Z 1003828d f i libcpmt:wlocale.obj
 0001:000372b8       ?_Adopt@_Iterator_base0@std@@QAEXPBX@Z 100382b8 f i libcpmt:wlocale.obj
 0001:000372bb       ?_Assign_rv_contents@?$basic_string@GU?$char_traits@G@std@@V?$allocator@G@2@@std@@QAEX$$QAV12@U?$integral_constant@_N$00@2@@Z 100382bb f i libcpmt:wlocale.obj
 0001:000372eb       ?_Assign_rv_contents@?$basic_string@_WU?$char_traits@_W@std@@V?$allocator@_W@2@@std@@QAEX$$QAV12@U?$integral_constant@_N$00@2@@Z 100382eb f i libcpmt:wlocale.obj
 0001:0003731b       ?_Assign_rv_contents_with_alloc_always_equal@?$basic_string@GU?$char_traits@G@std@@V?$allocator@G@2@@std@@QAEX$$QAV12@U?$integral_constant@_N$00@2@@Z 1003831b f i libcpmt:wlocale.obj
 0001:0003734b       ?_Assign_rv_contents_with_alloc_always_equal@?$basic_string@_WU?$char_traits@_W@std@@V?$allocator@_W@2@@std@@QAEX$$QAV12@U?$integral_constant@_N$00@2@@Z 1003834b f i libcpmt:wlocale.obj
 0001:0003737b       ?_C_str@?$_Yarn@_W@std@@QBEPB_WXZ 1003837b f i libcpmt:wlocale.obj
 0001:00037387       ?_Calculate_growth@?$basic_string@GU?$char_traits@G@std@@V?$allocator@G@2@@std@@QBEII@Z 10038387 f i libcpmt:wlocale.obj
 0001:000373ca       ?_Check_offset@?$_String_val@U?$_Simple_types@G@std@@@std@@QBEXI@Z 100383ca f i libcpmt:wlocale.obj
 0001:000373e4       ?_Check_offset@?$_String_val@U?$_Simple_types@_W@std@@@std@@QBEXI@Z 100383e4 f i libcpmt:wlocale.obj
 0001:000373fe       ?_Compat@?$_String_const_iterator@V?$_String_val@U?$_Simple_types@G@std@@@std@@@std@@QBEXABV12@@Z 100383fe f i libcpmt:wlocale.obj
 0001:00037401       ?_Compat@?$_String_const_iterator@V?$_String_val@U?$_Simple_types@_W@std@@@std@@@std@@QBEXABV12@@Z 10038401 f i libcpmt:wlocale.obj
 0001:00037404       ?_Construct_lv_contents@?$basic_string@GU?$char_traits@G@std@@V?$allocator@G@2@@std@@QAEXABV12@@Z 10038404 f i libcpmt:wlocale.obj
 0001:00037488       ?_Construct_lv_contents@?$basic_string@_WU?$char_traits@_W@std@@V?$allocator@_W@2@@std@@QAEXABV12@@Z 10038488 f i libcpmt:wlocale.obj
 0001:0003750c       ?_Donarrow@?$ctype@G@std@@IBEDGD@Z 1003850c f i libcpmt:wlocale.obj
 0001:00037566       ?_Donarrow@?$ctype@_W@std@@IBED_WD@Z 10038566 f i libcpmt:wlocale.obj
 0001:000375c0       ?_Dowiden@?$ctype@G@std@@IBEGD@Z 100385c0 f i libcpmt:wlocale.obj
 0001:00037607       ?_Dowiden@?$ctype@_W@std@@IBE_WD@Z 10038607 f i libcpmt:wlocale.obj
 0001:0003764e       ?_Empty@?$_Yarn@_W@std@@QBE_NXZ 1003864e f i libcpmt:wlocale.obj
 0001:00037655       ?_Eos@?$basic_string@GU?$char_traits@G@std@@V?$allocator@G@2@@std@@QAEXI@Z 10038655 f i libcpmt:wlocale.obj
 0001:00037679       ?_Eos@?$basic_string@_WU?$char_traits@_W@std@@V?$allocator@_W@2@@std@@QAEXI@Z 10038679 f i libcpmt:wlocale.obj
 0001:0003769d       ?_Ffmt@?$num_put@GV?$ostreambuf_iterator@GU?$char_traits@G@std@@@std@@@std@@ABAPADPADDH@Z 1003869d f i libcpmt:wlocale.obj
 0001:00037757       ?_Ffmt@?$num_put@_WV?$ostreambuf_iterator@_WU?$char_traits@_W@std@@@std@@@std@@ABAPADPADDH@Z 10038757 f i libcpmt:wlocale.obj
 0001:00037811       ?_Fnv1a_append_bytes@std@@YAIIQBEI@Z 10038811 f i libcpmt:wlocale.obj
 0001:00037843       ?_Fput@?$num_put@GV?$ostreambuf_iterator@GU?$char_traits@G@std@@@std@@@std@@ABA?AV?$ostreambuf_iterator@GU?$char_traits@G@std@@@2@V32@AAVios_base@2@GPBDI@Z 10038843 f i libcpmt:wlocale.obj
 0001:00037c14       ?_Fput@?$num_put@_WV?$ostreambuf_iterator@_WU?$char_traits@_W@std@@@std@@@std@@ABA?AV?$ostreambuf_iterator@_WU?$char_traits@_W@std@@@2@V32@AAVios_base@2@_WPBDI@Z 10038c14 f i libcpmt:wlocale.obj
 0001:00037fe5       ?_Get_data@?$_String_alloc@U?$_String_base_types@GV?$allocator@G@std@@@std@@@std@@QAEAAV?$_String_val@U?$_Simple_types@G@std@@@2@XZ 10038fe5 f i libcpmt:wlocale.obj
 0001:00037fe8       ?_Get_data@?$_String_alloc@U?$_String_base_types@GV?$allocator@G@std@@@std@@@std@@QBEABV?$_String_val@U?$_Simple_types@G@std@@@2@XZ 10038fe8 f i libcpmt:wlocale.obj
 0001:00037feb       ?_Get_first@?$_Compressed_pair@V?$allocator@G@std@@V?$_String_val@U?$_Simple_types@G@std@@@2@$00@std@@QAEAAV?$allocator@G@2@XZ 10038feb f i libcpmt:wlocale.obj
 0001:00037fee       ?_Get_first@?$_Compressed_pair@V?$allocator@G@std@@V?$_String_val@U?$_Simple_types@G@std@@@2@$00@std@@QBEABV?$allocator@G@2@XZ 10038fee f i libcpmt:wlocale.obj
 0001:00037ff1       ?_Get_second@?$_Compressed_pair@V?$allocator@G@std@@V?$_String_val@U?$_Simple_types@G@std@@@2@$00@std@@QAEAAV?$_String_val@U?$_Simple_types@G@std@@@2@XZ 10038ff1 f i libcpmt:wlocale.obj
 0001:00037ff4       ?_Get_second@?$_Compressed_pair@V?$allocator@G@std@@V?$_String_val@U?$_Simple_types@G@std@@@2@$00@std@@QBEABV?$_String_val@U?$_Simple_types@G@std@@@2@XZ 10038ff4 f i libcpmt:wlocale.obj
 0001:00037ff7       ?_Getal@?$_String_alloc@U?$_String_base_types@GV?$allocator@G@std@@@std@@@std@@QAEAAV?$allocator@G@2@XZ 10038ff7 f i libcpmt:wlocale.obj
 0001:00037ffa       ?_Getal@?$_String_alloc@U?$_String_base_types@GV?$allocator@G@std@@@std@@@std@@QBEABV?$allocator@G@2@XZ 10038ffa f i libcpmt:wlocale.obj
 0001:00037ffd       ?_Getcat@?$codecvt@GDU_Mbstatet@@@std@@SAIPAPBVfacet@locale@2@PBV42@@Z 10038ffd f i libcpmt:wlocale.obj
 0001:0003807c       ?_Getcat@?$codecvt@_WDU_Mbstatet@@@std@@SAIPAPBVfacet@locale@2@PBV42@@Z 1003907c f i libcpmt:wlocale.obj
 0001:000380fb       ?_Getcat@?$collate@G@std@@SAIPAPBVfacet@locale@2@PBV42@@Z 100390fb f i libcpmt:wlocale.obj
 0001:000381c5       ?_Getcat@?$collate@_W@std@@SAIPAPBVfacet@locale@2@PBV42@@Z 100391c5 f i libcpmt:wlocale.obj
 0001:0003828f       ?_Getcat@?$ctype@G@std@@SAIPAPBVfacet@locale@2@PBV42@@Z 1003928f f i libcpmt:wlocale.obj
 0001:0003831b       ?_Getcat@?$ctype@_W@std@@SAIPAPBVfacet@locale@2@PBV42@@Z 1003931b f i libcpmt:wlocale.obj
 0001:000383a7       ?_Getcat@?$messages@G@std@@SAIPAPBVfacet@locale@2@PBV42@@Z 100393a7 f i libcpmt:wlocale.obj
 0001:00038429       ?_Getcat@?$messages@_W@std@@SAIPAPBVfacet@locale@2@PBV42@@Z 10039429 f i libcpmt:wlocale.obj
 0001:000384ab       ?_Getcat@?$money_get@GV?$istreambuf_iterator@GU?$char_traits@G@std@@@std@@@std@@SAIPAPBVfacet@locale@2@PBV42@@Z 100394ab f i libcpmt:wlocale.obj
 0001:0003852d       ?_Getcat@?$money_get@_WV?$istreambuf_iterator@_WU?$char_traits@_W@std@@@std@@@std@@SAIPAPBVfacet@locale@2@PBV42@@Z 1003952d f i libcpmt:wlocale.obj
 0001:000385af       ?_Getcat@?$money_put@GV?$ostreambuf_iterator@GU?$char_traits@G@std@@@std@@@std@@SAIPAPBVfacet@locale@2@PBV42@@Z 100395af f i libcpmt:wlocale.obj
 0001:00038631       ?_Getcat@?$money_put@_WV?$ostreambuf_iterator@_WU?$char_traits@_W@std@@@std@@@std@@SAIPAPBVfacet@locale@2@PBV42@@Z 10039631 f i libcpmt:wlocale.obj
 0001:000386b3       ?_Getcat@?$moneypunct@G$00@std@@SAIPAPBVfacet@locale@2@PBV42@@Z 100396b3 f i libcpmt:wlocale.obj
 0001:00038758       ?_Getcat@?$moneypunct@G$0A@@std@@SAIPAPBVfacet@locale@2@PBV42@@Z 10039758 f i libcpmt:wlocale.obj
 0001:000387fe       ?_Getcat@?$moneypunct@_W$00@std@@SAIPAPBVfacet@locale@2@PBV42@@Z 100397fe f i libcpmt:wlocale.obj
 0001:000388a3       ?_Getcat@?$moneypunct@_W$0A@@std@@SAIPAPBVfacet@locale@2@PBV42@@Z 100398a3 f i libcpmt:wlocale.obj
 0001:00038949       ?_Getcat@?$num_get@GV?$istreambuf_iterator@GU?$char_traits@G@std@@@std@@@std@@SAIPAPBVfacet@locale@2@PBV42@@Z 10039949 f i libcpmt:wlocale.obj
 0001:000389cb       ?_Getcat@?$num_get@_WV?$istreambuf_iterator@_WU?$char_traits@_W@std@@@std@@@std@@SAIPAPBVfacet@locale@2@PBV42@@Z 100399cb f i libcpmt:wlocale.obj
 0001:00038a4d       ?_Getcat@?$num_put@GV?$ostreambuf_iterator@GU?$char_traits@G@std@@@std@@@std@@SAIPAPBVfacet@locale@2@PBV42@@Z 10039a4d f i libcpmt:wlocale.obj
 0001:00038acf       ?_Getcat@?$num_put@_WV?$ostreambuf_iterator@_WU?$char_traits@_W@std@@@std@@@std@@SAIPAPBVfacet@locale@2@PBV42@@Z 10039acf f i libcpmt:wlocale.obj
 0001:00038b51       ?_Getcat@?$numpunct@G@std@@SAIPAPBVfacet@locale@2@PBV42@@Z 10039b51 f i libcpmt:wlocale.obj
 0001:00038bea       ?_Getcat@?$numpunct@_W@std@@SAIPAPBVfacet@locale@2@PBV42@@Z 10039bea f i libcpmt:wlocale.obj
 0001:00038c83       ?_Getcat@?$time_get@GV?$istreambuf_iterator@GU?$char_traits@G@std@@@std@@@std@@SAIPAPBVfacet@locale@2@PBV42@@Z 10039c83 f i libcpmt:wlocale.obj
 0001:00038d0a       ?_Getcat@?$time_get@_WV?$istreambuf_iterator@_WU?$char_traits@_W@std@@@std@@@std@@SAIPAPBVfacet@locale@2@PBV42@@Z 10039d0a f i libcpmt:wlocale.obj
 0001:00038d91       ?_Getcat@?$time_put@GV?$ostreambuf_iterator@GU?$char_traits@G@std@@@std@@@std@@SAIPAPBVfacet@locale@2@PBV42@@Z 10039d91 f i libcpmt:wlocale.obj
 0001:00038e10       ?_Getcat@?$time_put@_WV?$ostreambuf_iterator@_WU?$char_traits@_W@std@@@std@@@std@@SAIPAPBVfacet@locale@2@PBV42@@Z 10039e10 f i libcpmt:wlocale.obj
 0001:00038e8f       ?_Getcoll@_Locinfo@std@@QBE?AU_Collvec@@XZ 10039e8f f i libcpmt:wlocale.obj
 0001:00038eaa       ?_Getdateorder@_Locinfo@std@@QBEHXZ 10039eaa f i libcpmt:wlocale.obj
 0001:00038eaf       ?_Getdays@_Locinfo@std@@QBEPBDXZ 10039eaf f i libcpmt:wlocale.obj
 0001:00038ee8       ?_Getffld@?$num_get@GV?$istreambuf_iterator@GU?$char_traits@G@std@@@std@@@std@@ABAHPADAAV?$istreambuf_iterator@GU?$char_traits@G@std@@@2@1AAVios_base@2@PAH@Z 10039ee8 f i libcpmt:wlocale.obj
 0001:00039778       ?_Getffld@?$num_get@_WV?$istreambuf_iterator@_WU?$char_traits@_W@std@@@std@@@std@@ABAHPADAAV?$istreambuf_iterator@_WU?$char_traits@_W@std@@@2@1AAVios_base@2@PAH@Z 1003a778 f i libcpmt:wlocale.obj
 0001:0003a008       ?_Getffldx@?$num_get@GV?$istreambuf_iterator@GU?$char_traits@G@std@@@std@@@std@@ABAHPADAAV?$istreambuf_iterator@GU?$char_traits@G@std@@@2@1AAVios_base@2@PAH@Z 1003b008 f i libcpmt:wlocale.obj
 0001:0003a943       ?_Getffldx@?$num_get@_WV?$istreambuf_iterator@_WU?$char_traits@_W@std@@@std@@@std@@ABAHPADAAV?$istreambuf_iterator@_WU?$char_traits@_W@std@@@2@1AAVios_base@2@PAH@Z 1003b943 f i libcpmt:wlocale.obj
 0001:0003b27e       ?_Getfmt@?$time_get@GV?$istreambuf_iterator@GU?$char_traits@G@std@@@std@@@std@@IBE?AV?$istreambuf_iterator@GU?$char_traits@G@std@@@2@V32@0AAVios_base@2@AAHPAUtm@@PBD@Z 1003c27e f i libcpmt:wlocale.obj
 0001:0003b428       ?_Getfmt@?$time_get@_WV?$istreambuf_iterator@_WU?$char_traits@_W@std@@@std@@@std@@IBE?AV?$istreambuf_iterator@_WU?$char_traits@_W@std@@@2@V32@0AAVios_base@2@AAHPAUtm@@PBD@Z 1003c428 f i libcpmt:wlocale.obj
 0001:0003b5d2       ?_Getifld@?$num_get@GV?$istreambuf_iterator@GU?$char_traits@G@std@@@std@@@std@@ABAHPADAAV?$istreambuf_iterator@GU?$char_traits@G@std@@@2@1HABVlocale@2@@Z 1003c5d2 f i libcpmt:wlocale.obj
 0001:0003baa7       ?_Getifld@?$num_get@_WV?$istreambuf_iterator@_WU?$char_traits@_W@std@@@std@@@std@@ABAHPADAAV?$istreambuf_iterator@_WU?$char_traits@_W@std@@@2@1HABVlocale@2@@Z 1003caa7 f i libcpmt:wlocale.obj
 0001:0003bf7c       ?_Getint@?$time_get@GV?$istreambuf_iterator@GU?$char_traits@G@std@@@std@@@std@@ABAHAAV?$istreambuf_iterator@GU?$char_traits@G@std@@@2@0HHAAHABV?$ctype@G@2@@Z 1003cf7c f i libcpmt:wlocale.obj
 0001:0003c198       ?_Getint@?$time_get@_WV?$istreambuf_iterator@_WU?$char_traits@_W@std@@@std@@@std@@ABAHAAV?$istreambuf_iterator@_WU?$char_traits@_W@std@@@2@0HHAAHABV?$ctype@_W@2@@Z 1003d198 f i libcpmt:wlocale.obj
 0001:0003c3b4       ?_Getmfld@?$money_get@GV?$istreambuf_iterator@GU?$char_traits@G@std@@@std@@@std@@ABE?AV?$basic_string@DU?$char_traits@D@std@@V?$allocator@D@2@@2@AAV?$istreambuf_iterator@GU?$char_traits@G@std@@@2@0_NAAVios_base@2@AAY0M@G@Z 1003d3b4 f i libcpmt:wlocale.obj
 0001:0003d037       ?_Getmfld@?$money_get@_WV?$istreambuf_iterator@_WU?$char_traits@_W@std@@@std@@@std@@ABE?AV?$basic_string@DU?$char_traits@D@std@@V?$allocator@D@2@@2@AAV?$istreambuf_iterator@_WU?$char_traits@_W@std@@@2@0_NAAVios_base@2@AAY0M@_W@Z 1003e037 f i libcpmt:wlocale.obj
 0001:0003dcba       ?_Getmonths@_Locinfo@std@@QBEPBDXZ 1003ecba f i libcpmt:wlocale.obj
 0001:0003dcf3       ?_Getptr@_Timevec@std@@QBEPAXXZ 1003ecf3 f i libcpmt:wlocale.obj
 0001:0003dcf6       ?_Getvals@?$_Mpunct@_W@std@@IAEX_WPBUlconv@@@Z 1003ecf6 f i libcpmt:wlocale.obj
 0001:0003dd7d       ?_Getvals@?$numpunct@_W@std@@IAEX_WPBUlconv@@U_Cvtvec@@@Z 1003ed7d f i libcpmt:wlocale.obj
 0001:0003dda2       ?_Gnavail@?$basic_streambuf@GU?$char_traits@G@std@@@std@@IBE_JXZ 1003eda2 f i libcpmt:wlocale.obj
 0001:0003ddb8       ?_Gnavail@?$basic_streambuf@_WU?$char_traits@_W@std@@@std@@IBE_JXZ 1003edb8 f i libcpmt:wlocale.obj
 0001:0003ddce       ?_Gninc@?$basic_streambuf@GU?$char_traits@G@std@@@std@@IAEPAGXZ 1003edce f i libcpmt:wlocale.obj
 0001:0003dde2       ?_Gninc@?$basic_streambuf@_WU?$char_traits@_W@std@@@std@@IAEPA_WXZ 1003ede2 f i libcpmt:wlocale.obj
 0001:0003ddf6       ?_Ifmt@?$num_put@GV?$ostreambuf_iterator@GU?$char_traits@G@std@@@std@@@std@@ABAPADPADPBDH@Z 1003edf6 f i libcpmt:wlocale.obj
 0001:0003de88       ?_Ifmt@?$num_put@_WV?$ostreambuf_iterator@_WU?$char_traits@_W@std@@@std@@@std@@ABAPADPADPBDH@Z 1003ee88 f i libcpmt:wlocale.obj
 0001:0003df1a       ?_Inc@?$istreambuf_iterator@GU?$char_traits@G@std@@@std@@AAEXXZ 1003ef1a f i libcpmt:wlocale.obj
 0001:0003df49       ?_Inc@?$istreambuf_iterator@_WU?$char_traits@_W@std@@@std@@AAEXXZ 1003ef49 f i libcpmt:wlocale.obj
 0001:0003df78       ?_Init@?$_Mpunct@G@std@@IAEXABV_Locinfo@2@_N@Z 1003ef78 f i libcpmt:wlocale.obj
 0001:0003e083       ?_Init@?$_Mpunct@_W@std@@IAEXABV_Locinfo@2@_N@Z 1003f083 f i libcpmt:wlocale.obj
 0001:0003e18e       ?_Init@?$codecvt@GDU_Mbstatet@@@std@@IAEXABV_Locinfo@2@@Z 1003f18e f i libcpmt:wlocale.obj
 0001:0003e1bb       ?_Init@?$codecvt@_WDU_Mbstatet@@@std@@IAEXABV_Locinfo@2@@Z 1003f1bb f i libcpmt:wlocale.obj
 0001:0003e1e8       ?_Init@?$collate@G@std@@IAEXABV_Locinfo@2@@Z 1003f1e8 f i libcpmt:wlocale.obj
 0001:0003e1fe       ?_Init@?$collate@_W@std@@IAEXABV_Locinfo@2@@Z 1003f1fe f i libcpmt:wlocale.obj
 0001:0003e214       ?_Init@?$ctype@G@std@@IAEXABV_Locinfo@2@@Z 1003f214 f i libcpmt:wlocale.obj
 0001:0003e25b       ?_Init@?$ctype@_W@std@@IAEXABV_Locinfo@2@@Z 1003f25b f i libcpmt:wlocale.obj
 0001:0003e2a2       ?_Init@?$messages@G@std@@IAEXABV_Locinfo@2@@Z 1003f2a2 f i libcpmt:wlocale.obj
 0001:0003e2a5       ?_Init@?$messages@_W@std@@IAEXABV_Locinfo@2@@Z 1003f2a5 f i libcpmt:wlocale.obj
 0001:0003e2a8       ?_Init@?$money_get@GV?$istreambuf_iterator@GU?$char_traits@G@std@@@std@@@std@@IAEXABV_Locinfo@2@@Z 1003f2a8 f i libcpmt:wlocale.obj
 0001:0003e2ab       ?_Init@?$money_get@_WV?$istreambuf_iterator@_WU?$char_traits@_W@std@@@std@@@std@@IAEXABV_Locinfo@2@@Z 1003f2ab f i libcpmt:wlocale.obj
 0001:0003e2ae       ?_Init@?$money_put@GV?$ostreambuf_iterator@GU?$char_traits@G@std@@@std@@@std@@IAEXABV_Locinfo@2@@Z 1003f2ae f i libcpmt:wlocale.obj
 0001:0003e2b1       ?_Init@?$money_put@_WV?$ostreambuf_iterator@_WU?$char_traits@_W@std@@@std@@@std@@IAEXABV_Locinfo@2@@Z 1003f2b1 f i libcpmt:wlocale.obj
 0001:0003e2b4       ?_Init@?$num_get@GV?$istreambuf_iterator@GU?$char_traits@G@std@@@std@@@std@@IAEXABV_Locinfo@2@@Z 1003f2b4 f i libcpmt:wlocale.obj
 0001:0003e2b7       ?_Init@?$num_get@_WV?$istreambuf_iterator@_WU?$char_traits@_W@std@@@std@@@std@@IAEXABV_Locinfo@2@@Z 1003f2b7 f i libcpmt:wlocale.obj
 0001:0003e2ba       ?_Init@?$num_put@GV?$ostreambuf_iterator@GU?$char_traits@G@std@@@std@@@std@@IAEXABV_Locinfo@2@@Z 1003f2ba f i libcpmt:wlocale.obj
 0001:0003e2bd       ?_Init@?$num_put@_WV?$ostreambuf_iterator@_WU?$char_traits@_W@std@@@std@@@std@@IAEXABV_Locinfo@2@@Z 1003f2bd f i libcpmt:wlocale.obj
 0001:0003e2c0       ?_Init@?$numpunct@G@std@@IAEXABV_Locinfo@2@_N@Z 1003f2c0 f i libcpmt:wlocale.obj
 0001:0003e3f7       ?_Init@?$numpunct@_W@std@@IAEXABV_Locinfo@2@_N@Z 1003f3f7 f i libcpmt:wlocale.obj
 0001:0003e528       ?_Init@?$time_get@GV?$istreambuf_iterator@GU?$char_traits@G@std@@@std@@@std@@IAEXABV_Locinfo@2@@Z 1003f528 f i libcpmt:wlocale.obj
 0001:0003e584       ?_Init@?$time_get@_WV?$istreambuf_iterator@_WU?$char_traits@_W@std@@@std@@@std@@IAEXABV_Locinfo@2@@Z 1003f584 f i libcpmt:wlocale.obj
 0001:0003e5e0       ?_Init@?$time_put@GV?$ostreambuf_iterator@GU?$char_traits@G@std@@@std@@@std@@IAEXABV_Locinfo@2@@Z 1003f5e0 f i libcpmt:wlocale.obj
 0001:0003e5fc       ?_Init@?$time_put@_WV?$ostreambuf_iterator@_WU?$char_traits@_W@std@@@std@@@std@@IAEXABV_Locinfo@2@@Z 1003f5fc f i libcpmt:wlocale.obj
 0001:0003e618       ?_Iput@?$num_put@GV?$ostreambuf_iterator@GU?$char_traits@G@std@@@std@@@std@@ABA?AV?$ostreambuf_iterator@GU?$char_traits@G@std@@@2@V32@AAVios_base@2@GPADI@Z 1003f618 f i libcpmt:wlocale.obj
 0001:0003e965       ?_Iput@?$num_put@_WV?$ostreambuf_iterator@_WU?$char_traits@_W@std@@@std@@@std@@ABA?AV?$ostreambuf_iterator@_WU?$char_traits@_W@std@@@2@V32@AAVios_base@2@_WPADI@Z 1003f965 f i libcpmt:wlocale.obj
 0001:0003ecb2       ?_Large_string_engaged@?$_String_val@U?$_Simple_types@G@std@@@std@@QBE_NXZ 1003fcb2 f i libcpmt:wlocale.obj
 0001:0003ecbd       ?_Makeushloc@_Locimp@locale@std@@CAXABV_Locinfo@3@HPAV123@PBV23@@Z 1003fcbd f   libcpmt:wlocale.obj
 0001:0003f326       ?_Makewloc@_Locimp@locale@std@@CAXABV_Locinfo@3@HPAV123@PBV23@@Z 10040326 f   libcpmt:wlocale.obj
 0001:0003f98f       ?_Maklocwcs@std@@YAPA_WPB_W@Z 1004098f f i libcpmt:wlocale.obj
 0001:0003f9ea       ?_Makpat@?$_Mpunct@G@std@@AAEXAAUpattern@money_base@2@III@Z 100409ea f i libcpmt:wlocale.obj
 0001:0003fa3b       ?_Makpat@?$_Mpunct@_W@std@@AAEXAAUpattern@money_base@2@III@Z 10040a3b f i libcpmt:wlocale.obj
 0001:0003fa8c       ?_Move_alloc@?$_String_alloc@U?$_String_base_types@GV?$allocator@G@std@@@std@@@std@@QAEXAAV?$allocator@G@2@@Z 10040a8c f i libcpmt:wlocale.obj
 0001:0003fa8f       ?_Move_alloc@?$_String_alloc@U?$_String_base_types@_WV?$allocator@_W@std@@@std@@@std@@QAEXAAV?$allocator@_W@2@@Z 10040a8f f i libcpmt:wlocale.obj
 0001:0003fa92       ?_Myptr@?$_String_val@U?$_Simple_types@G@std@@@std@@QAEPAGXZ 10040a92 f i libcpmt:wlocale.obj
 0001:0003fa9f       ?_Myptr@?$_String_val@U?$_Simple_types@G@std@@@std@@QBEPBGXZ 10040a9f f i libcpmt:wlocale.obj
 0001:0003faac       ?_Myptr@?$_String_val@U?$_Simple_types@_W@std@@@std@@QBEPB_WXZ 10040aac f i libcpmt:wlocale.obj
 0001:0003fab9       ?_Orphan_all@?$_String_alloc@U?$_String_base_types@GV?$allocator@G@std@@@std@@@std@@QAEXXZ 10040ab9 f i libcpmt:wlocale.obj
 0001:0003faba       ?_Peek@?$istreambuf_iterator@GU?$char_traits@G@std@@@std@@ABEGXZ 10040aba f i libcpmt:wlocale.obj
 0001:0003faf3       ?_Peek@?$istreambuf_iterator@_WU?$char_traits@_W@std@@@std@@ABE_WXZ 10040af3 f i libcpmt:wlocale.obj
 0001:0003fb2c       ?_Pnavail@?$basic_streambuf@GU?$char_traits@G@std@@@std@@IBE_JXZ 10040b2c f i libcpmt:wlocale.obj
 0001:0003fb42       ?_Pnavail@?$basic_streambuf@_WU?$char_traits@_W@std@@@std@@IBE_JXZ 10040b42 f i libcpmt:wlocale.obj
 0001:0003fb58       ?_Pninc@?$basic_streambuf@GU?$char_traits@G@std@@@std@@IAEPAGXZ 10040b58 f i libcpmt:wlocale.obj
 0001:0003fb6c       ?_Pninc@?$basic_streambuf@_WU?$char_traits@_W@std@@@std@@IAEPA_WXZ 10040b6c f i libcpmt:wlocale.obj
 0001:0003fb80       ?_Put@?$money_put@GV?$ostreambuf_iterator@GU?$char_traits@G@std@@@std@@@std@@CA?AV?$ostreambuf_iterator@GU?$char_traits@G@std@@@2@V32@V?$_String_const_iterator@V?$_String_val@U?$_Simple_types@G@std@@@std@@@2@I@Z 10040b80 f i libcpmt:wlocale.obj
 0001:0003fbc7       ?_Put@?$money_put@_WV?$ostreambuf_iterator@_WU?$char_traits@_W@std@@@std@@@std@@CA?AV?$ostreambuf_iterator@_WU?$char_traits@_W@std@@@2@V32@V?$_String_const_iterator@V?$_String_val@U?$_Simple_types@_W@std@@@std@@@2@I@Z 10040bc7 f i libcpmt:wlocale.obj
 0001:0003fc0e       ?_Put@?$num_put@GV?$ostreambuf_iterator@GU?$char_traits@G@std@@@std@@@std@@ABA?AV?$ostreambuf_iterator@GU?$char_traits@G@std@@@2@V32@PBGI@Z 10040c0e f i libcpmt:wlocale.obj
 0001:0003fc50       ?_Put@?$num_put@_WV?$ostreambuf_iterator@_WU?$char_traits@_W@std@@@std@@@std@@ABA?AV?$ostreambuf_iterator@_WU?$char_traits@_W@std@@@2@V32@PB_WI@Z 10040c50 f i libcpmt:wlocale.obj
 0001:0003fc92       ?_Putmfld@?$money_put@GV?$ostreambuf_iterator@GU?$char_traits@G@std@@@std@@@std@@ABE?AV?$ostreambuf_iterator@GU?$char_traits@G@std@@@2@V32@_NAAVios_base@2@G1V?$basic_string@GU?$char_traits@G@std@@V?$allocator@G@2@@2@G@Z 10040c92 f i libcpmt:wlocale.obj
 0001:0004034d       ?_Putmfld@?$money_put@_WV?$ostreambuf_iterator@_WU?$char_traits@_W@std@@@std@@@std@@ABE?AV?$ostreambuf_iterator@_WU?$char_traits@_W@std@@@2@V32@_NAAVios_base@2@_W1V?$basic_string@_WU?$char_traits@_W@std@@V?$allocator@_W@2@@2@3@Z 1004134d f i libcpmt:wlocale.obj
 0001:00040a08       ?_Rep@?$money_put@GV?$ostreambuf_iterator@GU?$char_traits@G@std@@@std@@@std@@CA?AV?$ostreambuf_iterator@GU?$char_traits@G@std@@@2@V32@GI@Z 10041a08 f i libcpmt:wlocale.obj
 0001:00040a3f       ?_Rep@?$money_put@_WV?$ostreambuf_iterator@_WU?$char_traits@_W@std@@@std@@@std@@CA?AV?$ostreambuf_iterator@_WU?$char_traits@_W@std@@@2@V32@_WI@Z 10041a3f f i libcpmt:wlocale.obj
 0001:00040a76       ?_Rep@?$num_put@GV?$ostreambuf_iterator@GU?$char_traits@G@std@@@std@@@std@@ABA?AV?$ostreambuf_iterator@GU?$char_traits@G@std@@@2@V32@GI@Z 10041a76 f i libcpmt:wlocale.obj
 0001:00040aad       ?_Rep@?$num_put@_WV?$ostreambuf_iterator@_WU?$char_traits@_W@std@@@std@@@std@@ABA?AV?$ostreambuf_iterator@_WU?$char_traits@_W@std@@@2@V32@_WI@Z 10041aad f i libcpmt:wlocale.obj
 0001:00040ae4       ?_Tidy@?$_Mpunct@G@std@@AAEXXZ 10041ae4 f i libcpmt:wlocale.obj
 0001:00040b16       ?_Tidy@?$_Mpunct@_W@std@@AAEXXZ 10041b16 f i libcpmt:wlocale.obj
 0001:00040b48       ?_Tidy@?$numpunct@G@std@@AAEXXZ 10041b48 f i libcpmt:wlocale.obj
 0001:00040b70       ?_Tidy@?$numpunct@_W@std@@AAEXXZ 10041b70 f i libcpmt:wlocale.obj
 0001:00040b98       ?_Tidy@?$time_get@GV?$istreambuf_iterator@GU?$char_traits@G@std@@@std@@@std@@AAEXXZ 10041b98 f i libcpmt:wlocale.obj
 0001:00040bc0       ?_Tidy@?$time_get@_WV?$istreambuf_iterator@_WU?$char_traits@_W@std@@@std@@@std@@AAEXXZ 10041bc0 f i libcpmt:wlocale.obj
 0001:00040be8       ?_Tidy_deallocate@?$basic_string@GU?$char_traits@G@std@@V?$allocator@G@2@@std@@QAEXXZ 10041be8 f i libcpmt:wlocale.obj
 0001:00040c21       ?_Tidy_init@?$basic_string@GU?$char_traits@G@std@@V?$allocator@G@2@@std@@QAEXXZ 10041c21 f i libcpmt:wlocale.obj
 0001:00040c36       ?_W_Getdays@_Locinfo@std@@QBEPBGXZ 10041c36 f i libcpmt:wlocale.obj
 0001:00040c6f       ?_W_Getmonths@_Locinfo@std@@QBEPBGXZ 10041c6f f i libcpmt:wlocale.obj
 0001:00040ca8       ?_W_Gettnames@_Locinfo@std@@QBE?AV_Timevec@2@XZ 10041ca8 f i libcpmt:wlocale.obj
 0001:00040cbf       ?_Xlen@?$basic_string@GU?$char_traits@G@std@@V?$allocator@G@2@@std@@SAXXZ 10041cbf f i libcpmt:wlocale.obj
 0001:00040ccc       ?_Xran@?$_String_val@U?$_Simple_types@G@std@@@std@@SAXXZ 10041ccc f i libcpmt:wlocale.obj
 0001:00040cd9       ?_Xran@?$_String_val@U?$_Simple_types@_W@std@@@std@@SAXXZ 10041cd9 f i libcpmt:wlocale.obj
 0001:00040ce6       ?allocate@?$allocator@G@std@@QAEPAGI@Z 10041ce6 f i libcpmt:wlocale.obj
 0001:00040d0b       ?append@?$basic_string@GU?$char_traits@G@std@@V?$allocator@G@2@@std@@QAEAAV12@ABV12@@Z 10041d0b f i libcpmt:wlocale.obj
 0001:00040d2f       ?append@?$basic_string@GU?$char_traits@G@std@@V?$allocator@G@2@@std@@QAEAAV12@IG@Z 10041d2f f i libcpmt:wlocale.obj
 0001:00040da2       ?append@?$basic_string@GU?$char_traits@G@std@@V?$allocator@G@2@@std@@QAEAAV12@QBGI@Z 10041da2 f i libcpmt:wlocale.obj
 0001:00040e18       ?append@?$basic_string@_WU?$char_traits@_W@std@@V?$allocator@_W@2@@std@@QAEAAV12@ABV12@@Z 10041e18 f i libcpmt:wlocale.obj
 0001:00040e3c       ?append@?$basic_string@_WU?$char_traits@_W@std@@V?$allocator@_W@2@@std@@QAEAAV12@I_W@Z 10041e3c f i libcpmt:wlocale.obj
 0001:00040eaf       ?append@?$basic_string@_WU?$char_traits@_W@std@@V?$allocator@_W@2@@std@@QAEAAV12@QB_WI@Z 10041eaf f i libcpmt:wlocale.obj
 0001:00040f25       ?assign@?$_WChar_traits@G@std@@SAPAGQAGIG@Z 10041f25 f i libcpmt:wlocale.obj
 0001:00040f40       ?assign@?$_WChar_traits@G@std@@SAXAAGABG@Z 10041f40 f i libcpmt:wlocale.obj
 0001:00040f55       ?assign@?$basic_string@GU?$char_traits@G@std@@V?$allocator@G@2@@std@@QAEAAV12@$$QAV12@@Z 10041f55 f i libcpmt:wlocale.obj
 0001:00040f6f       ?assign@?$basic_string@GU?$char_traits@G@std@@V?$allocator@G@2@@std@@QAEAAV12@IG@Z 10041f6f f i libcpmt:wlocale.obj
 0001:00040fce       ?assign@?$basic_string@GU?$char_traits@G@std@@V?$allocator@G@2@@std@@QAEAAV12@QBG@Z 10041fce f i libcpmt:wlocale.obj
 0001:00041001       ?assign@?$basic_string@GU?$char_traits@G@std@@V?$allocator@G@2@@std@@QAEAAV12@QBGI@Z 10042001 f i libcpmt:wlocale.obj
 0001:00041063       ?assign@?$basic_string@_WU?$char_traits@_W@std@@V?$allocator@_W@2@@std@@QAEAAV12@$$QAV12@@Z 10042063 f i libcpmt:wlocale.obj
 0001:0004107d       ?assign@?$basic_string@_WU?$char_traits@_W@std@@V?$allocator@_W@2@@std@@QAEAAV12@QB_W@Z 1004207d f i libcpmt:wlocale.obj
 0001:000410ad       ?assign@?$basic_string@_WU?$char_traits@_W@std@@V?$allocator@_W@2@@std@@QAEAAV12@QB_WI@Z 100420ad f i libcpmt:wlocale.obj
 0001:0004110f       ?begin@?$basic_string@GU?$char_traits@G@std@@V?$allocator@G@2@@std@@QAE?AV?$_String_iterator@V?$_String_val@U?$_Simple_types@G@std@@@std@@@2@XZ 1004210f f i libcpmt:wlocale.obj
 0001:00041128       ?begin@?$basic_string@_WU?$char_traits@_W@std@@V?$allocator@_W@2@@std@@QAE?AV?$_String_iterator@V?$_String_val@U?$_Simple_types@_W@std@@@std@@@2@XZ 10042128 f i libcpmt:wlocale.obj
 0001:00041141       ?c_str@?$basic_string@GU?$char_traits@G@std@@V?$allocator@G@2@@std@@QBEPBGXZ 10042141 f i libcpmt:wlocale.obj
 0001:0004114e       ?c_str@?$basic_string@_WU?$char_traits@_W@std@@V?$allocator@_W@2@@std@@QBEPB_WXZ 1004214e f i libcpmt:wlocale.obj
 0001:0004115b       ?copy@?$_WChar_traits@G@std@@SAPAGQAGQBGI@Z 1004215b f i libcpmt:wlocale.obj
 0001:0004117a       ?copy@?$_WChar_traits@_W@std@@SAPA_WQA_WQB_WI@Z 1004217a f i libcpmt:wlocale.obj
 0001:00041199       ?curr_symbol@?$_Mpunct@G@std@@QBE?AV?$basic_string@GU?$char_traits@G@std@@V?$allocator@G@2@@2@XZ 10042199 f i libcpmt:wlocale.obj
 0001:000411c6       ?curr_symbol@?$_Mpunct@_W@std@@QBE?AV?$basic_string@_WU?$char_traits@_W@std@@V?$allocator@_W@2@@2@XZ 100421c6 f i libcpmt:wlocale.obj
 0001:000411f3       ?date_order@?$time_get@GV?$istreambuf_iterator@GU?$char_traits@G@std@@@std@@@std@@QBE?AW4dateorder@time_base@2@XZ 100421f3 f i libcpmt:wlocale.obj
 0001:00041211       ?date_order@?$time_get@_WV?$istreambuf_iterator@_WU?$char_traits@_W@std@@@std@@@std@@QBE?AW4dateorder@time_base@2@XZ 10042211 f i libcpmt:wlocale.obj
 0001:0004122f       ?deallocate@?$allocator@G@std@@QAEXQAGI@Z 1004222f f i libcpmt:wlocale.obj
 0001:0004124b       ?decimal_point@?$_Mpunct@G@std@@QBEGXZ 1004224b f i libcpmt:wlocale.obj
 0001:00041269       ?decimal_point@?$_Mpunct@_W@std@@QBE_WXZ 10042269 f i libcpmt:wlocale.obj
 0001:00041287       ?decimal_point@?$numpunct@G@std@@QBEGXZ 10042287 f i libcpmt:wlocale.obj
 0001:000412a5       ?decimal_point@?$numpunct@_W@std@@QBE_WXZ 100422a5 f i libcpmt:wlocale.obj
 0001:000412c3       ?do_always_noconv@?$codecvt@GDU_Mbstatet@@@std@@MBE_NXZ 100422c3 f i libcpmt:wlocale.obj
 0001:000412c6       ?do_always_noconv@?$codecvt@_WDU_Mbstatet@@@std@@MBE_NXZ 100422c6 f i libcpmt:wlocale.obj
 0001:000412c9       ?do_close@?$messages@G@std@@MBEXH@Z 100422c9 f i libcpmt:wlocale.obj
 0001:000412cc       ?do_close@?$messages@_W@std@@MBEXH@Z 100422cc f i libcpmt:wlocale.obj
 0001:000412cf       ?do_compare@?$collate@G@std@@MBEHPBG000@Z 100422cf f i libcpmt:wlocale.obj
 0001:0004130c       ?do_compare@?$collate@_W@std@@MBEHPB_W000@Z 1004230c f i libcpmt:wlocale.obj
 0001:00041349       ?do_curr_symbol@?$_Mpunct@G@std@@MBE?AV?$basic_string@GU?$char_traits@G@std@@V?$allocator@G@2@@2@XZ 10042349 f i libcpmt:wlocale.obj
 0001:00041363       ?do_curr_symbol@?$_Mpunct@_W@std@@MBE?AV?$basic_string@_WU?$char_traits@_W@std@@V?$allocator@_W@2@@2@XZ 10042363 f i libcpmt:wlocale.obj
 0001:0004137d       ?do_date_order@?$time_get@GV?$istreambuf_iterator@GU?$char_traits@G@std@@@std@@@std@@MBE?AW4dateorder@time_base@2@XZ 1004237d f i libcpmt:wlocale.obj
 0001:00041381       ?do_date_order@?$time_get@_WV?$istreambuf_iterator@_WU?$char_traits@_W@std@@@std@@@std@@MBE?AW4dateorder@time_base@2@XZ 10042381 f i libcpmt:wlocale.obj
 0001:00041385       ?do_decimal_point@?$_Mpunct@G@std@@MBEGXZ 10042385 f i libcpmt:wlocale.obj
 0001:0004138a       ?do_decimal_point@?$_Mpunct@_W@std@@MBE_WXZ 1004238a f i libcpmt:wlocale.obj
 0001:0004138f       ?do_decimal_point@?$numpunct@G@std@@MBEGXZ 1004238f f i libcpmt:wlocale.obj
 0001:00041394       ?do_decimal_point@?$numpunct@_W@std@@MBE_WXZ 10042394 f i libcpmt:wlocale.obj
 0001:00041399       ?do_encoding@?$codecvt@GDU_Mbstatet@@@std@@MBEHXZ 10042399 f i libcpmt:wlocale.obj
 0001:0004139c       ?do_encoding@?$codecvt@_WDU_Mbstatet@@@std@@MBEHXZ 1004239c f i libcpmt:wlocale.obj
 0001:0004139f       ?do_falsename@?$numpunct@G@std@@MBE?AV?$basic_string@GU?$char_traits@G@std@@V?$allocator@G@2@@2@XZ 1004239f f i libcpmt:wlocale.obj
 0001:000413b9       ?do_falsename@?$numpunct@_W@std@@MBE?AV?$basic_string@_WU?$char_traits@_W@std@@V?$allocator@_W@2@@2@XZ 100423b9 f i libcpmt:wlocale.obj
 0001:000413d3       ?do_frac_digits@?$_Mpunct@G@std@@MBEHXZ 100423d3 f i libcpmt:wlocale.obj
 0001:000413d7       ?do_frac_digits@?$_Mpunct@_W@std@@MBEHXZ 100423d7 f i libcpmt:wlocale.obj
 0001:000413db       ?do_get@?$messages@G@std@@MBE?AV?$basic_string@GU?$char_traits@G@std@@V?$allocator@G@2@@2@HHHABV32@@Z 100423db f i libcpmt:wlocale.obj
 0001:00041403       ?do_get@?$messages@_W@std@@MBE?AV?$basic_string@_WU?$char_traits@_W@std@@V?$allocator@_W@2@@2@HHHABV32@@Z 10042403 f i libcpmt:wlocale.obj
 0001:0004142b       ?do_get@?$money_get@GV?$istreambuf_iterator@GU?$char_traits@G@std@@@std@@@std@@MBE?AV?$istreambuf_iterator@GU?$char_traits@G@std@@@2@V32@0_NAAVios_base@2@AAHAAO@Z 1004242b f i libcpmt:wlocale.obj
 0001:000414fd       ?do_get@?$money_get@GV?$istreambuf_iterator@GU?$char_traits@G@std@@@std@@@std@@MBE?AV?$istreambuf_iterator@GU?$char_traits@G@std@@@2@V32@0_NAAVios_base@2@AAHAAV?$basic_string@GU?$char_traits@G@std@@V?$allocator@G@2@@2@@Z 100424fd f i libcpmt:wlocale.obj
 0001:0004160d       ?do_get@?$money_get@_WV?$istreambuf_iterator@_WU?$char_traits@_W@std@@@std@@@std@@MBE?AV?$istreambuf_iterator@_WU?$char_traits@_W@std@@@2@V32@0_NAAVios_base@2@AAHAAO@Z 1004260d f i libcpmt:wlocale.obj
 0001:000416df       ?do_get@?$money_get@_WV?$istreambuf_iterator@_WU?$char_traits@_W@std@@@std@@@std@@MBE?AV?$istreambuf_iterator@_WU?$char_traits@_W@std@@@2@V32@0_NAAVios_base@2@AAHAAV?$basic_string@_WU?$char_traits@_W@std@@V?$allocator@_W@2@@2@@Z 100426df f i libcpmt:wlocale.obj
 0001:000417ef       ?do_get@?$num_get@GV?$istreambuf_iterator@GU?$char_traits@G@std@@@std@@@std@@MBE?AV?$istreambuf_iterator@GU?$char_traits@G@std@@@2@V32@0AAVios_base@2@AAHAAG@Z 100427ef f i libcpmt:wlocale.obj
 0001:00041918       ?do_get@?$num_get@GV?$istreambuf_iterator@GU?$char_traits@G@std@@@std@@@std@@MBE?AV?$istreambuf_iterator@GU?$char_traits@G@std@@@2@V32@0AAVios_base@2@AAHAAI@Z 10042918 f i libcpmt:wlocale.obj
 0001:0004196b       ?do_get@?$num_get@GV?$istreambuf_iterator@GU?$char_traits@G@std@@@std@@@std@@MBE?AV?$istreambuf_iterator@GU?$char_traits@G@std@@@2@V32@0AAVios_base@2@AAHAAJ@Z 1004296b f i libcpmt:wlocale.obj
 0001:00041a60       ?do_get@?$num_get@GV?$istreambuf_iterator@GU?$char_traits@G@std@@@std@@@std@@MBE?AV?$istreambuf_iterator@GU?$char_traits@G@std@@@2@V32@0AAVios_base@2@AAHAAK@Z 10042a60 f i libcpmt:wlocale.obj
 0001:00041b55       ?do_get@?$num_get@GV?$istreambuf_iterator@GU?$char_traits@G@std@@@std@@@std@@MBE?AV?$istreambuf_iterator@GU?$char_traits@G@std@@@2@V32@0AAVios_base@2@AAHAAM@Z 10042b55 f i libcpmt:wlocale.obj
 0001:00041c8e       ?do_get@?$num_get@GV?$istreambuf_iterator@GU?$char_traits@G@std@@@std@@@std@@MBE?AV?$istreambuf_iterator@GU?$char_traits@G@std@@@2@V32@0AAVios_base@2@AAHAAN@Z 10042c8e f i libcpmt:wlocale.obj
 0001:00041dbb       ?do_get@?$num_get@GV?$istreambuf_iterator@GU?$char_traits@G@std@@@std@@@std@@MBE?AV?$istreambuf_iterator@GU?$char_traits@G@std@@@2@V32@0AAVios_base@2@AAHAAO@Z 10042dbb f i libcpmt:wlocale.obj
 0001:00041e0c       ?do_get@?$num_get@GV?$istreambuf_iterator@GU?$char_traits@G@std@@@std@@@std@@MBE?AV?$istreambuf_iterator@GU?$char_traits@G@std@@@2@V32@0AAVios_base@2@AAHAAPAX@Z 10042e0c f i libcpmt:wlocale.obj
 0001:00041f02       ?do_get@?$num_get@GV?$istreambuf_iterator@GU?$char_traits@G@std@@@std@@@std@@MBE?AV?$istreambuf_iterator@GU?$char_traits@G@std@@@2@V32@0AAVios_base@2@AAHAA_J@Z 10042f02 f i libcpmt:wlocale.obj
 0001:00041fff       ?do_get@?$num_get@GV?$istreambuf_iterator@GU?$char_traits@G@std@@@std@@@std@@MBE?AV?$istreambuf_iterator@GU?$char_traits@G@std@@@2@V32@0AAVios_base@2@AAHAA_K@Z 10042fff f i libcpmt:wlocale.obj
 0001:000420fc       ?do_get@?$num_get@GV?$istreambuf_iterator@GU?$char_traits@G@std@@@std@@@std@@MBE?AV?$istreambuf_iterator@GU?$char_traits@G@std@@@2@V32@0AAVios_base@2@AAHAA_N@Z 100430fc f i libcpmt:wlocale.obj
 0001:0004237e       ?do_get@?$num_get@_WV?$istreambuf_iterator@_WU?$char_traits@_W@std@@@std@@@std@@MBE?AV?$istreambuf_iterator@_WU?$char_traits@_W@std@@@2@V32@0AAVios_base@2@AAHAAG@Z 1004337e f i libcpmt:wlocale.obj
 0001:000424a7       ?do_get@?$num_get@_WV?$istreambuf_iterator@_WU?$char_traits@_W@std@@@std@@@std@@MBE?AV?$istreambuf_iterator@_WU?$char_traits@_W@std@@@2@V32@0AAVios_base@2@AAHAAI@Z 100434a7 f i libcpmt:wlocale.obj
 0001:000424fa       ?do_get@?$num_get@_WV?$istreambuf_iterator@_WU?$char_traits@_W@std@@@std@@@std@@MBE?AV?$istreambuf_iterator@_WU?$char_traits@_W@std@@@2@V32@0AAVios_base@2@AAHAAJ@Z 100434fa f i libcpmt:wlocale.obj
 0001:000425ef       ?do_get@?$num_get@_WV?$istreambuf_iterator@_WU?$char_traits@_W@std@@@std@@@std@@MBE?AV?$istreambuf_iterator@_WU?$char_traits@_W@std@@@2@V32@0AAVios_base@2@AAHAAK@Z 100435ef f i libcpmt:wlocale.obj
 0001:000426e4       ?do_get@?$num_get@_WV?$istreambuf_iterator@_WU?$char_traits@_W@std@@@std@@@std@@MBE?AV?$istreambuf_iterator@_WU?$char_traits@_W@std@@@2@V32@0AAVios_base@2@AAHAAM@Z 100436e4 f i libcpmt:wlocale.obj
 0001:0004281d       ?do_get@?$num_get@_WV?$istreambuf_iterator@_WU?$char_traits@_W@std@@@std@@@std@@MBE?AV?$istreambuf_iterator@_WU?$char_traits@_W@std@@@2@V32@0AAVios_base@2@AAHAAN@Z 1004381d f i libcpmt:wlocale.obj
 0001:0004294a       ?do_get@?$num_get@_WV?$istreambuf_iterator@_WU?$char_traits@_W@std@@@std@@@std@@MBE?AV?$istreambuf_iterator@_WU?$char_traits@_W@std@@@2@V32@0AAVios_base@2@AAHAAO@Z 1004394a f i libcpmt:wlocale.obj
 0001:0004299b       ?do_get@?$num_get@_WV?$istreambuf_iterator@_WU?$char_traits@_W@std@@@std@@@std@@MBE?AV?$istreambuf_iterator@_WU?$char_traits@_W@std@@@2@V32@0AAVios_base@2@AAHAAPAX@Z 1004399b f i libcpmt:wlocale.obj
 0001:00042a91       ?do_get@?$num_get@_WV?$istreambuf_iterator@_WU?$char_traits@_W@std@@@std@@@std@@MBE?AV?$istreambuf_iterator@_WU?$char_traits@_W@std@@@2@V32@0AAVios_base@2@AAHAA_J@Z 10043a91 f i libcpmt:wlocale.obj
 0001:00042b8e       ?do_get@?$num_get@_WV?$istreambuf_iterator@_WU?$char_traits@_W@std@@@std@@@std@@MBE?AV?$istreambuf_iterator@_WU?$char_traits@_W@std@@@2@V32@0AAVios_base@2@AAHAA_K@Z 10043b8e f i libcpmt:wlocale.obj
 0001:00042c8b       ?do_get@?$num_get@_WV?$istreambuf_iterator@_WU?$char_traits@_W@std@@@std@@@std@@MBE?AV?$istreambuf_iterator@_WU?$char_traits@_W@std@@@2@V32@0AAVios_base@2@AAHAA_N@Z 10043c8b f i libcpmt:wlocale.obj
 0001:00042f0d       ?do_get@?$time_get@GV?$istreambuf_iterator@GU?$char_traits@G@std@@@std@@@std@@MBE?AV?$istreambuf_iterator@GU?$char_traits@G@std@@@2@V32@0AAVios_base@2@AAHPAUtm@@DD@Z 10043f0d f i libcpmt:wlocale.obj
 0001:0004339b       ?do_get@?$time_get@_WV?$istreambuf_iterator@_WU?$char_traits@_W@std@@@std@@@std@@MBE?AV?$istreambuf_iterator@_WU?$char_traits@_W@std@@@2@V32@0AAVios_base@2@AAHPAUtm@@DD@Z 1004439b f i libcpmt:wlocale.obj
 0001:00043829       ?do_get_date@?$time_get@GV?$istreambuf_iterator@GU?$char_traits@G@std@@@std@@@std@@MBE?AV?$istreambuf_iterator@GU?$char_traits@G@std@@@2@V32@0AAVios_base@2@AAHPAUtm@@@Z 10044829 f i libcpmt:wlocale.obj
 0001:00043e02       ?do_get_date@?$time_get@_WV?$istreambuf_iterator@_WU?$char_traits@_W@std@@@std@@@std@@MBE?AV?$istreambuf_iterator@_WU?$char_traits@_W@std@@@2@V32@0AAVios_base@2@AAHPAUtm@@@Z 10044e02 f i libcpmt:wlocale.obj
 0001:000443db       ?do_get_monthname@?$time_get@GV?$istreambuf_iterator@GU?$char_traits@G@std@@@std@@@std@@MBE?AV?$istreambuf_iterator@GU?$char_traits@G@std@@@2@V32@0AAVios_base@2@AAHPAUtm@@@Z 100453db f i libcpmt:wlocale.obj
 0001:0004442b       ?do_get_monthname@?$time_get@_WV?$istreambuf_iterator@_WU?$char_traits@_W@std@@@std@@@std@@MBE?AV?$istreambuf_iterator@_WU?$char_traits@_W@std@@@2@V32@0AAVios_base@2@AAHPAUtm@@@Z 1004542b f i libcpmt:wlocale.obj
 0001:0004447b       ?do_get_time@?$time_get@GV?$istreambuf_iterator@GU?$char_traits@G@std@@@std@@@std@@MBE?AV?$istreambuf_iterator@GU?$char_traits@G@std@@@2@V32@0AAVios_base@2@AAHPAUtm@@@Z 1004547b f i libcpmt:wlocale.obj
 0001:000445e5       ?do_get_time@?$time_get@_WV?$istreambuf_iterator@_WU?$char_traits@_W@std@@@std@@@std@@MBE?AV?$istreambuf_iterator@_WU?$char_traits@_W@std@@@2@V32@0AAVios_base@2@AAHPAUtm@@@Z 100455e5 f i libcpmt:wlocale.obj
 0001:0004474f       ?do_get_weekday@?$time_get@GV?$istreambuf_iterator@GU?$char_traits@G@std@@@std@@@std@@MBE?AV?$istreambuf_iterator@GU?$char_traits@G@std@@@2@V32@0AAVios_base@2@AAHPAUtm@@@Z 1004574f f i libcpmt:wlocale.obj
 0001:0004479f       ?do_get_weekday@?$time_get@_WV?$istreambuf_iterator@_WU?$char_traits@_W@std@@@std@@@std@@MBE?AV?$istreambuf_iterator@_WU?$char_traits@_W@std@@@2@V32@0AAVios_base@2@AAHPAUtm@@@Z 1004579f f i libcpmt:wlocale.obj
 0001:000447ef       ?do_get_year@?$time_get@GV?$istreambuf_iterator@GU?$char_traits@G@std@@@std@@@std@@MBE?AV?$istreambuf_iterator@GU?$char_traits@G@std@@@2@V32@0AAVios_base@2@AAHPAUtm@@@Z 100457ef f i libcpmt:wlocale.obj
 0001:000448aa       ?do_get_year@?$time_get@_WV?$istreambuf_iterator@_WU?$char_traits@_W@std@@@std@@@std@@MBE?AV?$istreambuf_iterator@_WU?$char_traits@_W@std@@@2@V32@0AAVios_base@2@AAHPAUtm@@@Z 100458aa f i libcpmt:wlocale.obj
 0001:00044965       ?do_grouping@?$_Mpunct@G@std@@MBE?AV?$basic_string@DU?$char_traits@D@std@@V?$allocator@D@2@@2@XZ 10045965 f i libcpmt:wlocale.obj
 0001:0004497f       ?do_grouping@?$_Mpunct@_W@std@@MBE?AV?$basic_string@DU?$char_traits@D@std@@V?$allocator@D@2@@2@XZ 1004597f f i libcpmt:wlocale.obj
 0001:00044999       ?do_grouping@?$numpunct@G@std@@MBE?AV?$basic_string@DU?$char_traits@D@std@@V?$allocator@D@2@@2@XZ 10045999 f i libcpmt:wlocale.obj
 0001:000449b3       ?do_grouping@?$numpunct@_W@std@@MBE?AV?$basic_string@DU?$char_traits@D@std@@V?$allocator@D@2@@2@XZ 100459b3 f i libcpmt:wlocale.obj
 0001:000449cd       ?do_hash@?$collate@G@std@@MBEJPBG0@Z 100459cd f i libcpmt:wlocale.obj
 0001:000449f6       ?do_hash@?$collate@_W@std@@MBEJPB_W0@Z 100459f6 f i libcpmt:wlocale.obj
 0001:00044a1f       ?do_in@?$codecvt@GDU_Mbstatet@@@std@@MBEHAAU_Mbstatet@@PBD1AAPBDPAG3AAPAG@Z 10045a1f f i libcpmt:wlocale.obj
 0001:00044aac       ?do_in@?$codecvt@_WDU_Mbstatet@@@std@@MBEHAAU_Mbstatet@@PBD1AAPBDPA_W3AAPA_W@Z 10045aac f i libcpmt:wlocale.obj
 0001:00044b39       ?do_is@?$ctype@G@std@@MBEPBGPBG0PAF@Z 10045b39 f i libcpmt:wlocale.obj
 0001:00044b5c       ?do_is@?$ctype@G@std@@MBE_NFG@Z 10045b5c f i libcpmt:wlocale.obj
 0001:00044b7f       ?do_is@?$ctype@_W@std@@MBEPB_WPB_W0PAF@Z 10045b7f f i libcpmt:wlocale.obj
 0001:00044ba2       ?do_is@?$ctype@_W@std@@MBE_NF_W@Z 10045ba2 f i libcpmt:wlocale.obj
 0001:00044bc5       ?do_length@?$codecvt@GDU_Mbstatet@@@std@@MBEHAAU_Mbstatet@@PBD1I@Z 10045bc5 f i libcpmt:wlocale.obj
 0001:00044c53       ?do_length@?$codecvt@_WDU_Mbstatet@@@std@@MBEHAAU_Mbstatet@@PBD1I@Z 10045c53 f i libcpmt:wlocale.obj
 0001:00044ce1       ?do_max_length@?$codecvt@GDU_Mbstatet@@@std@@MBEHXZ 10045ce1 f i libcpmt:wlocale.obj
 0001:00044ce5       ?do_max_length@?$codecvt@_WDU_Mbstatet@@@std@@MBEHXZ 10045ce5 f i libcpmt:wlocale.obj
 0001:00044ce9       ?do_narrow@?$ctype@G@std@@MBEDGD@Z 10045ce9 f i libcpmt:wlocale.obj
 0001:00044cf4       ?do_narrow@?$ctype@G@std@@MBEPBGPBG0DPAD@Z 10045cf4 f i libcpmt:wlocale.obj
 0001:00044d59       ?do_narrow@?$ctype@_W@std@@MBED_WD@Z 10045d59 f i libcpmt:wlocale.obj
 0001:00044d64       ?do_narrow@?$ctype@_W@std@@MBEPB_WPB_W0DPAD@Z 10045d64 f i libcpmt:wlocale.obj
 0001:00044dc9       ?do_neg_format@?$_Mpunct@G@std@@MBE?AUpattern@money_base@2@XZ 10045dc9 f i libcpmt:wlocale.obj
 0001:00044ddb       ?do_neg_format@?$_Mpunct@_W@std@@MBE?AUpattern@money_base@2@XZ 10045ddb f i libcpmt:wlocale.obj
 0001:00044ded       ?do_negative_sign@?$_Mpunct@G@std@@MBE?AV?$basic_string@GU?$char_traits@G@std@@V?$allocator@G@2@@2@XZ 10045ded f i libcpmt:wlocale.obj
 0001:00044e07       ?do_negative_sign@?$_Mpunct@_W@std@@MBE?AV?$basic_string@_WU?$char_traits@_W@std@@V?$allocator@_W@2@@2@XZ 10045e07 f i libcpmt:wlocale.obj
 0001:00044e21       ?do_open@?$messages@G@std@@MBEHABV?$basic_string@DU?$char_traits@D@std@@V?$allocator@D@2@@2@ABVlocale@2@@Z 10045e21 f i libcpmt:wlocale.obj
 0001:00044e27       ?do_open@?$messages@_W@std@@MBEHABV?$basic_string@DU?$char_traits@D@std@@V?$allocator@D@2@@2@ABVlocale@2@@Z 10045e27 f i libcpmt:wlocale.obj
 0001:00044e2d       ?do_out@?$codecvt@GDU_Mbstatet@@@std@@MBEHAAU_Mbstatet@@PBG1AAPBGPAD3AAPAD@Z 10045e2d f i libcpmt:wlocale.obj
 0001:00044f4c       ?do_out@?$codecvt@_WDU_Mbstatet@@@std@@MBEHAAU_Mbstatet@@PB_W1AAPB_WPAD3AAPAD@Z 10045f4c f i libcpmt:wlocale.obj
 0001:0004506b       ?do_pos_format@?$_Mpunct@G@std@@MBE?AUpattern@money_base@2@XZ 1004606b f i libcpmt:wlocale.obj
 0001:0004507d       ?do_pos_format@?$_Mpunct@_W@std@@MBE?AUpattern@money_base@2@XZ 1004607d f i libcpmt:wlocale.obj
 0001:0004508f       ?do_positive_sign@?$_Mpunct@G@std@@MBE?AV?$basic_string@GU?$char_traits@G@std@@V?$allocator@G@2@@2@XZ 1004608f f i libcpmt:wlocale.obj
 0001:000450a9       ?do_positive_sign@?$_Mpunct@_W@std@@MBE?AV?$basic_string@_WU?$char_traits@_W@std@@V?$allocator@_W@2@@2@XZ 100460a9 f i libcpmt:wlocale.obj
 0001:000450c3       ?do_put@?$money_put@GV?$ostreambuf_iterator@GU?$char_traits@G@std@@@std@@@std@@MBE?AV?$ostreambuf_iterator@GU?$char_traits@G@std@@@2@V32@_NAAVios_base@2@GABV?$basic_string@GU?$char_traits@G@std@@V?$allocator@G@2@@2@@Z 100460c3 f i libcpmt:wlocale.obj
 0001:0004524f       ?do_put@?$money_put@GV?$ostreambuf_iterator@GU?$char_traits@G@std@@@std@@@std@@MBE?AV?$ostreambuf_iterator@GU?$char_traits@G@std@@@2@V32@_NAAVios_base@2@GO@Z 1004624f f i libcpmt:wlocale.obj
 0001:0004540a       ?do_put@?$money_put@_WV?$ostreambuf_iterator@_WU?$char_traits@_W@std@@@std@@@std@@MBE?AV?$ostreambuf_iterator@_WU?$char_traits@_W@std@@@2@V32@_NAAVios_base@2@_WABV?$basic_string@_WU?$char_traits@_W@std@@V?$allocator@_W@2@@2@@Z 1004640a f i libcpmt:wlocale.obj
 0001:00045596       ?do_put@?$money_put@_WV?$ostreambuf_iterator@_WU?$char_traits@_W@std@@@std@@@std@@MBE?AV?$ostreambuf_iterator@_WU?$char_traits@_W@std@@@2@V32@_NAAVios_base@2@_WO@Z 10046596 f i libcpmt:wlocale.obj
 0001:00045751       ?do_put@?$num_put@GV?$ostreambuf_iterator@GU?$char_traits@G@std@@@std@@@std@@MBE?AV?$ostreambuf_iterator@GU?$char_traits@G@std@@@2@V32@AAVios_base@2@GJ@Z 10046751 f i libcpmt:wlocale.obj
 0001:000457d6       ?do_put@?$num_put@GV?$ostreambuf_iterator@GU?$char_traits@G@std@@@std@@@std@@MBE?AV?$ostreambuf_iterator@GU?$char_traits@G@std@@@2@V32@AAVios_base@2@GK@Z 100467d6 f i libcpmt:wlocale.obj
 0001:0004585b       ?do_put@?$num_put@GV?$ostreambuf_iterator@GU?$char_traits@G@std@@@std@@@std@@MBE?AV?$ostreambuf_iterator@GU?$char_traits@G@std@@@2@V32@AAVios_base@2@GN@Z 1004685b f i libcpmt:wlocale.obj
 0001:000459bc       ?do_put@?$num_put@GV?$ostreambuf_iterator@GU?$char_traits@G@std@@@std@@@std@@MBE?AV?$ostreambuf_iterator@GU?$char_traits@G@std@@@2@V32@AAVios_base@2@GO@Z 100469bc f i libcpmt:wlocale.obj
 0001:00045b1d       ?do_put@?$num_put@GV?$ostreambuf_iterator@GU?$char_traits@G@std@@@std@@@std@@MBE?AV?$ostreambuf_iterator@GU?$char_traits@G@std@@@2@V32@AAVios_base@2@GPBX@Z 10046b1d f i libcpmt:wlocale.obj
 0001:00045b8e       ?do_put@?$num_put@GV?$ostreambuf_iterator@GU?$char_traits@G@std@@@std@@@std@@MBE?AV?$ostreambuf_iterator@GU?$char_traits@G@std@@@2@V32@AAVios_base@2@G_J@Z 10046b8e f i libcpmt:wlocale.obj
 0001:00045c17       ?do_put@?$num_put@GV?$ostreambuf_iterator@GU?$char_traits@G@std@@@std@@@std@@MBE?AV?$ostreambuf_iterator@GU?$char_traits@G@std@@@2@V32@AAVios_base@2@G_K@Z 10046c17 f i libcpmt:wlocale.obj
 0001:00045ca0       ?do_put@?$num_put@GV?$ostreambuf_iterator@GU?$char_traits@G@std@@@std@@@std@@MBE?AV?$ostreambuf_iterator@GU?$char_traits@G@std@@@2@V32@AAVios_base@2@G_N@Z 10046ca0 f i libcpmt:wlocale.obj
 0001:00045e67       ?do_put@?$num_put@_WV?$ostreambuf_iterator@_WU?$char_traits@_W@std@@@std@@@std@@MBE?AV?$ostreambuf_iterator@_WU?$char_traits@_W@std@@@2@V32@AAVios_base@2@_WJ@Z 10046e67 f i libcpmt:wlocale.obj
 0001:00045eec       ?do_put@?$num_put@_WV?$ostreambuf_iterator@_WU?$char_traits@_W@std@@@std@@@std@@MBE?AV?$ostreambuf_iterator@_WU?$char_traits@_W@std@@@2@V32@AAVios_base@2@_WK@Z 10046eec f i libcpmt:wlocale.obj
 0001:00045f71       ?do_put@?$num_put@_WV?$ostreambuf_iterator@_WU?$char_traits@_W@std@@@std@@@std@@MBE?AV?$ostreambuf_iterator@_WU?$char_traits@_W@std@@@2@V32@AAVios_base@2@_WN@Z 10046f71 f i libcpmt:wlocale.obj
 0001:000460d2       ?do_put@?$num_put@_WV?$ostreambuf_iterator@_WU?$char_traits@_W@std@@@std@@@std@@MBE?AV?$ostreambuf_iterator@_WU?$char_traits@_W@std@@@2@V32@AAVios_base@2@_WO@Z 100470d2 f i libcpmt:wlocale.obj
 0001:00046233       ?do_put@?$num_put@_WV?$ostreambuf_iterator@_WU?$char_traits@_W@std@@@std@@@std@@MBE?AV?$ostreambuf_iterator@_WU?$char_traits@_W@std@@@2@V32@AAVios_base@2@_WPBX@Z 10047233 f i libcpmt:wlocale.obj
 0001:000462a4       ?do_put@?$num_put@_WV?$ostreambuf_iterator@_WU?$char_traits@_W@std@@@std@@@std@@MBE?AV?$ostreambuf_iterator@_WU?$char_traits@_W@std@@@2@V32@AAVios_base@2@_W_J@Z 100472a4 f i libcpmt:wlocale.obj
 0001:0004632d       ?do_put@?$num_put@_WV?$ostreambuf_iterator@_WU?$char_traits@_W@std@@@std@@@std@@MBE?AV?$ostreambuf_iterator@_WU?$char_traits@_W@std@@@2@V32@AAVios_base@2@_W_K@Z 1004732d f i libcpmt:wlocale.obj
 0001:000463b6       ?do_put@?$num_put@_WV?$ostreambuf_iterator@_WU?$char_traits@_W@std@@@std@@@std@@MBE?AV?$ostreambuf_iterator@_WU?$char_traits@_W@std@@@2@V32@AAVios_base@2@_W_N@Z 100473b6 f i libcpmt:wlocale.obj
 0001:0004657d       ?do_put@?$time_put@GV?$ostreambuf_iterator@GU?$char_traits@G@std@@@std@@@std@@MBE?AV?$ostreambuf_iterator@GU?$char_traits@G@std@@@2@V32@AAVios_base@2@GPBUtm@@DD@Z 1004757d f i libcpmt:wlocale.obj
 0001:0004668d       ?do_put@?$time_put@_WV?$ostreambuf_iterator@_WU?$char_traits@_W@std@@@std@@@std@@MBE?AV?$ostreambuf_iterator@_WU?$char_traits@_W@std@@@2@V32@AAVios_base@2@_WPBUtm@@DD@Z 1004768d f i libcpmt:wlocale.obj
 0001:0004679d       ?do_scan_is@?$ctype@G@std@@MBEPBGFPBG0@Z 1004779d f i libcpmt:wlocale.obj
 0001:000467e9       ?do_scan_is@?$ctype@_W@std@@MBEPB_WFPB_W0@Z 100477e9 f i libcpmt:wlocale.obj
 0001:00046835       ?do_scan_not@?$ctype@G@std@@MBEPBGFPBG0@Z 10047835 f i libcpmt:wlocale.obj
 0001:00046881       ?do_scan_not@?$ctype@_W@std@@MBEPB_WFPB_W0@Z 10047881 f i libcpmt:wlocale.obj
 0001:000468cd       ?do_thousands_sep@?$_Mpunct@G@std@@MBEGXZ 100478cd f i libcpmt:wlocale.obj
 0001:000468d2       ?do_thousands_sep@?$_Mpunct@_W@std@@MBE_WXZ 100478d2 f i libcpmt:wlocale.obj
 0001:000468d7       ?do_thousands_sep@?$numpunct@G@std@@MBEGXZ 100478d7 f i libcpmt:wlocale.obj
 0001:000468dc       ?do_thousands_sep@?$numpunct@_W@std@@MBE_WXZ 100478dc f i libcpmt:wlocale.obj
 0001:000468e1       ?do_tolower@?$ctype@G@std@@MBEGG@Z 100478e1 f i libcpmt:wlocale.obj
 0001:000468fb       ?do_tolower@?$ctype@G@std@@MBEPBGPAGPBG@Z 100478fb f i libcpmt:wlocale.obj
 0001:00046955       ?do_tolower@?$ctype@_W@std@@MBEPB_WPA_WPB_W@Z 10047955 f i libcpmt:wlocale.obj
 0001:000469af       ?do_tolower@?$ctype@_W@std@@MBE_W_W@Z 100479af f i libcpmt:wlocale.obj
 0001:000469c9       ?do_toupper@?$ctype@G@std@@MBEGG@Z 100479c9 f i libcpmt:wlocale.obj
 0001:000469e3       ?do_toupper@?$ctype@G@std@@MBEPBGPAGPBG@Z 100479e3 f i libcpmt:wlocale.obj
 0001:00046a3d       ?do_toupper@?$ctype@_W@std@@MBEPB_WPA_WPB_W@Z 10047a3d f i libcpmt:wlocale.obj
 0001:00046a97       ?do_toupper@?$ctype@_W@std@@MBE_W_W@Z 10047a97 f i libcpmt:wlocale.obj
 0001:00046ab1       ?do_transform@?$collate@G@std@@MBE?AV?$basic_string@GU?$char_traits@G@std@@V?$allocator@G@2@@2@PBG0@Z 10047ab1 f i libcpmt:wlocale.obj
 0001:00046b58       ?do_transform@?$collate@_W@std@@MBE?AV?$basic_string@_WU?$char_traits@_W@std@@V?$allocator@_W@2@@2@PB_W0@Z 10047b58 f i libcpmt:wlocale.obj
 0001:00046bff       ?do_truename@?$numpunct@G@std@@MBE?AV?$basic_string@GU?$char_traits@G@std@@V?$allocator@G@2@@2@XZ 10047bff f i libcpmt:wlocale.obj
 0001:00046c19       ?do_truename@?$numpunct@_W@std@@MBE?AV?$basic_string@_WU?$char_traits@_W@std@@V?$allocator@_W@2@@2@XZ 10047c19 f i libcpmt:wlocale.obj
 0001:00046c33       ?do_unshift@?$codecvt@GDU_Mbstatet@@@std@@MBEHAAU_Mbstatet@@PAD1AAPAD@Z 10047c33 f i libcpmt:wlocale.obj
 0001:00046ce7       ?do_unshift@?$codecvt@_WDU_Mbstatet@@@std@@MBEHAAU_Mbstatet@@PAD1AAPAD@Z 10047ce7 f i libcpmt:wlocale.obj
 0001:00046d9b       ?do_widen@?$ctype@G@std@@MBEGD@Z 10047d9b f i libcpmt:wlocale.obj
 0001:00046da6       ?do_widen@?$ctype@G@std@@MBEPBDPBD0PAG@Z 10047da6 f i libcpmt:wlocale.obj
 0001:00046e05       ?do_widen@?$ctype@_W@std@@MBEPBDPBD0PA_W@Z 10047e05 f i libcpmt:wlocale.obj
 0001:00046e64       ?do_widen@?$ctype@_W@std@@MBE_WD@Z 10047e64 f i libcpmt:wlocale.obj
 0001:00046e6f       ?empty@?$basic_string@GU?$char_traits@G@std@@V?$allocator@G@2@@std@@QBE_NXZ 10047e6f f i libcpmt:wlocale.obj
 0001:00046e79       ?empty@?$basic_string@_WU?$char_traits@_W@std@@V?$allocator@_W@2@@std@@QBE_NXZ 10047e79 f i libcpmt:wlocale.obj
 0001:00046e83       ?end@?$basic_string@GU?$char_traits@G@std@@V?$allocator@G@2@@std@@QAE?AV?$_String_iterator@V?$_String_val@U?$_Simple_types@G@std@@@std@@@2@XZ 10047e83 f i libcpmt:wlocale.obj
 0001:00046ea6       ?end@?$basic_string@_WU?$char_traits@_W@std@@V?$allocator@_W@2@@std@@QAE?AV?$_String_iterator@V?$_String_val@U?$_Simple_types@_W@std@@@std@@@2@XZ 10047ea6 f i libcpmt:wlocale.obj
 0001:00046ec9       ?eof@?$_WChar_traits@G@std@@SAGXZ 10047ec9 f i libcpmt:wlocale.obj
 0001:00046ecf       ?eof@?$_WChar_traits@_W@std@@SAGXZ 10047ecf f i libcpmt:wlocale.obj
 0001:00046ed5       ?eq_int_type@?$_WChar_traits@G@std@@SA_NABG0@Z 10047ed5 f i libcpmt:wlocale.obj
 0001:00046eee       ?eq_int_type@?$_WChar_traits@_W@std@@SA_NABG0@Z 10047eee f i libcpmt:wlocale.obj
 0001:00046f07       ?equal@?$istreambuf_iterator@GU?$char_traits@G@std@@@std@@QBE_NABV12@@Z 10047f07 f i libcpmt:wlocale.obj
 0001:00046f4f       ?equal@?$istreambuf_iterator@_WU?$char_traits@_W@std@@@std@@QBE_NABV12@@Z 10047f4f f i libcpmt:wlocale.obj
 0001:00046f97       ?erase@?$basic_string@DU?$char_traits@D@std@@V?$allocator@D@2@@std@@QAEAAV12@I@Z 10047f97 f i libcpmt:wlocale.obj
 0001:00046fc9       ?erase@?$basic_string@GU?$char_traits@G@std@@V?$allocator@G@2@@std@@QAEAAV12@I@Z 10047fc9 f i libcpmt:wlocale.obj
 0001:00046ff2       ?erase@?$basic_string@_WU?$char_traits@_W@std@@V?$allocator@_W@2@@std@@QAEAAV12@I@Z 10047ff2 f i libcpmt:wlocale.obj
 0001:0004701b       ?falsename@?$numpunct@G@std@@QBE?AV?$basic_string@GU?$char_traits@G@std@@V?$allocator@G@2@@2@XZ 1004801b f i libcpmt:wlocale.obj
 0001:00047048       ?falsename@?$numpunct@_W@std@@QBE?AV?$basic_string@_WU?$char_traits@_W@std@@V?$allocator@_W@2@@2@XZ 10048048 f i libcpmt:wlocale.obj
 0001:00047075       ?frac_digits@?$_Mpunct@G@std@@QBEHXZ 10048075 f i libcpmt:wlocale.obj
 0001:00047093       ?frac_digits@?$_Mpunct@_W@std@@QBEHXZ 10048093 f i libcpmt:wlocale.obj
 0001:000470b1       ?get_monthname@?$time_get@GV?$istreambuf_iterator@GU?$char_traits@G@std@@@std@@@std@@QBE?AV?$istreambuf_iterator@GU?$char_traits@G@std@@@2@V32@0AAVios_base@2@AAHPAUtm@@@Z 100480b1 f i libcpmt:wlocale.obj
 0001:000470f7       ?get_monthname@?$time_get@_WV?$istreambuf_iterator@_WU?$char_traits@_W@std@@@std@@@std@@QBE?AV?$istreambuf_iterator@_WU?$char_traits@_W@std@@@2@V32@0AAVios_base@2@AAHPAUtm@@@Z 100480f7 f i libcpmt:wlocale.obj
 0001:0004713d       ?get_weekday@?$time_get@GV?$istreambuf_iterator@GU?$char_traits@G@std@@@std@@@std@@QBE?AV?$istreambuf_iterator@GU?$char_traits@G@std@@@2@V32@0AAVios_base@2@AAHPAUtm@@@Z 1004813d f i libcpmt:wlocale.obj
 0001:00047183       ?get_weekday@?$time_get@_WV?$istreambuf_iterator@_WU?$char_traits@_W@std@@@std@@@std@@QBE?AV?$istreambuf_iterator@_WU?$char_traits@_W@std@@@2@V32@0AAVios_base@2@AAHPAUtm@@@Z 10048183 f i libcpmt:wlocale.obj
 0001:000471c9       ?get_year@?$time_get@GV?$istreambuf_iterator@GU?$char_traits@G@std@@@std@@@std@@QBE?AV?$istreambuf_iterator@GU?$char_traits@G@std@@@2@V32@0AAVios_base@2@AAHPAUtm@@@Z 100481c9 f i libcpmt:wlocale.obj
 0001:0004720f       ?get_year@?$time_get@_WV?$istreambuf_iterator@_WU?$char_traits@_W@std@@@std@@@std@@QBE?AV?$istreambuf_iterator@_WU?$char_traits@_W@std@@@2@V32@0AAVios_base@2@AAHPAUtm@@@Z 1004820f f i libcpmt:wlocale.obj
 0001:00047255       ?gptr@?$basic_streambuf@GU?$char_traits@G@std@@@std@@IBEPAGXZ 10048255 f i libcpmt:wlocale.obj
 0001:0004725b       ?gptr@?$basic_streambuf@_WU?$char_traits@_W@std@@@std@@IBEPA_WXZ 1004825b f i libcpmt:wlocale.obj
 0001:00047261       ?grouping@?$_Mpunct@G@std@@QBE?AV?$basic_string@DU?$char_traits@D@std@@V?$allocator@D@2@@2@XZ 10048261 f i libcpmt:wlocale.obj
 0001:0004728e       ?grouping@?$_Mpunct@_W@std@@QBE?AV?$basic_string@DU?$char_traits@D@std@@V?$allocator@D@2@@2@XZ 1004828e f i libcpmt:wlocale.obj
 0001:000472bb       ?grouping@?$numpunct@G@std@@QBE?AV?$basic_string@DU?$char_traits@D@std@@V?$allocator@D@2@@2@XZ 100482bb f i libcpmt:wlocale.obj
 0001:000472e8       ?grouping@?$numpunct@_W@std@@QBE?AV?$basic_string@DU?$char_traits@D@std@@V?$allocator@D@2@@2@XZ 100482e8 f i libcpmt:wlocale.obj
 0001:00047315       ?insert@?$basic_string@GU?$char_traits@G@std@@V?$allocator@G@2@@std@@QAEAAV12@IIG@Z 10048315 f i libcpmt:wlocale.obj
 0001:000473ab       ?insert@?$basic_string@_WU?$char_traits@_W@std@@V?$allocator@_W@2@@std@@QAEAAV12@II_W@Z 100483ab f i libcpmt:wlocale.obj
 0001:00047441       ?is@?$ctype@G@std@@QBE_NFG@Z 10048441 f i libcpmt:wlocale.obj
 0001:0004746e       ?is@?$ctype@_W@std@@QBE_NF_W@Z 1004846e f i libcpmt:wlocale.obj
 0001:0004749b       ?length@?$_Char_traits@GG@std@@SAIPBG@Z 1004849b f i libcpmt:wlocale.obj
 0001:000474b7       ?length@?$_WChar_traits@G@std@@SAIPBG@Z 100484b7 f i libcpmt:wlocale.obj
 0001:000474d3       ?length@?$_WChar_traits@_W@std@@SAIPB_W@Z 100484d3 f i libcpmt:wlocale.obj
 0001:000474f3       ?max_size@?$_Default_allocator_traits@V?$allocator@G@std@@@std@@SAIABV?$allocator@G@2@@Z 100484f3 f i libcpmt:wlocale.obj
 0001:000474f9       ?max_size@?$basic_string@GU?$char_traits@G@std@@V?$allocator@G@2@@std@@QBEIXZ 100484f9 f i libcpmt:wlocale.obj
 0001:000474ff       ?move@?$_WChar_traits@G@std@@SAPAGQAGQBGI@Z 100484ff f i libcpmt:wlocale.obj
 0001:0004751e       ?move@?$_WChar_traits@_W@std@@SAPA_WQA_WQB_WI@Z 1004851e f i libcpmt:wlocale.obj
 0001:0004753d       ?name@locale@std@@QBE?AV?$basic_string@DU?$char_traits@D@std@@V?$allocator@D@2@@2@XZ 1004853d f i libcpmt:wlocale.obj
 0001:000475f7       ?narrow@?$ctype@G@std@@QBEDGD@Z 100485f7 f i libcpmt:wlocale.obj
 0001:00047624       ?narrow@?$ctype@_W@std@@QBED_WD@Z 10048624 f i libcpmt:wlocale.obj
 0001:00047651       ?neg_format@?$_Mpunct@G@std@@QBE?AUpattern@money_base@2@XZ 10048651 f i libcpmt:wlocale.obj
 0001:0004767e       ?neg_format@?$_Mpunct@_W@std@@QBE?AUpattern@money_base@2@XZ 1004867e f i libcpmt:wlocale.obj
 0001:000476ab       ?negative_sign@?$_Mpunct@G@std@@QBE?AV?$basic_string@GU?$char_traits@G@std@@V?$allocator@G@2@@2@XZ 100486ab f i libcpmt:wlocale.obj
 0001:000476d8       ?negative_sign@?$_Mpunct@_W@std@@QBE?AV?$basic_string@_WU?$char_traits@_W@std@@V?$allocator@_W@2@@2@XZ 100486d8 f i libcpmt:wlocale.obj
 0001:00047705       ?pos_format@?$_Mpunct@G@std@@QBE?AUpattern@money_base@2@XZ 10048705 f i libcpmt:wlocale.obj
 0001:00047732       ?pos_format@?$_Mpunct@_W@std@@QBE?AUpattern@money_base@2@XZ 10048732 f i libcpmt:wlocale.obj
 0001:0004775f       ?positive_sign@?$_Mpunct@G@std@@QBE?AV?$basic_string@GU?$char_traits@G@std@@V?$allocator@G@2@@2@XZ 1004875f f i libcpmt:wlocale.obj
 0001:0004778c       ?positive_sign@?$_Mpunct@_W@std@@QBE?AV?$basic_string@_WU?$char_traits@_W@std@@V?$allocator@_W@2@@2@XZ 1004878c f i libcpmt:wlocale.obj
 0001:000477b9       ?push_back@?$basic_string@GU?$char_traits@G@std@@V?$allocator@G@2@@std@@QAEXG@Z 100487b9 f i libcpmt:wlocale.obj
 0001:00047809       ?push_back@?$basic_string@_WU?$char_traits@_W@std@@V?$allocator@_W@2@@std@@QAEX_W@Z 10048809 f i libcpmt:wlocale.obj
 0001:00047859       ?resize@?$basic_string@GU?$char_traits@G@std@@V?$allocator@G@2@@std@@QAEXIG@Z 10048859 f i libcpmt:wlocale.obj
 0001:00047884       ?resize@?$basic_string@_WU?$char_traits@_W@std@@V?$allocator@_W@2@@std@@QAEXI_W@Z 10048884 f i libcpmt:wlocale.obj
 0001:000478af       ?sbumpc@?$basic_streambuf@GU?$char_traits@G@std@@@std@@QAEGXZ 100488af f i libcpmt:wlocale.obj
 0001:00047900       ?sbumpc@?$basic_streambuf@_WU?$char_traits@_W@std@@@std@@QAEGXZ 10048900 f i libcpmt:wlocale.obj
 0001:00047951       ?select_on_container_copy_construction@?$_Default_allocator_traits@V?$allocator@G@std@@@std@@SA?AV?$allocator@G@2@ABV32@@Z 10048951 f i libcpmt:wlocale.obj
 0001:0004795b       ?select_on_container_copy_construction@?$_Default_allocator_traits@V?$allocator@_W@std@@@std@@SA?AV?$allocator@_W@2@ABV32@@Z 1004895b f i libcpmt:wlocale.obj
 0001:00047965       ?sgetc@?$basic_streambuf@GU?$char_traits@G@std@@@std@@QAEGXZ 10048965 f i libcpmt:wlocale.obj
 0001:000479a8       ?sgetc@?$basic_streambuf@_WU?$char_traits@_W@std@@@std@@QAEGXZ 100489a8 f i libcpmt:wlocale.obj
 0001:000479eb       ?size@?$basic_string@GU?$char_traits@G@std@@V?$allocator@G@2@@std@@QBEIXZ 100489eb f i libcpmt:wlocale.obj
 0001:000479ef       ?size@?$basic_string@_WU?$char_traits@_W@std@@V?$allocator@_W@2@@std@@QBEIXZ 100489ef f i libcpmt:wlocale.obj
 0001:000479f3       ?sputc@?$basic_streambuf@GU?$char_traits@G@std@@@std@@QAEGG@Z 100489f3 f i libcpmt:wlocale.obj
 0001:00047a53       ?sputc@?$basic_streambuf@_WU?$char_traits@_W@std@@@std@@QAEG_W@Z 10048a53 f i libcpmt:wlocale.obj
 0001:00047ab3       ?thousands_sep@?$_Mpunct@G@std@@QBEGXZ 10048ab3 f i libcpmt:wlocale.obj
 0001:00047ad1       ?thousands_sep@?$_Mpunct@_W@std@@QBE_WXZ 10048ad1 f i libcpmt:wlocale.obj
 0001:00047aef       ?thousands_sep@?$numpunct@G@std@@QBEGXZ 10048aef f i libcpmt:wlocale.obj
 0001:00047b0d       ?thousands_sep@?$numpunct@_W@std@@QBE_WXZ 10048b0d f i libcpmt:wlocale.obj
 0001:00047b2b       ?to_char_type@?$_WChar_traits@G@std@@SAGABG@Z 10048b2b f i libcpmt:wlocale.obj
 0001:00047b38       ?to_char_type@?$_WChar_traits@_W@std@@SA_WABG@Z 10048b38 f i libcpmt:wlocale.obj
 0001:00047b45       ?to_int_type@?$_WChar_traits@G@std@@SAGABG@Z 10048b45 f i libcpmt:wlocale.obj
 0001:00047b52       ?to_int_type@?$_WChar_traits@_W@std@@SAGAB_W@Z 10048b52 f i libcpmt:wlocale.obj
 0001:00047b5f       ?truename@?$numpunct@G@std@@QBE?AV?$basic_string@GU?$char_traits@G@std@@V?$allocator@G@2@@2@XZ 10048b5f f i libcpmt:wlocale.obj
 0001:00047b8c       ?truename@?$numpunct@_W@std@@QBE?AV?$basic_string@_WU?$char_traits@_W@std@@V?$allocator@_W@2@@2@XZ 10048b8c f i libcpmt:wlocale.obj
 0001:00047bb9       ?widen@?$ctype@G@std@@QBEGD@Z 10048bb9 f i libcpmt:wlocale.obj
 0001:00047be2       ?widen@?$ctype@G@std@@QBEPBDPBD0PAG@Z 10048be2 f i libcpmt:wlocale.obj
 0001:00047c12       ?widen@?$ctype@_W@std@@QBEPBDPBD0PA_W@Z 10048c12 f i libcpmt:wlocale.obj
 0001:00047c42       ?widen@?$ctype@_W@std@@QBE_WD@Z 10048c42 f i libcpmt:wlocale.obj
 0001:00047c6b       _wmemcpy                   10048c6b f i libcpmt:wlocale.obj
 0001:00047c8a       _wmemmove                  10048c8a f i libcpmt:wlocale.obj
 0001:00047ca9       ??$_Copy_unchecked1@PADV?$ostreambuf_iterator@DU?$char_traits@D@std@@@std@@@std@@YA?AV?$ostreambuf_iterator@DU?$char_traits@D@std@@@0@PAD0V10@U_General_ptr_iterator_tag@0@@Z 10048ca9 f i libcpmt:xlocale.obj
 0001:00047cf9       ??$_Copy_unchecked@PADV?$ostreambuf_iterator@DU?$char_traits@D@std@@@std@@@std@@YA?AV?$ostreambuf_iterator@DU?$char_traits@D@std@@@0@PAD0V10@@Z 10048cf9 f i libcpmt:xlocale.obj
 0001:00047d29       ??$_Find_elem@D$0M@@std@@YAIAAY0M@$$CBDD@Z 10048d29 f i libcpmt:xlocale.obj
 0001:00047d57       ??$_Get_unwrapped@D@std@@YAPADQAD@Z 10048d57 f i libcpmt:xlocale.obj
 0001:00047d61       ??$_Get_unwrapped_n@V?$ostreambuf_iterator@DU?$char_traits@D@std@@@std@@H$0A@@std@@YAABV?$ostreambuf_iterator@DU?$char_traits@D@std@@@0@ABV10@H@Z 10048d61 f i libcpmt:xlocale.obj
 0001:00047d6b       ??$_Getvals@D@?$_Mpunct@D@std@@IAEXDPBUlconv@@@Z 10048d6b f i libcpmt:xlocale.obj
 0001:00047e06       ??$_Getvals@D@?$time_get@DV?$istreambuf_iterator@DU?$char_traits@D@std@@@std@@@std@@IAEXDABV_Locinfo@1@@Z 10048e06 f i libcpmt:xlocale.obj
 0001:00047e8b       ??$_Hash_array_representation@D@std@@YAIQBDI@Z 10048e8b f i libcpmt:xlocale.obj
 0001:00047ea9       ??$_Idl_distance@PADPAD@std@@YAHABQAD0@Z 10048ea9 f i libcpmt:xlocale.obj
 0001:00047ebb       ??$_LStrcoll@D@std@@YAHPBD000PBU_Collvec@@@Z 10048ebb f i libcpmt:xlocale.obj
 0001:00047ec6       ??$_LStrxfrm@D@std@@YAIPAD0PBD1PBU_Collvec@@@Z 10048ec6 f i libcpmt:xlocale.obj
 0001:00047ed1       ??$_Ptr_copy_cat@PADV?$ostreambuf_iterator@DU?$char_traits@D@std@@@std@@@std@@YA?AU_General_ptr_iterator_tag@0@ABQADABV?$ostreambuf_iterator@DU?$char_traits@D@std@@@0@@Z 10048ed1 f i libcpmt:xlocale.obj
 0001:00048248       ??$_Refancy@PAD$0A@@std@@YAPADPAD@Z 10049248 f i libcpmt:xlocale.obj
 0001:00048252       ??$_Seek_wrapped@V?$ostreambuf_iterator@DU?$char_traits@D@std@@@std@@V12@@std@@YAXAAV?$ostreambuf_iterator@DU?$char_traits@D@std@@@0@ABV10@@Z 10049252 f i libcpmt:xlocale.obj
 0001:0004826c       ??$addressof@$$CBV?$moneypunct@D$00@std@@@std@@YAPBV?$moneypunct@D$00@0@ABV10@@Z 1004926c f i libcpmt:xlocale.obj
 0001:00048276       ??$addressof@$$CBV?$moneypunct@D$0A@@std@@@std@@YAPBV?$moneypunct@D$0A@@0@ABV10@@Z 10049276 f i libcpmt:xlocale.obj
 0001:00048280       ??$copy@PADV?$ostreambuf_iterator@DU?$char_traits@D@std@@@std@@@std@@YA?AV?$ostreambuf_iterator@DU?$char_traits@D@std@@@0@PAD0V10@@Z 10049280 f i libcpmt:xlocale.obj
 0001:000482b9       ??$use_facet@V?$collate@D@std@@@std@@YAABV?$collate@D@0@ABVlocale@0@@Z 100492b9 f i libcpmt:xlocale.obj
 0001:00048388       ??$use_facet@V?$messages@D@std@@@std@@YAABV?$messages@D@0@ABVlocale@0@@Z 10049388 f i libcpmt:xlocale.obj
 0001:00048457       ??$use_facet@V?$money_get@DV?$istreambuf_iterator@DU?$char_traits@D@std@@@std@@@std@@@std@@YAABV?$money_get@DV?$istreambuf_iterator@DU?$char_traits@D@std@@@std@@@0@ABVlocale@0@@Z 10049457 f i libcpmt:xlocale.obj
 0001:00048526       ??$use_facet@V?$money_put@DV?$ostreambuf_iterator@DU?$char_traits@D@std@@@std@@@std@@@std@@YAABV?$money_put@DV?$ostreambuf_iterator@DU?$char_traits@D@std@@@std@@@0@ABVlocale@0@@Z 10049526 f i libcpmt:xlocale.obj
 0001:000485f5       ??$use_facet@V?$moneypunct@D$00@std@@@std@@YAABV?$moneypunct@D$00@0@ABVlocale@0@@Z 100495f5 f i libcpmt:xlocale.obj
 0001:000486c4       ??$use_facet@V?$moneypunct@D$0A@@std@@@std@@YAABV?$moneypunct@D$0A@@0@ABVlocale@0@@Z 100496c4 f i libcpmt:xlocale.obj
 0001:00048793       ??$use_facet@V?$time_get@DV?$istreambuf_iterator@DU?$char_traits@D@std@@@std@@@std@@@std@@YAABV?$time_get@DV?$istreambuf_iterator@DU?$char_traits@D@std@@@std@@@0@ABVlocale@0@@Z 10049793 f i libcpmt:xlocale.obj
 0001:00048862       ??$use_facet@V?$time_put@DV?$ostreambuf_iterator@DU?$char_traits@D@std@@@std@@@std@@@std@@YAABV?$time_put@DV?$ostreambuf_iterator@DU?$char_traits@D@std@@@std@@@0@ABVlocale@0@@Z 10049862 f i libcpmt:xlocale.obj
 0001:00048931       ??0?$_Mpunct@D@std@@QAE@ABV_Locinfo@1@I_N1@Z 10049931 f i libcpmt:xlocale.obj
 0001:0004897c       ??0?$_String_const_iterator@V?$_String_val@U?$_Simple_types@D@std@@@std@@@std@@QAE@PBDPBU_Container_base0@1@@Z 1004997c f i libcpmt:xlocale.obj
 0001:0004898d       ??0?$_String_const_iterator@V?$_String_val@U?$_Simple_types@D@std@@@std@@@std@@QAE@XZ 1004998d f i libcpmt:xlocale.obj
 0001:00048993       ??0?$_String_iterator@V?$_String_val@U?$_Simple_types@D@std@@@std@@@std@@QAE@PADPBU_Container_base0@1@@Z 10049993 f i libcpmt:xlocale.obj
 0001:000489a4       ??0?$basic_string@DU?$char_traits@D@std@@V?$allocator@D@2@@std@@QAE@QBDI@Z 100499a4 f i libcpmt:xlocale.obj
 0001:000489d3       ??0?$collate@D@std@@QAE@ABV_Locinfo@1@I@Z 100499d3 f i libcpmt:xlocale.obj
 0001:00048a05       ??0?$messages@D@std@@QAE@ABV_Locinfo@1@I@Z 10049a05 f i libcpmt:xlocale.obj
 0001:00048a24       ??0?$money_get@DV?$istreambuf_iterator@DU?$char_traits@D@std@@@std@@@std@@QAE@ABV_Locinfo@1@I@Z 10049a24 f i libcpmt:xlocale.obj
 0001:00048a43       ??0?$money_put@DV?$ostreambuf_iterator@DU?$char_traits@D@std@@@std@@@std@@QAE@ABV_Locinfo@1@I@Z 10049a43 f i libcpmt:xlocale.obj
 0001:00048a62       ??0?$moneypunct@D$00@std@@QAE@ABV_Locinfo@1@I_N@Z 10049a62 f i libcpmt:xlocale.obj
 0001:00048a92       ??0?$moneypunct@D$0A@@std@@QAE@ABV_Locinfo@1@I_N@Z 10049a92 f i libcpmt:xlocale.obj
 0001:00048ac2       ??0?$time_get@DV?$istreambuf_iterator@DU?$char_traits@D@std@@@std@@@std@@QAE@ABV_Locinfo@1@I@Z 10049ac2 f i libcpmt:xlocale.obj
 0001:00048b01       ??0?$time_put@DV?$ostreambuf_iterator@DU?$char_traits@D@std@@@std@@@std@@QAE@ABV_Locinfo@1@I@Z 10049b01 f i libcpmt:xlocale.obj
 0001:00048b3e       ??1?$_Mpunct@D@std@@MAE@XZ 10049b3e f i libcpmt:xlocale.obj
 0001:00048b59       ??1?$collate@D@std@@MAE@XZ 10049b59 f i libcpmt:xlocale.obj
 0001:00048b79       ??1?$messages@D@std@@MAE@XZ 10049b79 f i libcpmt:xlocale.obj
 0001:00048b80       ??1?$money_get@DV?$istreambuf_iterator@DU?$char_traits@D@std@@@std@@@std@@MAE@XZ 10049b80 f i libcpmt:xlocale.obj
 0001:00048b87       ??1?$money_put@DV?$ostreambuf_iterator@DU?$char_traits@D@std@@@std@@@std@@MAE@XZ 10049b87 f i libcpmt:xlocale.obj
 0001:00048b8e       ??1?$moneypunct@D$00@std@@MAE@XZ 10049b8e f i libcpmt:xlocale.obj
 0001:00048ba9       ??1?$moneypunct@D$0A@@std@@MAE@XZ 10049ba9 f i libcpmt:xlocale.obj
 0001:00048bc4       ??1?$time_get@DV?$istreambuf_iterator@DU?$char_traits@D@std@@@std@@@std@@MAE@XZ 10049bc4 f i libcpmt:xlocale.obj
 0001:00048bdf       ??1?$time_put@DV?$ostreambuf_iterator@DU?$char_traits@D@std@@@std@@@std@@MAE@XZ 10049bdf f i libcpmt:xlocale.obj
 0001:00048bff       ??8?$_String_const_iterator@V?$_String_val@U?$_Simple_types@D@std@@@std@@@std@@QBE_NABV01@@Z 10049bff f i libcpmt:xlocale.obj
 0001:00048c14       ??9?$_String_const_iterator@V?$_String_val@U?$_Simple_types@D@std@@@std@@@std@@QBE_NABV01@@Z 10049c14 f i libcpmt:xlocale.obj
 0001:00048c29       ??D?$_String_const_iterator@V?$_String_val@U?$_Simple_types@D@std@@@std@@@std@@QBEABDXZ 10049c29 f i libcpmt:xlocale.obj
 0001:00048c2c       ??D?$_String_iterator@V?$_String_val@U?$_Simple_types@D@std@@@std@@@std@@QBEAADXZ 10049c2c f i libcpmt:xlocale.obj
 0001:00048c2f       ??E?$_String_const_iterator@V?$_String_val@U?$_Simple_types@D@std@@@std@@@std@@QAEAAV01@XZ 10049c2f f i libcpmt:xlocale.obj
 0001:00048c34       ??E?$_String_iterator@V?$_String_val@U?$_Simple_types@D@std@@@std@@@std@@QAEAAV01@XZ 10049c34 f i libcpmt:xlocale.obj
 0001:00048c39       ??E?$ostreambuf_iterator@DU?$char_traits@D@std@@@std@@QAEAAV01@H@Z 10049c39 f i libcpmt:xlocale.obj
 0001:00048c3e       ??G?$_String_iterator@V?$_String_val@U?$_Simple_types@D@std@@@std@@@std@@QBE?AV01@H@Z 10049c3e f i libcpmt:xlocale.obj
 0001:00048c53       ??H?$_String_iterator@V?$_String_val@U?$_Simple_types@D@std@@@std@@@std@@QBE?AV01@H@Z 10049c53 f i libcpmt:xlocale.obj
 0001:00048d8c       ??Y?$_String_const_iterator@V?$_String_val@U?$_Simple_types@D@std@@@std@@@std@@QAEAAV01@H@Z 10049d8c f i libcpmt:xlocale.obj
 0001:00048d9d       ??Y?$_String_iterator@V?$_String_val@U?$_Simple_types@D@std@@@std@@@std@@QAEAAV01@H@Z 10049d9d f i libcpmt:xlocale.obj
 0001:00048dae       ??Z?$_String_iterator@V?$_String_val@U?$_Simple_types@D@std@@@std@@@std@@QAEAAV01@H@Z 10049dae f i libcpmt:xlocale.obj
 0001:00048dbf       ??_G?$_Mpunct@D@std@@MAEPAXI@Z 10049dbf f i libcpmt:xlocale.obj
 0001:00048dbf       ??_E?$_Mpunct@D@std@@MAEPAXI@Z 10049dbf f i libcpmt:xlocale.obj
 0001:00048df8       ??_E?$collate@D@std@@MAEPAXI@Z 10049df8 f i libcpmt:xlocale.obj
 0001:00048df8       ??_G?$collate@D@std@@MAEPAXI@Z 10049df8 f i libcpmt:xlocale.obj
 0001:00048e22       ??_E?$messages@D@std@@MAEPAXI@Z 10049e22 f i libcpmt:xlocale.obj
 0001:00048e22       ??_G?$messages@D@std@@MAEPAXI@Z 10049e22 f i libcpmt:xlocale.obj
 0001:00048e4d       ??_G?$money_get@DV?$istreambuf_iterator@DU?$char_traits@D@std@@@std@@@std@@MAEPAXI@Z 10049e4d f i libcpmt:xlocale.obj
 0001:00048e4d       ??_E?$money_get@DV?$istreambuf_iterator@DU?$char_traits@D@std@@@std@@@std@@MAEPAXI@Z 10049e4d f i libcpmt:xlocale.obj
 0001:00048e78       ??_E?$money_put@DV?$ostreambuf_iterator@DU?$char_traits@D@std@@@std@@@std@@MAEPAXI@Z 10049e78 f i libcpmt:xlocale.obj
 0001:00048e78       ??_G?$money_put@DV?$ostreambuf_iterator@DU?$char_traits@D@std@@@std@@@std@@MAEPAXI@Z 10049e78 f i libcpmt:xlocale.obj
 0001:00048ea3       ??_E?$moneypunct@D$00@std@@MAEPAXI@Z 10049ea3 f i libcpmt:xlocale.obj
 0001:00048ea3       ??_G?$moneypunct@D$00@std@@MAEPAXI@Z 10049ea3 f i libcpmt:xlocale.obj
 0001:00048edc       ??_G?$moneypunct@D$0A@@std@@MAEPAXI@Z 10049edc f i libcpmt:xlocale.obj
 0001:00048edc       ??_E?$moneypunct@D$0A@@std@@MAEPAXI@Z 10049edc f i libcpmt:xlocale.obj
 0001:00048f15       ??_G?$time_get@DV?$istreambuf_iterator@DU?$char_traits@D@std@@@std@@@std@@MAEPAXI@Z 10049f15 f i libcpmt:xlocale.obj
 0001:00048f15       ??_E?$time_get@DV?$istreambuf_iterator@DU?$char_traits@D@std@@@std@@@std@@MAEPAXI@Z 10049f15 f i libcpmt:xlocale.obj
 0001:00048f4e       ??_G?$time_put@DV?$ostreambuf_iterator@DU?$char_traits@D@std@@@std@@@std@@MAEPAXI@Z 10049f4e f i libcpmt:xlocale.obj
 0001:00048f4e       ??_E?$time_put@DV?$ostreambuf_iterator@DU?$char_traits@D@std@@@std@@@std@@MAEPAXI@Z 10049f4e f i libcpmt:xlocale.obj
 0001:00048f78       ?_Compat@?$_String_const_iterator@V?$_String_val@U?$_Simple_types@D@std@@@std@@@std@@QBEXABV12@@Z 10049f78 f i libcpmt:xlocale.obj
 0001:00048f7b       ?_Getcat@?$collate@D@std@@SAIPAPBVfacet@locale@2@PBV42@@Z 10049f7b f i libcpmt:xlocale.obj
 0001:00049045       ?_Getcat@?$messages@D@std@@SAIPAPBVfacet@locale@2@PBV42@@Z 1004a045 f i libcpmt:xlocale.obj
 0001:000490c7       ?_Getcat@?$money_get@DV?$istreambuf_iterator@DU?$char_traits@D@std@@@std@@@std@@SAIPAPBVfacet@locale@2@PBV42@@Z 1004a0c7 f i libcpmt:xlocale.obj
 0001:00049149       ?_Getcat@?$money_put@DV?$ostreambuf_iterator@DU?$char_traits@D@std@@@std@@@std@@SAIPAPBVfacet@locale@2@PBV42@@Z 1004a149 f i libcpmt:xlocale.obj
 0001:000491cb       ?_Getcat@?$moneypunct@D$00@std@@SAIPAPBVfacet@locale@2@PBV42@@Z 1004a1cb f i libcpmt:xlocale.obj
 0001:00049270       ?_Getcat@?$moneypunct@D$0A@@std@@SAIPAPBVfacet@locale@2@PBV42@@Z 1004a270 f i libcpmt:xlocale.obj
 0001:00049316       ?_Getcat@?$time_get@DV?$istreambuf_iterator@DU?$char_traits@D@std@@@std@@@std@@SAIPAPBVfacet@locale@2@PBV42@@Z 1004a316 f i libcpmt:xlocale.obj
 0001:0004939d       ?_Getcat@?$time_put@DV?$ostreambuf_iterator@DU?$char_traits@D@std@@@std@@@std@@SAIPAPBVfacet@locale@2@PBV42@@Z 1004a39d f i libcpmt:xlocale.obj
 0001:0004941c       ?_Getfmt@?$time_get@DV?$istreambuf_iterator@DU?$char_traits@D@std@@@std@@@std@@IBE?AV?$istreambuf_iterator@DU?$char_traits@D@std@@@2@V32@0AAVios_base@2@AAHPAUtm@@PBD@Z 1004a41c f i libcpmt:xlocale.obj
 0001:00049598       ?_Getint@?$time_get@DV?$istreambuf_iterator@DU?$char_traits@D@std@@@std@@@std@@ABAHAAV?$istreambuf_iterator@DU?$char_traits@D@std@@@2@0HHAAHABV?$ctype@D@2@@Z 1004a598 f i libcpmt:xlocale.obj
 0001:000497c6       ?_Getmfld@?$money_get@DV?$istreambuf_iterator@DU?$char_traits@D@std@@@std@@@std@@ABE?AV?$basic_string@DU?$char_traits@D@std@@V?$allocator@D@2@@2@AAV?$istreambuf_iterator@DU?$char_traits@D@std@@@2@0_NAAVios_base@2@AAY0M@D@Z 1004a7c6 f i libcpmt:xlocale.obj
 0001:0004a47b       ?_Gettnames@_Locinfo@std@@QBE?AV_Timevec@2@XZ 1004b47b f i libcpmt:xlocale.obj
 0001:0004a492       ?_Init@?$_Mpunct@D@std@@IAEXABV_Locinfo@2@_N@Z 1004b492 f i libcpmt:xlocale.obj
 0001:0004a59d       ?_Init@?$collate@D@std@@IAEXABV_Locinfo@2@@Z 1004b59d f i libcpmt:xlocale.obj
 0001:0004a5b3       ?_Init@?$messages@D@std@@IAEXABV_Locinfo@2@@Z 1004b5b3 f i libcpmt:xlocale.obj
 0001:0004a5b6       ?_Init@?$money_get@DV?$istreambuf_iterator@DU?$char_traits@D@std@@@std@@@std@@IAEXABV_Locinfo@2@@Z 1004b5b6 f i libcpmt:xlocale.obj
 0001:0004a5b9       ?_Init@?$money_put@DV?$ostreambuf_iterator@DU?$char_traits@D@std@@@std@@@std@@IAEXABV_Locinfo@2@@Z 1004b5b9 f i libcpmt:xlocale.obj
 0001:0004a5bc       ?_Init@?$time_get@DV?$istreambuf_iterator@DU?$char_traits@D@std@@@std@@@std@@IAEXABV_Locinfo@2@@Z 1004b5bc f i libcpmt:xlocale.obj
 0001:0004a618       ?_Init@?$time_put@DV?$ostreambuf_iterator@DU?$char_traits@D@std@@@std@@@std@@IAEXABV_Locinfo@2@@Z 1004b618 f i libcpmt:xlocale.obj
 0001:0004a634       ?_Makexloc@_Locimp@locale@std@@CAXABV_Locinfo@3@HPAV123@PBV23@@Z 1004b634 f   libcpmt:xlocale.obj
 0001:0004aa42       ?_Makpat@?$_Mpunct@D@std@@AAEXAAUpattern@money_base@2@III@Z 1004ba42 f i libcpmt:xlocale.obj
 0001:0004aa93       ?_Put@?$money_put@DV?$ostreambuf_iterator@DU?$char_traits@D@std@@@std@@@std@@CA?AV?$ostreambuf_iterator@DU?$char_traits@D@std@@@2@V32@V?$_String_const_iterator@V?$_String_val@U?$_Simple_types@D@std@@@std@@@2@I@Z 1004ba93 f i libcpmt:xlocale.obj
 0001:0004aad7       ?_Putmfld@?$money_put@DV?$ostreambuf_iterator@DU?$char_traits@D@std@@@std@@@std@@ABE?AV?$ostreambuf_iterator@DU?$char_traits@D@std@@@2@V32@_NAAVios_base@2@D1V?$basic_string@DU?$char_traits@D@std@@V?$allocator@D@2@@2@D@Z 1004bad7 f i libcpmt:xlocale.obj
 0001:0004b17e       ?_Rep@?$money_put@DV?$ostreambuf_iterator@DU?$char_traits@D@std@@@std@@@std@@CA?AV?$ostreambuf_iterator@DU?$char_traits@D@std@@@2@V32@DI@Z 1004c17e f i libcpmt:xlocale.obj
 0001:0004b1b5       ?_Tidy@?$_Mpunct@D@std@@AAEXXZ 1004c1b5 f i libcpmt:xlocale.obj
 0001:0004b1e7       ?_Tidy@?$time_get@DV?$istreambuf_iterator@DU?$char_traits@D@std@@@std@@@std@@AAEXXZ 1004c1e7 f i libcpmt:xlocale.obj
 0001:0004b20f       ?begin@?$basic_string@DU?$char_traits@D@std@@V?$allocator@D@2@@std@@QAE?AV?$_String_iterator@V?$_String_val@U?$_Simple_types@D@std@@@std@@@2@XZ 1004c20f f i libcpmt:xlocale.obj
 0001:0004b228       ?curr_symbol@?$_Mpunct@D@std@@QBE?AV?$basic_string@DU?$char_traits@D@std@@V?$allocator@D@2@@2@XZ 1004c228 f i libcpmt:xlocale.obj
 0001:0004b255       ?date_order@?$time_get@DV?$istreambuf_iterator@DU?$char_traits@D@std@@@std@@@std@@QBE?AW4dateorder@time_base@2@XZ 1004c255 f i libcpmt:xlocale.obj
 0001:0004b273       ?decimal_point@?$_Mpunct@D@std@@QBEDXZ 1004c273 f i libcpmt:xlocale.obj
 0001:0004b291       ?do_close@?$messages@D@std@@MBEXH@Z 1004c291 f i libcpmt:xlocale.obj
 0001:0004b294       ?do_compare@?$collate@D@std@@MBEHPBD000@Z 1004c294 f i libcpmt:xlocale.obj
 0001:0004b2d1       ?do_curr_symbol@?$_Mpunct@D@std@@MBE?AV?$basic_string@DU?$char_traits@D@std@@V?$allocator@D@2@@2@XZ 1004c2d1 f i libcpmt:xlocale.obj
 0001:0004b2eb       ?do_date_order@?$time_get@DV?$istreambuf_iterator@DU?$char_traits@D@std@@@std@@@std@@MBE?AW4dateorder@time_base@2@XZ 1004c2eb f i libcpmt:xlocale.obj
 0001:0004b2ef       ?do_decimal_point@?$_Mpunct@D@std@@MBEDXZ 1004c2ef f i libcpmt:xlocale.obj
 0001:0004b2f3       ?do_frac_digits@?$_Mpunct@D@std@@MBEHXZ 1004c2f3 f i libcpmt:xlocale.obj
 0001:0004b2f7       ?do_get@?$messages@D@std@@MBE?AV?$basic_string@DU?$char_traits@D@std@@V?$allocator@D@2@@2@HHHABV32@@Z 1004c2f7 f i libcpmt:xlocale.obj
 0001:0004b31f       ?do_get@?$money_get@DV?$istreambuf_iterator@DU?$char_traits@D@std@@@std@@@std@@MBE?AV?$istreambuf_iterator@DU?$char_traits@D@std@@@2@V32@0_NAAVios_base@2@AAHAAO@Z 1004c31f f i libcpmt:xlocale.obj
 0001:0004b3f1       ?do_get@?$money_get@DV?$istreambuf_iterator@DU?$char_traits@D@std@@@std@@@std@@MBE?AV?$istreambuf_iterator@DU?$char_traits@D@std@@@2@V32@0_NAAVios_base@2@AAHAAV?$basic_string@DU?$char_traits@D@std@@V?$allocator@D@2@@2@@Z 1004c3f1 f i libcpmt:xlocale.obj
 0001:0004b4f7       ?do_get@?$time_get@DV?$istreambuf_iterator@DU?$char_traits@D@std@@@std@@@std@@MBE?AV?$istreambuf_iterator@DU?$char_traits@D@std@@@2@V32@0AAVios_base@2@AAHPAUtm@@DD@Z 1004c4f7 f i libcpmt:xlocale.obj
 0001:0004b985       ?do_get_date@?$time_get@DV?$istreambuf_iterator@DU?$char_traits@D@std@@@std@@@std@@MBE?AV?$istreambuf_iterator@DU?$char_traits@D@std@@@2@V32@0AAVios_base@2@AAHPAUtm@@@Z 1004c985 f i libcpmt:xlocale.obj
 0001:0004bf36       ?do_get_monthname@?$time_get@DV?$istreambuf_iterator@DU?$char_traits@D@std@@@std@@@std@@MBE?AV?$istreambuf_iterator@DU?$char_traits@D@std@@@2@V32@0AAVios_base@2@AAHPAUtm@@@Z 1004cf36 f i libcpmt:xlocale.obj
 0001:0004bf86       ?do_get_time@?$time_get@DV?$istreambuf_iterator@DU?$char_traits@D@std@@@std@@@std@@MBE?AV?$istreambuf_iterator@DU?$char_traits@D@std@@@2@V32@0AAVios_base@2@AAHPAUtm@@@Z 1004cf86 f i libcpmt:xlocale.obj
 0001:0004c0f0       ?do_get_weekday@?$time_get@DV?$istreambuf_iterator@DU?$char_traits@D@std@@@std@@@std@@MBE?AV?$istreambuf_iterator@DU?$char_traits@D@std@@@2@V32@0AAVios_base@2@AAHPAUtm@@@Z 1004d0f0 f i libcpmt:xlocale.obj
 0001:0004c140       ?do_get_year@?$time_get@DV?$istreambuf_iterator@DU?$char_traits@D@std@@@std@@@std@@MBE?AV?$istreambuf_iterator@DU?$char_traits@D@std@@@2@V32@0AAVios_base@2@AAHPAUtm@@@Z 1004d140 f i libcpmt:xlocale.obj
 0001:0004c1fb       ?do_grouping@?$_Mpunct@D@std@@MBE?AV?$basic_string@DU?$char_traits@D@std@@V?$allocator@D@2@@2@XZ 1004d1fb f i libcpmt:xlocale.obj
 0001:0004c215       ?do_hash@?$collate@D@std@@MBEJPBD0@Z 1004d215 f i libcpmt:xlocale.obj
 0001:0004c23a       ?do_neg_format@?$_Mpunct@D@std@@MBE?AUpattern@money_base@2@XZ 1004d23a f i libcpmt:xlocale.obj
 0001:0004c24c       ?do_negative_sign@?$_Mpunct@D@std@@MBE?AV?$basic_string@DU?$char_traits@D@std@@V?$allocator@D@2@@2@XZ 1004d24c f i libcpmt:xlocale.obj
 0001:0004c266       ?do_open@?$messages@D@std@@MBEHABV?$basic_string@DU?$char_traits@D@std@@V?$allocator@D@2@@2@ABVlocale@2@@Z 1004d266 f i libcpmt:xlocale.obj
 0001:0004c26c       ?do_pos_format@?$_Mpunct@D@std@@MBE?AUpattern@money_base@2@XZ 1004d26c f i libcpmt:xlocale.obj
 0001:0004c27e       ?do_positive_sign@?$_Mpunct@D@std@@MBE?AV?$basic_string@DU?$char_traits@D@std@@V?$allocator@D@2@@2@XZ 1004d27e f i libcpmt:xlocale.obj
 0001:0004c298       ?do_put@?$money_put@DV?$ostreambuf_iterator@DU?$char_traits@D@std@@@std@@@std@@MBE?AV?$ostreambuf_iterator@DU?$char_traits@D@std@@@2@V32@_NAAVios_base@2@DABV?$basic_string@DU?$char_traits@D@std@@V?$allocator@D@2@@2@@Z 1004d298 f i libcpmt:xlocale.obj
 0001:0004c43c       ?do_put@?$money_put@DV?$ostreambuf_iterator@DU?$char_traits@D@std@@@std@@@std@@MBE?AV?$ostreambuf_iterator@DU?$char_traits@D@std@@@2@V32@_NAAVios_base@2@DO@Z 1004d43c f i libcpmt:xlocale.obj
 0001:0004c5f9       ?do_put@?$time_put@DV?$ostreambuf_iterator@DU?$char_traits@D@std@@@std@@@std@@MBE?AV?$ostreambuf_iterator@DU?$char_traits@D@std@@@2@V32@AAVios_base@2@DPBUtm@@DD@Z 1004d5f9 f i libcpmt:xlocale.obj
 0001:0004c6fb       ?do_thousands_sep@?$_Mpunct@D@std@@MBEDXZ 1004d6fb f i libcpmt:xlocale.obj
 0001:0004c6ff       ?do_transform@?$collate@D@std@@MBE?AV?$basic_string@DU?$char_traits@D@std@@V?$allocator@D@2@@2@PBD0@Z 1004d6ff f i libcpmt:xlocale.obj
 0001:0004c79f       ?end@?$basic_string@DU?$char_traits@D@std@@V?$allocator@D@2@@std@@QAE?AV?$_String_iterator@V?$_String_val@U?$_Simple_types@D@std@@@std@@@2@XZ 1004d79f f i libcpmt:xlocale.obj
 0001:0004c7c0       ?frac_digits@?$_Mpunct@D@std@@QBEHXZ 1004d7c0 f i libcpmt:xlocale.obj
 0001:0004c7de       ?get_monthname@?$time_get@DV?$istreambuf_iterator@DU?$char_traits@D@std@@@std@@@std@@QBE?AV?$istreambuf_iterator@DU?$char_traits@D@std@@@2@V32@0AAVios_base@2@AAHPAUtm@@@Z 1004d7de f i libcpmt:xlocale.obj
 0001:0004c824       ?get_weekday@?$time_get@DV?$istreambuf_iterator@DU?$char_traits@D@std@@@std@@@std@@QBE?AV?$istreambuf_iterator@DU?$char_traits@D@std@@@2@V32@0AAVios_base@2@AAHPAUtm@@@Z 1004d824 f i libcpmt:xlocale.obj
 0001:0004c86a       ?get_year@?$time_get@DV?$istreambuf_iterator@DU?$char_traits@D@std@@@std@@@std@@QBE?AV?$istreambuf_iterator@DU?$char_traits@D@std@@@2@V32@0AAVios_base@2@AAHPAUtm@@@Z 1004d86a f i libcpmt:xlocale.obj
 0001:0004c8b0       ?grouping@?$_Mpunct@D@std@@QBE?AV?$basic_string@DU?$char_traits@D@std@@V?$allocator@D@2@@2@XZ 1004d8b0 f i libcpmt:xlocale.obj
 0001:0004c8dd       ?is@?$ctype@D@std@@QBE_NFD@Z 1004d8dd f i libcpmt:xlocale.obj
 0001:0004c8fc       ?narrow@?$ctype@D@std@@QBEDDD@Z 1004d8fc f i libcpmt:xlocale.obj
 0001:0004c929       ?neg_format@?$_Mpunct@D@std@@QBE?AUpattern@money_base@2@XZ 1004d929 f i libcpmt:xlocale.obj
 0001:0004c956       ?negative_sign@?$_Mpunct@D@std@@QBE?AV?$basic_string@DU?$char_traits@D@std@@V?$allocator@D@2@@2@XZ 1004d956 f i libcpmt:xlocale.obj
 0001:0004c983       ?pos_format@?$_Mpunct@D@std@@QBE?AUpattern@money_base@2@XZ 1004d983 f i libcpmt:xlocale.obj
 0001:0004c9b0       ?positive_sign@?$_Mpunct@D@std@@QBE?AV?$basic_string@DU?$char_traits@D@std@@V?$allocator@D@2@@2@XZ 1004d9b0 f i libcpmt:xlocale.obj
 0001:0004c9dd       ?thousands_sep@?$_Mpunct@D@std@@QBEDXZ 1004d9dd f i libcpmt:xlocale.obj
 0001:0004c9fb       ?widen@?$ctype@D@std@@QBEDD@Z 1004d9fb f i libcpmt:xlocale.obj
 0001:0004ca24       __Stolx                    1004da24 f   libcpmt:xstol.obj
 0001:0004caf2       __Stoul                    1004daf2 f   libcpmt:xstoul.obj
 0001:0004cb10       __Stoulx                   1004db10 f   libcpmt:xstoul.obj
 0001:0004ccdf       __Stoll                    1004dcdf f   libcpmt:xstoll.obj
 0001:0004ccfd       __Stollx                   1004dcfd f   libcpmt:xstoll.obj
 0001:0004cdfe       __Stoull                   1004ddfe f   libcpmt:xstoull.obj
 0001:0004ce1c       __Stoullx                  1004de1c f   libcpmt:xstoull.obj
 0001:0004d075       __Getcoll                  1004e075 f   libcpmt:xstrcoll.obj
 0001:0004d09e       __Strcoll                  1004e09e f   libcpmt:xstrcoll.obj
 0001:0004d155       __Getdateorder             1004e155 f   libcpmt:xdateord.obj
 0001:0004d1e0       __Mbrtowc                  1004e1e0 f   libcpmt:xmbtowc.obj
 0001:0004d3ca       __Wcscoll                  1004e3ca f   libcpmt:xwcscoll.obj
 0001:0004d474       _wmemcmp                   1004e474 f i libcpmt:xwcscoll.obj
 0001:0004d4b7       __Wcsxfrm                  1004e4b7 f   libcpmt:xwcsxfrm.obj
 0001:0004d5ac       __Getwctype                1004e5ac f   libcpmt:xgetwctype.obj
 0001:0004d5d4       __Getwctypes               1004e5d4 f   libcpmt:xgetwctype.obj
 0001:0004d5fa       __Towlower                 1004e5fa f   libcpmt:xtowlower.obj
 0001:0004d672       __Towupper                 1004e672 f   libcpmt:xtowupper.obj
 0001:0004d6ef       __Strxfrm                  1004e6ef f   libcpmt:xstrxfrm.obj
 0001:0004d7c3       ___crtCompareStringA       1004e7c3 f   libcpmt:StlCompareStringA.obj
 0001:0004dacb       ___crtCompareStringW       1004eacb f   libcpmt:StlCompareStringW.obj
 0001:0004db44       ___crtLCMapStringW         1004eb44 f   libcpmt:StlLCMapStringW.obj
 0001:0004db8c       _GetModuleHandleA@4        1004eb8c f   kernel32:KERNEL32.dll
 0001:0004db92       _GetProcAddress@8          1004eb92 f   kernel32:KERNEL32.dll
 0001:0004db98       _FindFirstFileA@8          1004eb98 f   kernel32:KERNEL32.dll
 0001:0004db9e       _FindNextFileA@8           1004eb9e f   kernel32:KERNEL32.dll
 0001:0004dba4       _CloseHandle@4             1004eba4 f   kernel32:KERNEL32.dll
 0001:0004dbaa       _ReleaseSemaphore@12       1004ebaa f   kernel32:KERNEL32.dll
 0001:0004dbb0       _ReleaseMutex@4            1004ebb0 f   kernel32:KERNEL32.dll
 0001:0004dbb6       _WaitForSingleObject@8     1004ebb6 f   kernel32:KERNEL32.dll
 0001:0004dbbc       _CreateMutexA@12           1004ebbc f   kernel32:KERNEL32.dll
 0001:0004dbc2       _CreateThread@24           1004ebc2 f   kernel32:KERNEL32.dll
 0001:0004dbc8       _TerminateThread@8         1004ebc8 f   kernel32:KERNEL32.dll
 0001:0004dbce       _CreateSemaphoreA@16       1004ebce f   kernel32:KERNEL32.dll
 0001:0004dbd4       _UnhandledExceptionFilter@4 1004ebd4 f   kernel32:KERNEL32.dll
 0001:0004dbda       _SetUnhandledExceptionFilter@4 1004ebda f   kernel32:KERNEL32.dll
 0001:0004dbe0       _GetCurrentProcess@0       1004ebe0 f   kernel32:KERNEL32.dll
 0001:0004dbe6       _TerminateProcess@8        1004ebe6 f   kernel32:KERNEL32.dll
 0001:0004dbec       _IsProcessorFeaturePresent@4 1004ebec f   kernel32:KERNEL32.dll
 0001:0004dbf2       _QueryPerformanceCounter@4 1004ebf2 f   kernel32:KERNEL32.dll
 0001:0004dbf8       _GetCurrentProcessId@0     1004ebf8 f   kernel32:KERNEL32.dll
 0001:0004dbfe       _GetCurrentThreadId@0      1004ebfe f   kernel32:KERNEL32.dll
 0001:0004dc04       _GetSystemTimeAsFileTime@4 1004ec04 f   kernel32:KERNEL32.dll
 0001:0004dc0a       _InitializeSListHead@4     1004ec0a f   kernel32:KERNEL32.dll
 0001:0004dc10       _IsDebuggerPresent@0       1004ec10 f   kernel32:KERNEL32.dll
 0001:0004dc16       _GetStartupInfoW@4         1004ec16 f   kernel32:KERNEL32.dll
 0001:0004dc1c       _GetModuleHandleW@4        1004ec1c f   kernel32:KERNEL32.dll
 0001:0004dc22       _WideCharToMultiByte@32    1004ec22 f   kernel32:KERNEL32.dll
 0001:0004dc28       _GetLastError@0            1004ec28 f   kernel32:KERNEL32.dll
 0001:0004dc2e       _FormatMessageW@28         1004ec2e f   kernel32:KERNEL32.dll
 0001:0004dc34       _EnterCriticalSection@4    1004ec34 f   kernel32:KERNEL32.dll
 0001:0004dc3a       _LeaveCriticalSection@4    1004ec3a f   kernel32:KERNEL32.dll
 0001:0004dc40       _DeleteCriticalSection@4   1004ec40 f   kernel32:KERNEL32.dll
 0001:0004dc46       _MultiByteToWideChar@24    1004ec46 f   kernel32:KERNEL32.dll
 0001:0004dc4c       _EncodePointer@4           1004ec4c f   kernel32:KERNEL32.dll
 0001:0004dc52       _DecodePointer@4           1004ec52 f   kernel32:KERNEL32.dll
 0001:0004dc58       _SetLastError@4            1004ec58 f   kernel32:KERNEL32.dll
 0001:0004dc5e       _InitializeCriticalSectionAndSpinCount@8 1004ec5e f   kernel32:KERNEL32.dll
 0001:0004dc64       _CreateEventW@16           1004ec64 f   kernel32:KERNEL32.dll
 0001:0004dc6a       _SwitchToThread@0          1004ec6a f   kernel32:KERNEL32.dll
 0001:0004dc70       _TlsAlloc@0                1004ec70 f   kernel32:KERNEL32.dll
 0001:0004dc76       _TlsGetValue@4             1004ec76 f   kernel32:KERNEL32.dll
 0001:0004dc7c       _TlsSetValue@8             1004ec7c f   kernel32:KERNEL32.dll
 0001:0004dc82       _TlsFree@4                 1004ec82 f   kernel32:KERNEL32.dll
 0001:0004dc88       _GetTickCount@0            1004ec88 f   kernel32:KERNEL32.dll
 0001:0004dc8e       _CompareStringW@24         1004ec8e f   kernel32:KERNEL32.dll
 0001:0004dc94       _LCMapStringW@24           1004ec94 f   kernel32:KERNEL32.dll
 0001:0004dc9a       _GetLocaleInfoW@16         1004ec9a f   kernel32:KERNEL32.dll
 0001:0004dca0       _GetStringTypeW@16         1004eca0 f   kernel32:KERNEL32.dll
 0001:0004dca6       _GetCPInfo@8               1004eca6 f   kernel32:KERNEL32.dll
 0001:0004dcb0       _memcpy                    1004ecb0 f   libvcruntime:memcpy.obj
 0001:0004e390       _strchr                    1004f390 f   libvcruntime:strchr.obj
 0001:0004e3fe       ___from_strstr_to_strchr   1004f3fe     libvcruntime:strchr.obj
 0001:0004e510       _memmove                   1004f510 f   libvcruntime:memmove.obj
 0001:0004ebf0       _memset                    1004fbf0 f   libvcruntime:memset.obj
 0001:0004eda0       ??$__crt_fast_decode_pointer@P6AXXZ@@YAP6AXXZQ6AXXZ@Z 1004fda0 f i libvcruntime:purevirt.obj
 0001:0004edb9       ??$__crt_fast_encode_pointer@P6AXXZ@@YAP6AXXZQ6AXXZ@Z 1004fdb9 f i libvcruntime:purevirt.obj
 0001:0004eddd       ??$__crt_interlocked_exchange_pointer@$$A6AXXZP6AXXZ@@YAP6AXXZPDS6AXXZQ6AXXZ@Z 1004fddd f i libvcruntime:purevirt.obj
 0001:0004eded       ??$__crt_interlocked_read_pointer@$$A6AXXZ@@YAP6AXXZPDS6AXXZ@Z 1004fded f i libvcruntime:purevirt.obj
 0001:0004edf9       ?__crt_interlocked_read_32@@YAHPDH@Z 1004fdf9 f i libvcruntime:purevirt.obj
 0001:0004ee05       __get_purecall_handler     1004fe05 f   libvcruntime:purevirt.obj
 0001:0004ee1f       __purecall                 1004fe1f f   libvcruntime:purevirt.obj
 0001:0004ee42       __set_purecall_handler     1004fe42 f   libvcruntime:purevirt.obj
 0001:0004ee70       ___DestructExceptionObject 1004fe70 f   libvcruntime:ehhelpers.obj
 0001:0004ef38       ?_CallMemberFunction0@@YGXQAX0@Z 1004ff38 f i libvcruntime:ehhelpers.obj
 0001:0004ef48       ?raw_name@type_info@@QBEPBDXZ 1004ff48 f i libvcruntime:ehhelpers.obj
 0001:0004ef4c       __IsExceptionObjectToBeDestroyed 1004ff4c f   libvcruntime:ehhelpers.obj
 0001:0004ef7b       __SetWinRTOutOfMemoryExceptionCallback 1004ff7b f   libvcruntime:ehhelpers.obj
 0001:0004ef8b       ___AdjustPointer           1004ff8b f   libvcruntime:ehhelpers.obj
 0001:0004efb9       ___FrameUnwindFilter       1004ffb9 f   libvcruntime:ehhelpers.obj
 0001:0004f00f       ___GetPlatformExceptionInfo 1005000f f   libvcruntime:ehhelpers.obj
 0001:0004f06e       ___current_exception       1005006e f   libvcruntime:ehhelpers.obj
 0001:0004f079       ___current_exception_context 10050079 f   libvcruntime:ehhelpers.obj
 0001:0004f084       ___processing_throw        10050084 f   libvcruntime:ehhelpers.obj
 0001:0004f08f       ___std_terminate           1005008f f   libvcruntime:ehhelpers.obj
 0001:0004f094       __is_exception_typeof      10050094 f   libvcruntime:ehhelpers.obj
 0001:0004f161       ??$?RD@__crt_public_free_policy@@QBEXQBD@Z 10050161 f i libvcruntime:std_exception.obj
 0001:0004f175       ??0?$__crt_unique_heap_ptr@DU__crt_public_free_policy@@@@QAE@QAD@Z 10050175 f i libvcruntime:std_exception.obj
 0001:0004f186       ??1?$__crt_unique_heap_ptr@DU__crt_public_free_policy@@@@QAE@XZ 10050186 f i libvcruntime:std_exception.obj
 0001:0004f19a       ??B?$__crt_unique_heap_ptr@DU__crt_public_free_policy@@@@QBE_NXZ 1005019a f i libvcruntime:std_exception.obj
 0001:0004f1a1       ?detach@?$__crt_unique_heap_ptr@DU__crt_public_free_policy@@@@QAEPADXZ 100501a1 f i libvcruntime:std_exception.obj
 0001:0004f1a7       ?get@?$__crt_unique_heap_ptr@DU__crt_public_free_policy@@@@QBEPADXZ 100501a7 f i libvcruntime:std_exception.obj
 0001:0004f1aa       ?is_valid@?$__crt_unique_heap_ptr@DU__crt_public_free_policy@@@@QBE_NXZ 100501aa f i libvcruntime:std_exception.obj
 0001:0004f1b1       ?release@?$__crt_unique_heap_ptr@DU__crt_public_free_policy@@@@QAEXXZ 100501b1 f i libvcruntime:std_exception.obj
 0001:0004f1c5       ___std_exception_copy      100501c5 f   libvcruntime:std_exception.obj
 0001:0004f240       ___std_exception_destroy   10050240 f   libvcruntime:std_exception.obj
 0001:0004f266       __CxxThrowException@8      10050266 f   libvcruntime:throw.obj
 0001:0004f2ee       ??$?0AAViterator@TryBlockMap@__FrameHandler3@@AAV012@$0A@@?$pair@Viterator@TryBlockMap@__FrameHandler3@@V123@@std@@QAE@AAViterator@TryBlockMap@__FrameHandler3@@0@Z 100502ee f i libvcruntime:trnsctrl.obj
 0001:0004f31b       ??$forward@AAViterator@TryBlockMap@__FrameHandler3@@@std@@YAAAViterator@TryBlockMap@__FrameHandler3@@AAV123@@Z 1005031b f i libvcruntime:trnsctrl.obj
 0001:0004f325       ??0iterator@TryBlockMap@__FrameHandler3@@QAE@AAV12@I@Z 10050325 f i libvcruntime:trnsctrl.obj
 0001:0004f33e       ?GetRangeOfTrysToCheck@__FrameHandler3@@SA?AU?$pair@Viterator@TryBlockMap@__FrameHandler3@@V123@@std@@AAVTryBlockMap@1@HH@Z 1005033e f   libvcruntime:trnsctrl.obj
 0001:0004f3e0       ?_CallCatchBlock2@@YAPAXPAUEHRegistrationNode@@PBU_s_FuncInfo@@PAXHK@Z 100503e0 f   libvcruntime:trnsctrl.obj
 0001:0004f455       ?_CallSETranslator@@YAHPAUEHExceptionRecord@@PAUEHRegistrationNode@@PAX2PBU_s_FuncInfo@@H1@Z 10050455 f   libvcruntime:trnsctrl.obj
 0001:0004f566       ?_JumpToContinuation@@YGXPAXPAUEHRegistrationNode@@@Z 10050566 f   libvcruntime:trnsctrl.obj
 0001:0004f5a2       ?_UnwindNestedFrames@@YGXPAUEHRegistrationNode@@PAUEHExceptionRecord@@@Z 100505a2 f   libvcruntime:trnsctrl.obj
 0001:0004f609       ?getFuncInfo@TryBlockMap@__FrameHandler3@@QAEPBU_s_FuncInfo@@XZ 10050609 f i libvcruntime:trnsctrl.obj
 0001:0004f60c       __CatchGuardHandler        1005060c f   libvcruntime:trnsctrl.obj
 0001:0004f649       __CreateFrameInfo          10050649 f   libvcruntime:trnsctrl.obj
 0001:0004f676       __FindAndUnlinkFrame       10050676 f   libvcruntime:trnsctrl.obj
 0001:0004f6cc       __TranslatorGuardHandler   100506cc f   libvcruntime:trnsctrl.obj
 0001:0004f790       ___CxxFrameHandler         10050790 f   libvcruntime:trnsctrl.obj
 0001:0004f7d3       ___CxxFrameHandler2        100507d3 f   libvcruntime:trnsctrl.obj
 0001:0004f816       ___CxxFrameHandler3        10050816 f   libvcruntime:trnsctrl.obj
 0001:0004f859       ___CxxLongjmpUnwind@4      10050859 f   libvcruntime:trnsctrl.obj
 0001:0004f890       _memchr                    10050890 f   libvcruntime:memchr.obj
 0001:0004f9b0       __except_handler4          100509b0 f   libvcruntime:chandler4.obj
 0001:0004fb6c       ??$?RD@__crt_internal_free_policy@@QBEXQBD@Z 10050b6c f i libvcruntime:std_type_info.obj
 0001:0004fb80       ??$?RX@__crt_internal_free_policy@@QBEXQBX@Z 10050b80 f i libvcruntime:std_type_info.obj
 0001:0004fb94       ??$__crt_interlocked_compare_exchange_pointer@$$CBDPAD$$T@@YAPBDPDSBDQAD$$T@Z 10050b94 f i libvcruntime:std_type_info.obj
 0001:0004fbaa       ??$__crt_interlocked_read_pointer@$$CBD@@YAPBDPDSBD@Z 10050baa f i libvcruntime:std_type_info.obj
 0001:0004fbb6       ??0?$__crt_unique_heap_ptr@DU__crt_internal_free_policy@@@@QAE@QAD@Z 10050bb6 f i libvcruntime:std_type_info.obj
 0001:0004fbc7       ??0?$__crt_unique_heap_ptr@XU__crt_internal_free_policy@@@@QAE@QAX@Z 10050bc7 f i libvcruntime:std_type_info.obj
 0001:0004fbd8       ??1?$__crt_unique_heap_ptr@DU__crt_internal_free_policy@@@@QAE@XZ 10050bd8 f i libvcruntime:std_type_info.obj
 0001:0004fbec       ??1?$__crt_unique_heap_ptr@XU__crt_internal_free_policy@@@@QAE@XZ 10050bec f i libvcruntime:std_type_info.obj
 0001:0004fc0c       ??B?$__crt_unique_heap_ptr@DU__crt_internal_free_policy@@@@QBE_NXZ 10050c0c f i libvcruntime:std_type_info.obj
 0001:0004fc13       ??B?$__crt_unique_heap_ptr@XU__crt_internal_free_policy@@@@QBE_NXZ 10050c13 f i libvcruntime:std_type_info.obj
 0001:0004fc42       ?detach@?$__crt_unique_heap_ptr@XU__crt_internal_free_policy@@@@QAEPAXXZ 10050c42 f i libvcruntime:std_type_info.obj
 0001:0004fc48       ?get@?$__crt_unique_heap_ptr@DU__crt_internal_free_policy@@@@QBEPADXZ 10050c48 f i libvcruntime:std_type_info.obj
 0001:0004fc4b       ?get@?$__crt_unique_heap_ptr@XU__crt_internal_free_policy@@@@QBEPAXXZ 10050c4b f i libvcruntime:std_type_info.obj
 0001:0004fc4e       ?is_valid@?$__crt_unique_heap_ptr@DU__crt_internal_free_policy@@@@QBE_NXZ 10050c4e f i libvcruntime:std_type_info.obj
 0001:0004fc55       ?is_valid@?$__crt_unique_heap_ptr@XU__crt_internal_free_policy@@@@QBE_NXZ 10050c55 f i libvcruntime:std_type_info.obj
 0001:0004fc5c       ?release@?$__crt_unique_heap_ptr@DU__crt_internal_free_policy@@@@QAEXXZ 10050c5c f i libvcruntime:std_type_info.obj
 0001:0004fc70       ?release@?$__crt_unique_heap_ptr@XU__crt_internal_free_policy@@@@QAEXXZ 10050c70 f i libvcruntime:std_type_info.obj
 0001:0004fc84       ___std_type_info_compare   10050c84 f   libvcruntime:std_type_info.obj
 0001:0004fccf       ___std_type_info_destroy_list 10050ccf f   libvcruntime:std_type_info.obj
 0001:0004fcfa       ___std_type_info_hash      10050cfa f   libvcruntime:std_type_info.obj
 0001:0004fd29       ___std_type_info_name      10050d29 f   libvcruntime:std_type_info.obj
 0001:0004fe1c       ___vcrt_initialize         10050e1c f   libvcruntime:initialization.obj
 0001:0004fe4f       ___vcrt_thread_attach      10050e4f f   libvcruntime:initialization.obj
 0001:0004fe5c       ___vcrt_thread_detach      10050e5c f   libvcruntime:initialization.obj
 0001:0004fe69       ___vcrt_uninitialize       10050e69 f   libvcruntime:initialization.obj
 0001:0004fe8f       ___vcrt_uninitialize_critical 10050e8f f   libvcruntime:initialization.obj
 0001:0004fe9a       ___uncaught_exception      10050e9a f   libvcruntime:uncaught_exception.obj
 0001:0004ffe4       _memcmp                    10050fe4 f   libvcruntime:memcmp.obj
 0001:000524c9       ??$?B$$A6AXXZ@__crt_fast_encoded_nullptr_t@@QBEP6AXXZXZ 100534c9 f i libvcruntime:purevirt_data.obj
 0001:000524cf       ?__crt_fast_encode_pointer@@YA?AU__crt_fast_encoded_nullptr_t@@$$T@Z 100534cf f i libvcruntime:purevirt_data.obj
 0001:000524da       ___vcrt_initialize_pure_virtual_call_handler 100534da f   libvcruntime:purevirt_data.obj
 0001:000524e7       ??$?RU__vcrt_ptd@@@__crt_internal_free_policy@@QBEXQBU__vcrt_ptd@@@Z 100534e7 f i libvcruntime:per_thread_data.obj
 0001:000524fb       ??0?$__crt_unique_heap_ptr@U__vcrt_ptd@@U__crt_internal_free_policy@@@@QAE@QAU__vcrt_ptd@@@Z 100534fb f i libvcruntime:per_thread_data.obj
 0001:0005251e       ??1?$__crt_unique_heap_ptr@U__vcrt_ptd@@U__crt_internal_free_policy@@@@QAE@XZ 1005351e f i libvcruntime:per_thread_data.obj
 0001:0005253d       ??B?$__crt_unique_heap_ptr@U__vcrt_ptd@@U__crt_internal_free_policy@@@@QBE_NXZ 1005353d f i libvcruntime:per_thread_data.obj
 0001:00052544       ?detach@?$__crt_unique_heap_ptr@U__vcrt_ptd@@U__crt_internal_free_policy@@@@QAEPAU__vcrt_ptd@@XZ 10053544 f i libvcruntime:per_thread_data.obj
 0001:0005254a       ?get@?$__crt_unique_heap_ptr@U__vcrt_ptd@@U__crt_internal_free_policy@@@@QBEPAU__vcrt_ptd@@XZ 1005354a f i libvcruntime:per_thread_data.obj
 0001:0005254d       ?is_valid@?$__crt_unique_heap_ptr@U__vcrt_ptd@@U__crt_internal_free_policy@@@@QBE_NXZ 1005354d f i libvcruntime:per_thread_data.obj
 0001:00052554       ?release@?$__crt_unique_heap_ptr@U__vcrt_ptd@@U__crt_internal_free_policy@@@@QAEXXZ 10053554 f i libvcruntime:per_thread_data.obj
 0001:00052588       ___vcrt_freefls@4          10053588 f   libvcruntime:per_thread_data.obj
 0001:000525ab       ___vcrt_freeptd            100535ab f   libvcruntime:per_thread_data.obj
 0001:000525ee       ___vcrt_getptd             100535ee f   libvcruntime:per_thread_data.obj
 0001:000525ff       ___vcrt_getptd_noexit      100535ff f   libvcruntime:per_thread_data.obj
 0001:000526b5       ___vcrt_getptd_noinit      100536b5 f   libvcruntime:per_thread_data.obj
 0001:000526f9       ___vcrt_initialize_ptd     100536f9 f   libvcruntime:per_thread_data.obj
 0001:00052738       ___vcrt_uninitialize_ptd   10053738 f   libvcruntime:per_thread_data.obj
 0001:0005300c       ??$TypeMatchHelper@V__FrameHandler3@@@@YAHPBU_s_HandlerType@@PBU_s_CatchableType@@PBU_s_ThrowInfo@@@Z 1005400c f i libvcruntime:frame.obj
 0001:000530bd       ??$__InternalCxxFrameHandler@V__FrameHandler3@@@@YA?AW4_EXCEPTION_DISPOSITION@@PAUEHExceptionRecord@@PAUEHRegistrationNode@@PAU_CONTEXT@@PAXPBU_s_FuncInfo@@H1E@Z 100540bd f i libvcruntime:frame.obj
 0001:000531ff       ??0HandlerMap@__FrameHandler3@@QAE@PBU_s_TryBlockMapEntry@@PAX@Z 100541ff f i libvcruntime:frame.obj
 0001:0005321b       ??0TryBlockMap@__FrameHandler3@@QAE@PBU_s_FuncInfo@@PAX@Z 1005421b f i libvcruntime:frame.obj
 0001:00053234       ??0bad_exception@std@@QAE@ABV01@@Z 10054234 f i libvcruntime:frame.obj
 0001:00053255       ??0bad_exception@std@@QAE@XZ 10054255 f i libvcruntime:frame.obj
 0001:00053273       ??0iterator@HandlerMap@__FrameHandler3@@QAE@AAV12@I@Z 10054273 f i libvcruntime:frame.obj
 0001:0005328c       ??1bad_exception@std@@UAE@XZ 1005428c f i libvcruntime:frame.obj
 0001:000532a1       ??8iterator@HandlerMap@__FrameHandler3@@QBE_NABV012@@Z 100542a1 f i libvcruntime:frame.obj
 0001:000532b8       ??8type_info@@QBE_NABV0@@Z 100542b8 f i libvcruntime:frame.obj
 0001:000532de       ??9iterator@HandlerMap@__FrameHandler3@@QBE_NABV012@@Z 100542de f i libvcruntime:frame.obj
 0001:000532f5       ??Diterator@HandlerMap@__FrameHandler3@@QAEPBU_s_HandlerType@@XZ 100542f5 f i libvcruntime:frame.obj
 0001:00053304       ??Diterator@TryBlockMap@__FrameHandler3@@QAEPBU_s_TryBlockMapEntry@@XZ 10054304 f i libvcruntime:frame.obj
 0001:00053313       ??Eiterator@HandlerMap@__FrameHandler3@@QAEAAV012@XZ 10054313 f i libvcruntime:frame.obj
 0001:00053319       ??Eiterator@TryBlockMap@__FrameHandler3@@QAEAAV012@XZ 10054319 f i libvcruntime:frame.obj
 0001:0005331f       ??Miterator@TryBlockMap@__FrameHandler3@@QBE_NABV012@@Z 1005431f f i libvcruntime:frame.obj
 0001:00053336       ??_Ebad_exception@std@@UAEPAXI@Z 10054336 f i libvcruntime:frame.obj
 0001:00053336       ??_Gbad_exception@std@@UAEPAXI@Z 10054336 f i libvcruntime:frame.obj
 0001:0005336e       ?BuildCatchObject@__FrameHandler3@@SAXPAUEHExceptionRecord@@PAXPBU_s_HandlerType@@PBU_s_CatchableType@@@Z 1005436e f   libvcruntime:frame.obj
 0001:00053373       ?BuildCatchObjectHelper@__FrameHandler3@@SAHPAUEHExceptionRecord@@PAXPBU_s_HandlerType@@PBU_s_CatchableType@@@Z 10054373 f   libvcruntime:frame.obj
 0001:00053657       ?FrameUnwindToEmptyState@__FrameHandler3@@SAXPAUEHRegistrationNode@@PAXPBU_s_FuncInfo@@@Z 10054657 f   libvcruntime:frame.obj
 0001:00053675       ?FrameUnwindToState@__FrameHandler3@@SAXPAUEHRegistrationNode@@PAXPBU_s_FuncInfo@@H@Z 10054675 f   libvcruntime:frame.obj
 0001:00053797       ?GetMaxState@__FrameHandler3@@SAHPAXPBU_s_FuncInfo@@@Z 10054797 f i libvcruntime:frame.obj
 0001:000538ab       ?TypeMatch@__FrameHandler3@@SAHPBU_s_HandlerType@@PBU_s_CatchableType@@PBU_s_ThrowInfo@@@Z 100548ab f   libvcruntime:frame.obj
 0001:000538b6       ?_CallMemberFunction1@@YGXQAX00@Z 100548b6 f i libvcruntime:frame.obj
 0001:000538ca       ?_CallMemberFunction2@@YGXQAX00H@Z 100548ca f i libvcruntime:frame.obj
 0001:000538e1       ?_ValidateExecute@@YA_NP6GHXZ@Z 100548e1 f i libvcruntime:frame.obj
 0001:000538f0       ?_ValidateRead@@YA_NPBXI@Z 100548f0 f i libvcruntime:frame.obj
 0001:000538ff       ?_ValidateWrite@@YA_NPAXI@Z 100548ff f i libvcruntime:frame.obj
 0001:0005390e       ?begin@HandlerMap@__FrameHandler3@@QAE?AViterator@12@XZ 1005490e f i libvcruntime:frame.obj
 0001:00053922       ?end@HandlerMap@__FrameHandler3@@QAE?AViterator@12@XZ 10054922 f i libvcruntime:frame.obj
 0001:00053937       ?getESTypes@__FrameHandler3@@SAPBU_s_ESTypeList@@PBU_s_FuncInfo@@@Z 10054937 f i libvcruntime:frame.obj
 0001:00053944       ?getLastEntry@HandlerMap@__FrameHandler3@@QAEPBU_s_HandlerType@@XZ 10054944 f i libvcruntime:frame.obj
 0001:00053955       ?getMagicNum@__FrameHandler3@@SAIPBU_s_FuncInfo@@@Z 10054955 f i libvcruntime:frame.obj
 0001:00053967       ?getNumTryBlocks@TryBlockMap@__FrameHandler3@@QAEIXZ 10054967 f i libvcruntime:frame.obj
 0001:0005396d       ?isEHs@__FrameHandler3@@SA_NPBU_s_FuncInfo@@@Z 1005496d f i libvcruntime:frame.obj
 0001:0005397d       ?isNoExcept@__FrameHandler3@@SA_NPBU_s_FuncInfo@@@Z 1005497d f i libvcruntime:frame.obj
 0001:00053991       ___BuildCatchObject        10054991 f   libvcruntime:frame.obj
 0001:00053996       ___BuildCatchObjectHelper  10054996 f   libvcruntime:frame.obj
 0001:000539a1       ___TypeMatch               100549a1 f   libvcruntime:frame.obj
 0001:000539ac       ___vcrt_EncodePointer      100549ac f i libvcruntime:frame.obj
 0001:000539c0       __CallSettingFrame@12      100549c0 f   libvcruntime:lowhelpr.obj
 0001:000539e7       __NLG_Return               100549e7     libvcruntime:lowhelpr.obj
 0001:00053a2c       ___except_validate_context_record 10054a2c f   libvcruntime:jbcxrval.obj
 0001:00053a68       ___except_validate_jump_buffer 10054a68 f   libvcruntime:jbcxrval.obj
 0001:00053aa0       ___except_validate_jump_buffer_common 10054aa0 f i libvcruntime:jbcxrval.obj
 0001:00053af0       __local_unwind4            10054af0 f   libvcruntime:exsup4.obj
 0001:00053bc8       __seh_longjmp_unwind4@4    10054bc8 f   libvcruntime:exsup4.obj
 0001:00053bf0       @_EH4_CallFilterFunc@8     10054bf0 f   libvcruntime:exsup4.obj
 0001:00053c08       @_EH4_TransferToHandler@8  10054c08 f   libvcruntime:exsup4.obj
 0001:00053c24       @_EH4_GlobalUnwind2@8      10054c24 f   libvcruntime:exsup4.obj
 0001:00053c40       @_EH4_LocalUnwind@16       10054c40 f   libvcruntime:exsup4.obj
 0001:00053cb0       ??0Block@_HeapManager@@QAE@XZ 10054cb0 f i libvcruntime:undname.obj
 0001:00053cb6       ??0DName@@QAE@AAPBDD@Z     10054cb6 f   libvcruntime:undname.obj
 0001:00053d94       ??0DName@@QAE@ABV0@@Z      10054d94 f i libvcruntime:undname.obj
 0001:00053daf       ??0DName@@QAE@D@Z          10054daf f   libvcruntime:undname.obj
 0001:00053ddd       ??0DName@@QAE@PAV0@@Z      10054ddd f   libvcruntime:undname.obj
 0001:00053e37       ??0DName@@QAE@PBD@Z        10054e37 f   libvcruntime:undname.obj
 0001:00053e76       ??0DName@@QAE@W4DNameStatus@@@Z 10054e76 f   libvcruntime:undname.obj
 0001:00053ec6       ??0DName@@QAE@XZ           10054ec6 f i libvcruntime:undname.obj
 0001:00053ed2       ??0DName@@QAE@_J@Z         10054ed2 f   libvcruntime:undname.obj
 0001:00053f81       ??0DName@@QAE@_K@Z         10054f81 f   libvcruntime:undname.obj
 0001:00054000       ??0DNameNode@@IAE@XZ       10055000 f i libvcruntime:undname.obj
 0001:0005400b       ??0Replicator@@QAE@XZ      1005500b f i libvcruntime:undname.obj
 0001:0005401c       ??0UnDecorator@@QAE@PBDP6APADJ@ZK@Z 1005501c f i libvcruntime:undname.obj
 0001:0005407b       ??0charNode@@QAE@D@Z       1005507b f i libvcruntime:undname.obj
 0001:00054095       ??0pDNameNode@@QAE@PAVDName@@@Z 10055095 f   libvcruntime:undname.obj
 0001:000540c7       ??0pairNode@@QAE@PBVDNameNode@@0@Z 100550c7 f i libvcruntime:undname.obj
 0001:000540ed       ??0pcharNode@@QAE@PBDH@Z   100550ed f   libvcruntime:undname.obj
 0001:00054163       ??2@YAPAXIAAV_HeapManager@@H@Z 10055163 f i libvcruntime:undname.obj
 0001:0005417d       ??4DName@@QAEAAV0@ABV0@@Z  1005517d f   libvcruntime:undname.obj
 0001:00054198       ??4DName@@QAEAAV0@D@Z      10055198 f i libvcruntime:undname.obj
 0001:000541c6       ??4DName@@QAEAAV0@PAV0@@Z  100551c6 f   libvcruntime:undname.obj
 0001:00054218       ??4DName@@QAEAAV0@PBD@Z    10055218 f   libvcruntime:undname.obj
 0001:0005424d       ??4DName@@QAEAAV0@W4DNameStatus@@@Z 1005524d f   libvcruntime:undname.obj
 0001:0005428b       ??AReplicator@@QBE?AVDName@@H@Z 1005528b f   libvcruntime:undname.obj
 0001:000542e2       ??H@YA?AVDName@@DABV0@@Z   100552e2 f i libvcruntime:undname.obj
 0001:0005430c       ??H@YA?AVDName@@PBDABV0@@Z 1005530c f i libvcruntime:undname.obj
 0001:00054336       ??H@YA?AVDName@@W4DNameStatus@@ABV0@@Z 10055336 f i libvcruntime:undname.obj
 0001:00054360       ??HDName@@QBE?AV0@ABV0@@Z  10055360 f   libvcruntime:undname.obj
 0001:0005438a       ??HDName@@QBE?AV0@D@Z      1005538a f   libvcruntime:undname.obj
 0001:000543b4       ??HDName@@QBE?AV0@PAV0@@Z  100553b4 f   libvcruntime:undname.obj
 0001:000543de       ??HDName@@QBE?AV0@PBD@Z    100553de f   libvcruntime:undname.obj
 0001:00054408       ??HDName@@QBE?AV0@W4DNameStatus@@@Z 10055408 f   libvcruntime:undname.obj
 0001:00054432       ??YDName@@QAEAAV0@ABV0@@Z  10055432 f   libvcruntime:undname.obj
 0001:00054483       ??YDName@@QAEAAV0@D@Z      10055483 f   libvcruntime:undname.obj
 0001:000544e7       ??YDName@@QAEAAV0@PAV0@@Z  100554e7 f   libvcruntime:undname.obj
 0001:00054565       ??YDName@@QAEAAV0@PBD@Z    10055565 f   libvcruntime:undname.obj
 0001:000545de       ??YDName@@QAEAAV0@W4DNameStatus@@@Z 100555de f   libvcruntime:undname.obj
 0001:0005462e       ??YReplicator@@QAEAAV0@ABVDName@@@Z 1005562e f   libvcruntime:undname.obj
 0001:0005468a       ??_5DName@@QAEAAV0@ABV0@@Z 1005568a f   libvcruntime:undname.obj
 0001:000546ad       ?Constructor@_HeapManager@@QAEXP6APAXI@ZP6AXPAX@Z@Z 100556ad f i libvcruntime:undname.obj
 0001:000546d1       ?Destructor@_HeapManager@@QAEXXZ 100556d1 f i libvcruntime:undname.obj
 0001:00054717       ?UScore@UnDecorator@@SAPBDW4Tokens@@@Z 10055717 f   libvcruntime:undname.obj
 0001:0005473d       ?append@DName@@AAEXPBVDNameNode@@@Z 1005573d f   libvcruntime:undname.obj
 0001:00054794       ?composeDeclaration@UnDecorator@@CA?AVDName@@ABV2@@Z 10055794 f i libvcruntime:undname.obj
 0001:000557a8       ?doAccessSpecifiers@UnDecorator@@SAHXZ 100567a8 f i libvcruntime:undname.obj
 0001:000557b9       ?doAllocationLanguage@UnDecorator@@SAHXZ 100567b9 f i libvcruntime:undname.obj
 0001:000557ca       ?doAllocationModel@UnDecorator@@SAHXZ 100567ca f i libvcruntime:undname.obj
 0001:000557db       ?doEcsu@UnDecorator@@SAHXZ 100567db f i libvcruntime:undname.obj
 0001:000557ec       ?doEllipsis@UnDecorator@@SAHXZ 100567ec f i libvcruntime:undname.obj
 0001:000557fd       ?doFunctionReturns@UnDecorator@@SAHXZ 100567fd f i libvcruntime:undname.obj
 0001:0005580e       ?doMSKeywords@UnDecorator@@SAHXZ 1005680e f i libvcruntime:undname.obj
 0001:0005581e       ?doMemberTypes@UnDecorator@@SAHXZ 1005681e f i libvcruntime:undname.obj
 0001:0005582f       ?doNameOnly@UnDecorator@@SAHXZ 1005682f f i libvcruntime:undname.obj
 0001:0005583c       ?doNoIdentCharCheck@UnDecorator@@SAHXZ 1005683c f i libvcruntime:undname.obj
 0001:00055849       ?doPchar@DName@@AAEXPBDH@Z 10056849 f   libvcruntime:undname.obj
 0001:000558f0       ?doPtr64@UnDecorator@@SAHXZ 100568f0 f i libvcruntime:undname.obj
 0001:00055901       ?doRestrictionSpec@UnDecorator@@SAHXZ 10056901 f i libvcruntime:undname.obj
 0001:00055912       ?doThisTypes@UnDecorator@@SAHXZ 10056912 f i libvcruntime:undname.obj
 0001:00055928       ?doThrowTypes@UnDecorator@@SAHXZ 10056928 f i libvcruntime:undname.obj
 0001:00055939       ?doTypeOnly@UnDecorator@@SAHXZ 10056939 f i libvcruntime:undname.obj
 0001:00055946       ?doUnderScore@UnDecorator@@SAHXZ 10056946 f i libvcruntime:undname.obj
 0001:00055953       ?getArgumentList@UnDecorator@@CA?AVDName@@XZ 10056953 f   libvcruntime:undname.obj
 0001:00055a86       ?getArgumentTypes@UnDecorator@@CA?AVDName@@XZ 10056a86 f   libvcruntime:undname.obj
 0001:00055b82       ?getArrayType@UnDecorator@@CA?AVDName@@ABV2@@Z 10056b82 f i libvcruntime:undname.obj
 0001:00055d9f       ?getBasedType@UnDecorator@@CA?AVDName@@XZ 10056d9f f   libvcruntime:undname.obj
 0001:00055e5d       ?getBasicDataType@UnDecorator@@CA?AVDName@@ABV2@@Z 10056e5d f   libvcruntime:undname.obj
 0001:00056333       ?getCHPEName@UnDecorator@@QAEPADPADH@Z 10057333 f i libvcruntime:undname.obj
 0001:00056449       ?getCallIndex@UnDecorator@@CA?AVDName@@XZ 10057449 f i libvcruntime:undname.obj
 0001:00056462       ?getCallingConvention@UnDecorator@@CA?AVDName@@XZ 10057462 f   libvcruntime:undname.obj
 0001:00056569       ?getDataIndirectType@UnDecorator@@CA?AVDName@@ABV2@PBD0H@Z 10057569 f   libvcruntime:undname.obj
 0001:00056ccd       ?getDataIndirectType@UnDecorator@@CA?AVDName@@XZ 10057ccd f i libvcruntime:undname.obj
 0001:00056d0b       ?getDataType@UnDecorator@@CA?AVDName@@PAV2@@Z 10057d0b f   libvcruntime:undname.obj
 0001:00056e01       ?getDecoratedName@UnDecorator@@CA?AVDName@@XZ 10057e01 f   libvcruntime:undname.obj
 0001:000570d3       ?getDimension@UnDecorator@@CA?AVDName@@_N@Z 100580d3 f   libvcruntime:undname.obj
 0001:00057239       ?getDispatchTarget@UnDecorator@@CA?AVDName@@XZ 10058239 f   libvcruntime:undname.obj
 0001:000572a2       ?getDisplacement@UnDecorator@@CA?AVDName@@XZ 100582a2 f i libvcruntime:undname.obj
 0001:000572bb       ?getECSUDataType@UnDecorator@@CA?AVDName@@XZ 100582bb f   libvcruntime:undname.obj
 0001:00057419       ?getECSUName@UnDecorator@@CA?AVDName@@XZ 10058419 f i libvcruntime:undname.obj
 0001:0005742e       ?getEnumType@UnDecorator@@CA?AVDName@@XZ 1005842e f i libvcruntime:undname.obj
 0001:0005755a       ?getExtendedDataIndirectType@UnDecorator@@CA?AVDName@@AAPBDAA_NH@Z 1005855a f   libvcruntime:undname.obj
 0001:0005777e       ?getExternalDataType@UnDecorator@@CA?AVDName@@ABV2@@Z 1005877e f i libvcruntime:undname.obj
 0001:000577fe       ?getFunctionIndirectType@UnDecorator@@CA?AVDName@@ABV2@@Z 100587fe f   libvcruntime:undname.obj
 0001:00057ccc       ?getGuardNumber@UnDecorator@@CA?AVDName@@XZ 10058ccc f i libvcruntime:undname.obj
 0001:00057ce5       ?getLastChar@DName@@QBEDXZ 10058ce5 f i libvcruntime:undname.obj
 0001:00057d0d       ?getLastChar@DNameStatusNode@@UBEDXZ 10058d0d f i libvcruntime:undname.obj
 0001:00057d1c       ?getLastChar@charNode@@UBEDXZ 10058d1c f i libvcruntime:undname.obj
 0001:00057d20       ?getLastChar@pDNameNode@@UBEDXZ 10058d20 f i libvcruntime:undname.obj
 0001:00057d31       ?getLastChar@pairNode@@UBEDXZ 10058d31 f i libvcruntime:undname.obj
 0001:00057d73       ?getLastChar@pcharNode@@UBEDXZ 10058d73 f i libvcruntime:undname.obj
 0001:00057d89       ?getLexicalFrame@UnDecorator@@CA?AVDName@@XZ 10058d89 f i libvcruntime:undname.obj
 0001:00057dd7       ?getMemory@_HeapManager@@QAEPAXIH@Z 10058dd7 f   libvcruntime:undname.obj
 0001:00057e7f       ?getNoexcept@UnDecorator@@CA?AVDName@@XZ 10058e7f f   libvcruntime:undname.obj
 0001:00057ed5       ?getNumberOfDimensions@UnDecorator@@CAHXZ 10058ed5 f   libvcruntime:undname.obj
 0001:00057f4e       ?getOperatorName@UnDecorator@@CA?AVDName@@_NPA_N@Z 10058f4e f i libvcruntime:undname.obj
 0001:0005873c       ?getPointerType@UnDecorator@@CA?AVDName@@ABV2@0@Z 1005973c f i libvcruntime:undname.obj
 0001:00058761       ?getPointerTypeArray@UnDecorator@@CA?AVDName@@ABV2@0@Z 10059761 f i libvcruntime:undname.obj
 0001:00058786       ?getPrimaryDataType@UnDecorator@@CA?AVDName@@ABV2@@Z 10059786 f   libvcruntime:undname.obj
 0001:000589e3       ?getPtrRefDataType@UnDecorator@@CA?AVDName@@ABV2@H@Z 100599e3 f   libvcruntime:undname.obj
 0001:00058b56       ?getPtrRefType@UnDecorator@@CA?AVDName@@ABV2@0PBD@Z 10059b56 f   libvcruntime:undname.obj
 0001:00058c8e       ?getReferenceType@UnDecorator@@CA?AVDName@@ABV2@0PBD@Z 10059c8e f i libvcruntime:undname.obj
 0001:00058cb1       ?getRestrictionSpec@UnDecorator@@CA?AVDName@@XZ 10059cb1 f   libvcruntime:undname.obj
 0001:00058de8       ?getReturnType@UnDecorator@@CA?AVDName@@PAV2@@Z 10059de8 f   libvcruntime:undname.obj
 0001:00058e22       ?getScope@UnDecorator@@CA?AVDName@@XZ 10059e22 f   libvcruntime:undname.obj
 0001:0005929b       ?getScopedName@UnDecorator@@CA?AVDName@@XZ 1005a29b f   libvcruntime:undname.obj
 0001:000593a4       ?getSignedDimension@UnDecorator@@CA?AVDName@@XZ 1005a3a4 f   libvcruntime:undname.obj
 0001:00059409       ?getStorageConvention@UnDecorator@@CA?AVDName@@XZ 1005a409 f i libvcruntime:undname.obj
 0001:0005941e       ?getString@DName@@QBEPADPAD0@Z 1005a41e f i libvcruntime:undname.obj
 0001:00059456       ?getString@DName@@QBEPADPADH@Z 1005a456 f i libvcruntime:undname.obj
 0001:000594c1       ?getString@DNameStatusNode@@UBEPADPAD0@Z 1005a4c1 f i libvcruntime:undname.obj
 0001:000594f1       ?getString@charNode@@UBEPADPAD0@Z 1005a4f1 f i libvcruntime:undname.obj
 0001:0005950b       ?getString@pDNameNode@@UBEPADPAD0@Z 1005a50b f i libvcruntime:undname.obj
 0001:00059527       ?getString@pairNode@@UBEPADPAD0@Z 1005a527 f i libvcruntime:undname.obj
 0001:0005957e       ?getString@pcharNode@@UBEPADPAD0@Z 1005a57e f i libvcruntime:undname.obj
 0001:0005959f       ?getStringEncoding@UnDecorator@@CA?AVDName@@PBDH@Z 1005a59f f   libvcruntime:undname.obj
 0001:0005967b       ?getStringHelper@@YAPADPADPBD1H@Z 1005a67b f i libvcruntime:undname.obj
 0001:000596bf       ?getSymbolName@UnDecorator@@CA?AVDName@@XZ 1005a6bf f i libvcruntime:undname.obj
 0001:00059719       ?getTemplateArgumentList@UnDecorator@@CA?AVDName@@XZ 1005a719 f   libvcruntime:undname.obj
 0001:00059a5d       ?getTemplateConstant@UnDecorator@@CA?AVDName@@XZ 1005aa5d f   libvcruntime:undname.obj
 0001:00059e5b       ?getTemplateName@UnDecorator@@CA?AVDName@@_N@Z 1005ae5b f   libvcruntime:undname.obj
 0001:0005a015       ?getThisType@UnDecorator@@CA?AVDName@@XZ 1005b015 f i libvcruntime:undname.obj
 0001:0005a054       ?getThrowTypes@UnDecorator@@CA?AVDName@@XZ 1005b054 f   libvcruntime:undname.obj
 0001:0005a07f       ?getTypeEncoding@UnDecorator@@CAHXZ 1005b07f f i libvcruntime:undname.obj
 0001:0005a471       ?getUndecoratedName@UnDecorator@@QAEPADPADH@Z 1005b471 f i libvcruntime:undname.obj
 0001:0005a566       ?getVCallThunkType@UnDecorator@@CA?AVDName@@XZ 1005b566 f i libvcruntime:undname.obj
 0001:0005a5be       ?getVbTableType@UnDecorator@@CA?AVDName@@ABV2@@Z 1005b5be f i libvcruntime:undname.obj
 0001:0005a5d8       ?getVdispMapType@UnDecorator@@CA?AVDName@@ABV2@@Z 1005b5d8 f i libvcruntime:undname.obj
 0001:0005a641       ?getVfTableType@UnDecorator@@CA?AVDName@@ABV2@@Z 1005b641 f i libvcruntime:undname.obj
 0001:0005a7fc       ?getZName@UnDecorator@@CA?AVDName@@_N0@Z 1005b7fc f   libvcruntime:undname.obj
 0001:0005aa7a       ?haveTemplateParameters@UnDecorator@@SAHXZ 1005ba7a f i libvcruntime:undname.obj
 0001:0005aa87       ?isArray@DName@@QBEHXZ     1005ba87 f i libvcruntime:undname.obj
 0001:0005aa93       ?isComArray@DName@@QBEHXZ  1005ba93 f i libvcruntime:undname.obj
 0001:0005aa9f       ?isEmpty@DName@@QBEHXZ     1005ba9f f i libvcruntime:undname.obj
 0001:0005aaa9       ?isFull@Replicator@@QBEHXZ 1005baa9 f i libvcruntime:undname.obj
 0001:0005aab4       ?isNoTE@DName@@QBEHXZ      1005bab4 f i libvcruntime:undname.obj
 0001:0005aac0       ?isPinPtr@DName@@QBEHXZ    1005bac0 f i libvcruntime:undname.obj
 0001:0005aacc       ?isPtrRef@DName@@QBEHXZ    1005bacc f i libvcruntime:undname.obj
 0001:0005aad8       ?isUDC@DName@@QBEHXZ       1005bad8 f i libvcruntime:undname.obj
 0001:0005aaed       ?isUDTThunk@DName@@QBEHXZ  1005baed f i libvcruntime:undname.obj
 0001:0005ab02       ?isVCallThunk@DName@@QBEHXZ 1005bb02 f i libvcruntime:undname.obj
 0001:0005ab0e       ?isValid@DName@@QBEHXZ     1005bb0e f i libvcruntime:undname.obj
 0001:0005ab1a       ?length@DName@@QBEHXZ      1005bb1a f i libvcruntime:undname.obj
 0001:0005ab40       ?length@DNameStatusNode@@UBEHXZ 1005bb40 f i libvcruntime:undname.obj
 0001:0005ab44       ?length@charNode@@UBEHXZ   1005bb44 f i libvcruntime:undname.obj
 0001:0005ab48       ?length@pDNameNode@@UBEHXZ 1005bb48 f i libvcruntime:undname.obj
 0001:0005ab59       ?length@pairNode@@UBEHXZ   1005bb59 f i libvcruntime:undname.obj
 0001:0005abb0       ?length@pcharNode@@UBEHXZ  1005bbb0 f i libvcruntime:undname.obj
 0001:0005abb4       ?make@DNameStatusNode@@SAPBV1@W4DNameStatus@@@Z 1005bbb4 f i libvcruntime:undname.obj
 0001:0005abd7       ?parseDecoratedName@UnDecorator@@CA?AVDName@@XZ 1005bbd7 f   libvcruntime:undname.obj
 0001:0005ad00       ?setIsArray@DName@@QAEXXZ  1005bd00 f i libvcruntime:undname.obj
 0001:0005ad0a       ?setIsComArray@DName@@QAEXXZ 1005bd0a f i libvcruntime:undname.obj
 0001:0005ad14       ?setIsNoTE@DName@@QAEXXZ   1005bd14 f i libvcruntime:undname.obj
 0001:0005ad1e       ?setIsPinPtr@DName@@QAEXXZ 1005bd1e f i libvcruntime:undname.obj
 0001:0005ad28       ?setIsUDC@DName@@QAEXXZ    1005bd28 f i libvcruntime:undname.obj
 0001:0005ad38       ?setIsVCallThunk@DName@@QAEXXZ 1005bd38 f i libvcruntime:undname.obj
 0001:0005ad42       ?setPtrRef@DName@@QAEAAV1@XZ 1005bd42 f i libvcruntime:undname.obj
 0001:0005ad4e       ?status@DName@@QBE?AW4DNameStatus@@XZ 1005bd4e f i libvcruntime:undname.obj
 0001:0005add3       ___unDName                 1005bdd3 f   libvcruntime:undname.obj
 0001:0005adfe       ___unDNameEx               1005bdfe f   libvcruntime:undname.obj
 0001:0005aec4       _unDNameGenerateCHPE       1005bec4 f   libvcruntime:undname.obj
 0001:0005af37       ___vcrt_initialize_locks   1005bf37 f   libvcruntime:locks.obj
 0001:0005af82       ___vcrt_lock               1005bf82 f   libvcruntime:locks.obj
 0001:0005af9c       ___vcrt_uninitialize_locks 1005bf9c f   libvcruntime:locks.obj
 0001:0005afd6       ___vcrt_unlock             1005bfd6 f   libvcruntime:locks.obj
 0001:0005aff0       ??$?BX@__crt_fast_encoded_nullptr_t@@QBEPAXXZ 1005bff0 f i libvcruntime:winapi_downlevel.obj
 0001:0005aff6       ??$__crt_fast_decode_pointer@PAX@@YAPAXQAX@Z 1005bff6 f i libvcruntime:winapi_downlevel.obj
 0001:0005b00f       ??$__crt_fast_encode_pointer@PAX@@YAPAXQAX@Z 1005c00f f i libvcruntime:winapi_downlevel.obj
 0001:0005b033       ??$__crt_interlocked_exchange_pointer@UHINSTANCE__@@PAU1@@@YAPAUHINSTANCE__@@PDSAU0@QAU0@@Z 1005c033 f i libvcruntime:winapi_downlevel.obj
 0001:0005b043       ??$__crt_interlocked_exchange_pointer@UHINSTANCE__@@PAX@@YAPAUHINSTANCE__@@PDSAU0@QAX@Z 1005c043 f i libvcruntime:winapi_downlevel.obj
 0001:0005b053       ??$__crt_interlocked_exchange_pointer@XPAX@@YAPAXPDSAXQAX@Z 1005c053 f i libvcruntime:winapi_downlevel.obj
 0001:0005b063       ??$__crt_interlocked_read_pointer@UHINSTANCE__@@@@YAPAUHINSTANCE__@@PDSAU0@@Z 1005c063 f i libvcruntime:winapi_downlevel.obj
 0001:0005b06f       ??$__crt_interlocked_read_pointer@X@@YAPAXPDSAX@Z 1005c06f f i libvcruntime:winapi_downlevel.obj
 0001:0005b3a3       ___vcrt_FlsAlloc           1005c3a3 f   libvcruntime:winapi_downlevel.obj
 0001:0005b3ec       ___vcrt_FlsFree            1005c3ec f   libvcruntime:winapi_downlevel.obj
 0001:0005b435       ___vcrt_FlsGetValue        1005c435 f   libvcruntime:winapi_downlevel.obj
 0001:0005b47e       ___vcrt_FlsSetValue        1005c47e f   libvcruntime:winapi_downlevel.obj
 0001:0005b4cb       ___vcrt_InitializeCriticalSectionEx 1005c4cb f   libvcruntime:winapi_downlevel.obj
 0001:0005b523       ___vcrt_initialize_winapi_thunks 1005c523 f   libvcruntime:winapi_downlevel.obj
 0001:0005b556       ___vcrt_uninitialize_winapi_thunks 1005c556 f   libvcruntime:winapi_downlevel.obj
 0001:0005b5ad       __get_unexpected           1005c5ad f   libvcruntime:unexpected.obj
 0001:0005b5c3       _set_unexpected            1005c5c3 f   libvcruntime:unexpected.obj
 0001:0005b5e8       _unexpected                1005c5e8 f   libvcruntime:unexpected.obj
 0001:0005b60c       ?GetCurrentState@__FrameHandler3@@SAHPAUEHRegistrationNode@@PAXPBU_s_FuncInfo@@@Z 1005c60c f   libvcruntime:ehstate.obj
 0001:0005b630       ?SetState@__FrameHandler3@@SAXPAUEHRegistrationNode@@PBU_s_FuncInfo@@H@Z 1005c630 f   libvcruntime:ehstate.obj
 0001:0005b650       __global_unwind2           1005c650 f   libvcruntime:exsup.obj
 0001:0005b6b6       __local_unwind2            1005c6b6 f   libvcruntime:exsup.obj
 0001:0005b73a       __abnormal_termination     1005c73a f   libvcruntime:exsup.obj
 0001:0005b760       __NLG_Notify1              1005c760 f   libvcruntime:exsup.obj
 0001:0005b76c       __NLG_Notify               1005c76c f   libvcruntime:exsup.obj
 0001:0005b783       __NLG_Dispatch2            1005c783     libvcruntime:exsup.obj
 0001:0005b783       __NLG_Dispatch             1005c783     libvcruntime:exsup.obj
 0001:0005b78b       __NLG_Call                 1005c78b f   libvcruntime:exsup.obj
 0001:0005b78d       __NLG_Return2              1005c78d     libvcruntime:exsup.obj
 0001:0005b7dd       _malloc                    1005c7dd f   libucrt:malloc.obj
 0001:0005b7ea       _free                      1005c7ea f   libucrt:free.obj
 0001:0005b80e       ??$?RPAU__crt_stdio_stream_data@@@__crt_internal_free_policy@@QBEXQBQAU__crt_stdio_stream_data@@@Z 1005c80e f i libucrt:_file.obj
 0001:0005b824       ??0?$__crt_unique_heap_ptr@PAU__crt_stdio_stream_data@@U__crt_internal_free_policy@@@@QAE@QAPAU__crt_stdio_stream_data@@@Z 1005c824 f i libucrt:_file.obj
 0001:0005b838       ??0__crt_stdio_stream@@QAE@QAU_iobuf@@@Z 1005c838 f i libucrt:_file.obj
 0001:0005b84c       ??1?$__crt_unique_heap_ptr@PAU__crt_stdio_stream_data@@U__crt_internal_free_policy@@@@QAE@XZ 1005c84c f i libucrt:_file.obj
 0001:0005b862       ??C__crt_stdio_stream@@QBEPAU__crt_stdio_stream_data@@XZ 1005c862 f i libucrt:_file.obj
 0001:0005b865       ?detach@?$__crt_unique_heap_ptr@PAU__crt_stdio_stream_data@@U__crt_internal_free_policy@@@@QAEPAPAU__crt_stdio_stream_data@@XZ 1005c865 f i libucrt:_file.obj
 0001:0005b86b       ?release@?$__crt_unique_heap_ptr@PAU__crt_stdio_stream_data@@U__crt_internal_free_policy@@@@QAEXXZ 1005c86b f i libucrt:_file.obj
 0001:0005b881       ___acrt_initialize_stdio   1005c881 f   libucrt:_file.obj
 0001:0005b97b       ___acrt_iob_func           1005c97b f   libucrt:_file.obj
 0001:0005b98f       ___acrt_uninitialize_stdio 1005c98f f   libucrt:_file.obj
 0001:0005b9ee       __get_stream_buffer_pointers 1005c9ee f   libucrt:_file.obj
 0001:0005ba45       __lock_file                1005ca45 f   libucrt:_file.obj
 0001:0005ba5e       __unlock_file              1005ca5e f   libucrt:_file.obj
 0001:0005ba77       ??$?0ABV?$stream_output_adapter@D@__crt_stdio_output@@AB_KABQBDABQAU__crt_locale_pointers@@ABQAD@?$format_validation_base@DV?$stream_output_adapter@D@__crt_stdio_output@@@__crt_stdio_output@@IAE@ABV?$stream_output_adapter@D@1@AB_KABQBDABQAU__crt_locale_pointers@@ABQAD@Z 1005ca77 f i libucrt:output.obj
 0001:0005baa2       ??$?0ABV?$stream_output_adapter@D@__crt_stdio_output@@AB_KABQBDABQAU__crt_locale_pointers@@ABQAD@?$positional_parameter_base@DV?$stream_output_adapter@D@__crt_stdio_output@@@__crt_stdio_output@@IAE@ABV?$stream_output_adapter@D@1@AB_KABQBDABQAU__crt_locale_pointers@@ABQAD@Z 1005caa2 f i libucrt:output.obj
 0001:0005bafc       ??$?0ABV?$stream_output_adapter@D@__crt_stdio_output@@AB_KABQBDABQAU__crt_locale_pointers@@ABQAD@?$standard_base@DV?$stream_output_adapter@D@__crt_stdio_output@@@__crt_stdio_output@@IAE@ABV?$stream_output_adapter@D@1@AB_KABQBDABQAU__crt_locale_pointers@@ABQAD@Z 1005cafc f i libucrt:output.obj
 0001:0005bb3e       ??$?0ABV?$stream_output_adapter@_W@__crt_stdio_output@@AB_KABQB_WABQAU__crt_locale_pointers@@ABQAD@?$format_validation_base@_WV?$stream_output_adapter@_W@__crt_stdio_output@@@__crt_stdio_output@@IAE@ABV?$stream_output_adapter@_W@1@AB_KABQB_WABQAU__crt_locale_pointers@@ABQAD@Z 1005cb3e f i libucrt:output.obj
 0001:0005bb69       ??$?0ABV?$stream_output_adapter@_W@__crt_stdio_output@@AB_KABQB_WABQAU__crt_locale_pointers@@ABQAD@?$positional_parameter_base@_WV?$stream_output_adapter@_W@__crt_stdio_output@@@__crt_stdio_output@@IAE@ABV?$stream_output_adapter@_W@1@AB_KABQB_WABQAU__crt_locale_pointers@@ABQAD@Z 1005cb69 f i libucrt:output.obj
 0001:0005bbc3       ??$?0ABV?$stream_output_adapter@_W@__crt_stdio_output@@AB_KABQB_WABQAU__crt_locale_pointers@@ABQAD@?$standard_base@_WV?$stream_output_adapter@_W@__crt_stdio_output@@@__crt_stdio_output@@IAE@ABV?$stream_output_adapter@_W@1@AB_KABQB_WABQAU__crt_locale_pointers@@ABQAD@Z 1005cbc3 f i libucrt:output.obj
 0001:0005bc05       ??$?0ABV?$string_output_adapter@D@__crt_stdio_output@@AB_KABQBDABQAU__crt_locale_pointers@@ABQAD@?$format_validation_base@DV?$string_output_adapter@D@__crt_stdio_output@@@__crt_stdio_output@@IAE@ABV?$string_output_adapter@D@1@AB_KABQBDABQAU__crt_locale_pointers@@ABQAD@Z 1005cc05 f i libucrt:output.obj
 0001:0005bc30       ??$?0ABV?$string_output_adapter@D@__crt_stdio_output@@AB_KABQBDABQAU__crt_locale_pointers@@ABQAD@?$positional_parameter_base@DV?$string_output_adapter@D@__crt_stdio_output@@@__crt_stdio_output@@IAE@ABV?$string_output_adapter@D@1@AB_KABQBDABQAU__crt_locale_pointers@@ABQAD@Z 1005cc30 f i libucrt:output.obj
 0001:0005bc8a       ??$?0ABV?$string_output_adapter@D@__crt_stdio_output@@AB_KABQBDABQAU__crt_locale_pointers@@ABQAD@?$standard_base@DV?$string_output_adapter@D@__crt_stdio_output@@@__crt_stdio_output@@IAE@ABV?$string_output_adapter@D@1@AB_KABQBDABQAU__crt_locale_pointers@@ABQAD@Z 1005cc8a f i libucrt:output.obj
 0001:0005bccc       ??$?0ABV?$string_output_adapter@_W@__crt_stdio_output@@AB_KABQB_WABQAU__crt_locale_pointers@@ABQAD@?$format_validation_base@_WV?$string_output_adapter@_W@__crt_stdio_output@@@__crt_stdio_output@@IAE@ABV?$string_output_adapter@_W@1@AB_KABQB_WABQAU__crt_locale_pointers@@ABQAD@Z 1005cccc f i libucrt:output.obj
 0001:0005bcf7       ??$?0ABV?$string_output_adapter@_W@__crt_stdio_output@@AB_KABQB_WABQAU__crt_locale_pointers@@ABQAD@?$positional_parameter_base@_WV?$string_output_adapter@_W@__crt_stdio_output@@@__crt_stdio_output@@IAE@ABV?$string_output_adapter@_W@1@AB_KABQB_WABQAU__crt_locale_pointers@@ABQAD@Z 1005ccf7 f i libucrt:output.obj
 0001:0005bd51       ??$?0ABV?$string_output_adapter@_W@__crt_stdio_output@@AB_KABQB_WABQAU__crt_locale_pointers@@ABQAD@?$standard_base@_WV?$string_output_adapter@_W@__crt_stdio_output@@@__crt_stdio_output@@IAE@ABV?$string_output_adapter@_W@1@AB_KABQB_WABQAU__crt_locale_pointers@@ABQAD@Z 1005cd51 f i libucrt:output.obj
 0001:0005c11d       ??$__crt_interlocked_read@J@@YAJPDJ@Z 1005d11d f i libucrt:output.obj
 0001:0005d387       ??$count@D@formatting_buffer@__crt_stdio_output@@QBEIXZ 1005e387 f i libucrt:output.obj
 0001:0005d3a5       ??$count@_W@formatting_buffer@__crt_stdio_output@@QBEIXZ 1005e3a5 f i libucrt:output.obj
 0001:0005d3c4       ??$data@D@formatting_buffer@__crt_stdio_output@@QAEPADXZ 1005e3c4 f i libucrt:output.obj
 0001:0005d3d4       ??$data@_W@formatting_buffer@__crt_stdio_output@@QAEPA_WXZ 1005e3d4 f i libucrt:output.obj
 0001:0005d3e4       ??$ensure_buffer_is_big_enough@D@formatting_buffer@__crt_stdio_output@@QAE_NI@Z 1005e3e4 f i libucrt:output.obj
 0001:0005d482       ??$ensure_buffer_is_big_enough@_W@formatting_buffer@__crt_stdio_output@@QAE_NI@Z 1005e482 f i libucrt:output.obj
 0001:0005d522       ??$extract_argument_from_va_list@C_J@?$positional_parameter_base@DV?$stream_output_adapter@D@__crt_stdio_output@@@__crt_stdio_output@@IAE_NAA_J@Z 1005e522 f i libucrt:output.obj
 0001:0005d5b9       ??$extract_argument_from_va_list@C_J@?$positional_parameter_base@DV?$string_output_adapter@D@__crt_stdio_output@@@__crt_stdio_output@@IAE_NAA_J@Z 1005e5b9 f i libucrt:output.obj
 0001:0005d650       ??$extract_argument_from_va_list@C_J@?$positional_parameter_base@_WV?$stream_output_adapter@_W@__crt_stdio_output@@@__crt_stdio_output@@IAE_NAA_J@Z 1005e650 f i libucrt:output.obj
 0001:0005d6e7       ??$extract_argument_from_va_list@C_J@?$positional_parameter_base@_WV?$string_output_adapter@_W@__crt_stdio_output@@@__crt_stdio_output@@IAE_NAA_J@Z 1005e6e7 f i libucrt:output.obj
 0001:0005d77e       ??$extract_argument_from_va_list@C_J@?$standard_base@DV?$stream_output_adapter@D@__crt_stdio_output@@@__crt_stdio_output@@IAE_NAA_J@Z 1005e77e f i libucrt:output.obj
 0001:0005d7a4       ??$extract_argument_from_va_list@C_J@?$standard_base@DV?$string_output_adapter@D@__crt_stdio_output@@@__crt_stdio_output@@IAE_NAA_J@Z 1005e7a4 f i libucrt:output.obj
 0001:0005d7ca       ??$extract_argument_from_va_list@C_J@?$standard_base@_WV?$stream_output_adapter@_W@__crt_stdio_output@@@__crt_stdio_output@@IAE_NAA_J@Z 1005e7ca f i libucrt:output.obj
 0001:0005d7f0       ??$extract_argument_from_va_list@C_J@?$standard_base@_WV?$string_output_adapter@_W@__crt_stdio_output@@@__crt_stdio_output@@IAE_NAA_J@Z 1005e7f0 f i libucrt:output.obj
 0001:0005d816       ??$extract_argument_from_va_list@E_J@?$positional_parameter_base@DV?$stream_output_adapter@D@__crt_stdio_output@@@__crt_stdio_output@@IAE_NAA_J@Z 1005e816 f i libucrt:output.obj
 0001:0005d8ad       ??$extract_argument_from_va_list@E_J@?$positional_parameter_base@DV?$string_output_adapter@D@__crt_stdio_output@@@__crt_stdio_output@@IAE_NAA_J@Z 1005e8ad f i libucrt:output.obj
 0001:0005d944       ??$extract_argument_from_va_list@E_J@?$positional_parameter_base@_WV?$stream_output_adapter@_W@__crt_stdio_output@@@__crt_stdio_output@@IAE_NAA_J@Z 1005e944 f i libucrt:output.obj
 0001:0005d9db       ??$extract_argument_from_va_list@E_J@?$positional_parameter_base@_WV?$string_output_adapter@_W@__crt_stdio_output@@@__crt_stdio_output@@IAE_NAA_J@Z 1005e9db f i libucrt:output.obj
 0001:0005da72       ??$extract_argument_from_va_list@E_J@?$standard_base@DV?$stream_output_adapter@D@__crt_stdio_output@@@__crt_stdio_output@@IAE_NAA_J@Z 1005ea72 f i libucrt:output.obj
 0001:0005da98       ??$extract_argument_from_va_list@E_J@?$standard_base@DV?$string_output_adapter@D@__crt_stdio_output@@@__crt_stdio_output@@IAE_NAA_J@Z 1005ea98 f i libucrt:output.obj
 0001:0005dabe       ??$extract_argument_from_va_list@E_J@?$standard_base@_WV?$stream_output_adapter@_W@__crt_stdio_output@@@__crt_stdio_output@@IAE_NAA_J@Z 1005eabe f i libucrt:output.obj
 0001:0005dae4       ??$extract_argument_from_va_list@E_J@?$standard_base@_WV?$string_output_adapter@_W@__crt_stdio_output@@@__crt_stdio_output@@IAE_NAA_J@Z 1005eae4 f i libucrt:output.obj
 0001:0005db0a       ??$extract_argument_from_va_list@F_J@?$positional_parameter_base@DV?$stream_output_adapter@D@__crt_stdio_output@@@__crt_stdio_output@@IAE_NAA_J@Z 1005eb0a f i libucrt:output.obj
 0001:0005dba1       ??$extract_argument_from_va_list@F_J@?$positional_parameter_base@DV?$string_output_adapter@D@__crt_stdio_output@@@__crt_stdio_output@@IAE_NAA_J@Z 1005eba1 f i libucrt:output.obj
 0001:0005dc38       ??$extract_argument_from_va_list@F_J@?$positional_parameter_base@_WV?$stream_output_adapter@_W@__crt_stdio_output@@@__crt_stdio_output@@IAE_NAA_J@Z 1005ec38 f i libucrt:output.obj
 0001:0005dccf       ??$extract_argument_from_va_list@F_J@?$positional_parameter_base@_WV?$string_output_adapter@_W@__crt_stdio_output@@@__crt_stdio_output@@IAE_NAA_J@Z 1005eccf f i libucrt:output.obj
 0001:0005dd66       ??$extract_argument_from_va_list@F_J@?$standard_base@DV?$stream_output_adapter@D@__crt_stdio_output@@@__crt_stdio_output@@IAE_NAA_J@Z 1005ed66 f i libucrt:output.obj
 0001:0005dd8c       ??$extract_argument_from_va_list@F_J@?$standard_base@DV?$string_output_adapter@D@__crt_stdio_output@@@__crt_stdio_output@@IAE_NAA_J@Z 1005ed8c f i libucrt:output.obj
 0001:0005ddb2       ??$extract_argument_from_va_list@F_J@?$standard_base@_WV?$stream_output_adapter@_W@__crt_stdio_output@@@__crt_stdio_output@@IAE_NAA_J@Z 1005edb2 f i libucrt:output.obj
 0001:0005ddd8       ??$extract_argument_from_va_list@F_J@?$standard_base@_WV?$string_output_adapter@_W@__crt_stdio_output@@@__crt_stdio_output@@IAE_NAA_J@Z 1005edd8 f i libucrt:output.obj
 0001:0005ddfe       ??$extract_argument_from_va_list@GD@?$positional_parameter_base@DV?$stream_output_adapter@D@__crt_stdio_output@@@__crt_stdio_output@@IAE_NAAD@Z 1005edfe f i libucrt:output.obj
 0001:0005de94       ??$extract_argument_from_va_list@GD@?$positional_parameter_base@DV?$string_output_adapter@D@__crt_stdio_output@@@__crt_stdio_output@@IAE_NAAD@Z 1005ee94 f i libucrt:output.obj
 0001:0005df2a       ??$extract_argument_from_va_list@GD@?$standard_base@DV?$stream_output_adapter@D@__crt_stdio_output@@@__crt_stdio_output@@IAE_NAAD@Z 1005ef2a f i libucrt:output.obj
 0001:0005df4a       ??$extract_argument_from_va_list@GD@?$standard_base@DV?$string_output_adapter@D@__crt_stdio_output@@@__crt_stdio_output@@IAE_NAAD@Z 1005ef4a f i libucrt:output.obj
 0001:0005df6a       ??$extract_argument_from_va_list@G_J@?$positional_parameter_base@DV?$stream_output_adapter@D@__crt_stdio_output@@@__crt_stdio_output@@IAE_NAA_J@Z 1005ef6a f i libucrt:output.obj
 0001:0005e001       ??$extract_argument_from_va_list@G_J@?$positional_parameter_base@DV?$string_output_adapter@D@__crt_stdio_output@@@__crt_stdio_output@@IAE_NAA_J@Z 1005f001 f i libucrt:output.obj
 0001:0005e098       ??$extract_argument_from_va_list@G_J@?$positional_parameter_base@_WV?$stream_output_adapter@_W@__crt_stdio_output@@@__crt_stdio_output@@IAE_NAA_J@Z 1005f098 f i libucrt:output.obj
 0001:0005e12f       ??$extract_argument_from_va_list@G_J@?$positional_parameter_base@_WV?$string_output_adapter@_W@__crt_stdio_output@@@__crt_stdio_output@@IAE_NAA_J@Z 1005f12f f i libucrt:output.obj
 0001:0005e1c6       ??$extract_argument_from_va_list@G_J@?$standard_base@DV?$stream_output_adapter@D@__crt_stdio_output@@@__crt_stdio_output@@IAE_NAA_J@Z 1005f1c6 f i libucrt:output.obj
 0001:0005e1ec       ??$extract_argument_from_va_list@G_J@?$standard_base@DV?$string_output_adapter@D@__crt_stdio_output@@@__crt_stdio_output@@IAE_NAA_J@Z 1005f1ec f i libucrt:output.obj
 0001:0005e212       ??$extract_argument_from_va_list@G_J@?$standard_base@_WV?$stream_output_adapter@_W@__crt_stdio_output@@@__crt_stdio_output@@IAE_NAA_J@Z 1005f212 f i libucrt:output.obj
 0001:0005e238       ??$extract_argument_from_va_list@G_J@?$standard_base@_WV?$string_output_adapter@_W@__crt_stdio_output@@@__crt_stdio_output@@IAE_NAA_J@Z 1005f238 f i libucrt:output.obj
 0001:0005e25e       ??$extract_argument_from_va_list@H_J@?$positional_parameter_base@DV?$stream_output_adapter@D@__crt_stdio_output@@@__crt_stdio_output@@IAE_NAA_J@Z 1005f25e f i libucrt:output.obj
 0001:0005e2f2       ??$extract_argument_from_va_list@H_J@?$positional_parameter_base@DV?$string_output_adapter@D@__crt_stdio_output@@@__crt_stdio_output@@IAE_NAA_J@Z 1005f2f2 f i libucrt:output.obj
 0001:0005e386       ??$extract_argument_from_va_list@H_J@?$positional_parameter_base@_WV?$stream_output_adapter@_W@__crt_stdio_output@@@__crt_stdio_output@@IAE_NAA_J@Z 1005f386 f i libucrt:output.obj
 0001:0005e41a       ??$extract_argument_from_va_list@H_J@?$positional_parameter_base@_WV?$string_output_adapter@_W@__crt_stdio_output@@@__crt_stdio_output@@IAE_NAA_J@Z 1005f41a f i libucrt:output.obj
 0001:0005e4ae       ??$extract_argument_from_va_list@H_J@?$standard_base@DV?$stream_output_adapter@D@__crt_stdio_output@@@__crt_stdio_output@@IAE_NAA_J@Z 1005f4ae f i libucrt:output.obj
 0001:0005e4d3       ??$extract_argument_from_va_list@H_J@?$standard_base@DV?$string_output_adapter@D@__crt_stdio_output@@@__crt_stdio_output@@IAE_NAA_J@Z 1005f4d3 f i libucrt:output.obj
 0001:0005e4f8       ??$extract_argument_from_va_list@H_J@?$standard_base@_WV?$stream_output_adapter@_W@__crt_stdio_output@@@__crt_stdio_output@@IAE_NAA_J@Z 1005f4f8 f i libucrt:output.obj
 0001:0005e51d       ??$extract_argument_from_va_list@H_J@?$standard_base@_WV?$string_output_adapter@_W@__crt_stdio_output@@@__crt_stdio_output@@IAE_NAA_J@Z 1005f51d f i libucrt:output.obj
 0001:0005e542       ??$extract_argument_from_va_list@I_J@?$positional_parameter_base@DV?$stream_output_adapter@D@__crt_stdio_output@@@__crt_stdio_output@@IAE_NAA_J@Z 1005f542 f i libucrt:output.obj
 0001:0005e5e2       ??$extract_argument_from_va_list@I_J@?$positional_parameter_base@DV?$string_output_adapter@D@__crt_stdio_output@@@__crt_stdio_output@@IAE_NAA_J@Z 1005f5e2 f i libucrt:output.obj
 0001:0005e682       ??$extract_argument_from_va_list@I_J@?$positional_parameter_base@_WV?$stream_output_adapter@_W@__crt_stdio_output@@@__crt_stdio_output@@IAE_NAA_J@Z 1005f682 f i libucrt:output.obj
 0001:0005e722       ??$extract_argument_from_va_list@I_J@?$positional_parameter_base@_WV?$string_output_adapter@_W@__crt_stdio_output@@@__crt_stdio_output@@IAE_NAA_J@Z 1005f722 f i libucrt:output.obj
 0001:0005e7c2       ??$extract_argument_from_va_list@I_J@?$standard_base@DV?$stream_output_adapter@D@__crt_stdio_output@@@__crt_stdio_output@@IAE_NAA_J@Z 1005f7c2 f i libucrt:output.obj
 0001:0005e7e7       ??$extract_argument_from_va_list@I_J@?$standard_base@DV?$string_output_adapter@D@__crt_stdio_output@@@__crt_stdio_output@@IAE_NAA_J@Z 1005f7e7 f i libucrt:output.obj
 0001:0005e80c       ??$extract_argument_from_va_list@I_J@?$standard_base@_WV?$stream_output_adapter@_W@__crt_stdio_output@@@__crt_stdio_output@@IAE_NAA_J@Z 1005f80c f i libucrt:output.obj
 0001:0005e831       ??$extract_argument_from_va_list@I_J@?$standard_base@_WV?$string_output_adapter@_W@__crt_stdio_output@@@__crt_stdio_output@@IAE_NAA_J@Z 1005f831 f i libucrt:output.obj
 0001:0005e856       ??$extract_argument_from_va_list@PADPAD@?$positional_parameter_base@DV?$stream_output_adapter@D@__crt_stdio_output@@@__crt_stdio_output@@IAE_NAAPAD@Z 1005f856 f i libucrt:output.obj
 0001:0005e8ec       ??$extract_argument_from_va_list@PADPAD@?$positional_parameter_base@DV?$string_output_adapter@D@__crt_stdio_output@@@__crt_stdio_output@@IAE_NAAPAD@Z 1005f8ec f i libucrt:output.obj
 0001:0005e982       ??$extract_argument_from_va_list@PADPAD@?$positional_parameter_base@_WV?$stream_output_adapter@_W@__crt_stdio_output@@@__crt_stdio_output@@IAE_NAAPAD@Z 1005f982 f i libucrt:output.obj
 0001:0005ea18       ??$extract_argument_from_va_list@PADPAD@?$positional_parameter_base@_WV?$string_output_adapter@_W@__crt_stdio_output@@@__crt_stdio_output@@IAE_NAAPAD@Z 1005fa18 f i libucrt:output.obj
 0001:0005eaae       ??$extract_argument_from_va_list@PADPAD@?$standard_base@DV?$stream_output_adapter@D@__crt_stdio_output@@@__crt_stdio_output@@IAE_NAAPAD@Z 1005faae f i libucrt:output.obj
 0001:0005eace       ??$extract_argument_from_va_list@PADPAD@?$standard_base@DV?$string_output_adapter@D@__crt_stdio_output@@@__crt_stdio_output@@IAE_NAAPAD@Z 1005face f i libucrt:output.obj
 0001:0005eaee       ??$extract_argument_from_va_list@PADPAD@?$standard_base@_WV?$stream_output_adapter@_W@__crt_stdio_output@@@__crt_stdio_output@@IAE_NAAPAD@Z 1005faee f i libucrt:output.obj
 0001:0005eb0e       ??$extract_argument_from_va_list@PADPAD@?$standard_base@_WV?$string_output_adapter@_W@__crt_stdio_output@@@__crt_stdio_output@@IAE_NAAPAD@Z 1005fb0e f i libucrt:output.obj
 0001:0005ef06       ??$extract_argument_from_va_list@PAXPAX@?$positional_parameter_base@DV?$stream_output_adapter@D@__crt_stdio_output@@@__crt_stdio_output@@IAE_NAAPAX@Z 1005ff06 f i libucrt:output.obj
 0001:0005ef9c       ??$extract_argument_from_va_list@PAXPAX@?$positional_parameter_base@DV?$string_output_adapter@D@__crt_stdio_output@@@__crt_stdio_output@@IAE_NAAPAX@Z 1005ff9c f i libucrt:output.obj
 0001:0005f032       ??$extract_argument_from_va_list@PAXPAX@?$positional_parameter_base@_WV?$stream_output_adapter@_W@__crt_stdio_output@@@__crt_stdio_output@@IAE_NAAPAX@Z 10060032 f i libucrt:output.obj
 0001:0005f0c8       ??$extract_argument_from_va_list@PAXPAX@?$positional_parameter_base@_WV?$string_output_adapter@_W@__crt_stdio_output@@@__crt_stdio_output@@IAE_NAAPAX@Z 100600c8 f i libucrt:output.obj
 0001:0005f15e       ??$extract_argument_from_va_list@PAXPAX@?$standard_base@DV?$stream_output_adapter@D@__crt_stdio_output@@@__crt_stdio_output@@IAE_NAAPAX@Z 1006015e f i libucrt:output.obj
 0001:0005f17e       ??$extract_argument_from_va_list@PAXPAX@?$standard_base@DV?$string_output_adapter@D@__crt_stdio_output@@@__crt_stdio_output@@IAE_NAAPAX@Z 1006017e f i libucrt:output.obj
 0001:0005f19e       ??$extract_argument_from_va_list@PAXPAX@?$standard_base@_WV?$stream_output_adapter@_W@__crt_stdio_output@@@__crt_stdio_output@@IAE_NAAPAX@Z 1006019e f i libucrt:output.obj
 0001:0005f1be       ??$extract_argument_from_va_list@PAXPAX@?$standard_base@_WV?$string_output_adapter@_W@__crt_stdio_output@@@__crt_stdio_output@@IAE_NAAPAX@Z 100601be f i libucrt:output.obj
 0001:0005f1de       ??$extract_argument_from_va_list@U_CRT_DOUBLE@@U1@@?$positional_parameter_base@DV?$stream_output_adapter@D@__crt_stdio_output@@@__crt_stdio_output@@IAE_NAAU_CRT_DOUBLE@@@Z 100601de f i libucrt:output.obj
 0001:0005f285       ??$extract_argument_from_va_list@U_CRT_DOUBLE@@U1@@?$positional_parameter_base@DV?$string_output_adapter@D@__crt_stdio_output@@@__crt_stdio_output@@IAE_NAAU_CRT_DOUBLE@@@Z 10060285 f i libucrt:output.obj
 0001:0005f32c       ??$extract_argument_from_va_list@U_CRT_DOUBLE@@U1@@?$positional_parameter_base@_WV?$stream_output_adapter@_W@__crt_stdio_output@@@__crt_stdio_output@@IAE_NAAU_CRT_DOUBLE@@@Z 1006032c f i libucrt:output.obj
 0001:0005f3d3       ??$extract_argument_from_va_list@U_CRT_DOUBLE@@U1@@?$positional_parameter_base@_WV?$string_output_adapter@_W@__crt_stdio_output@@@__crt_stdio_output@@IAE_NAAU_CRT_DOUBLE@@@Z 100603d3 f i libucrt:output.obj
 0001:0005f47a       ??$extract_argument_from_va_list@U_CRT_DOUBLE@@U1@@?$standard_base@DV?$stream_output_adapter@D@__crt_stdio_output@@@__crt_stdio_output@@IAE_NAAU_CRT_DOUBLE@@@Z 1006047a f i libucrt:output.obj
 0001:0005f4a2       ??$extract_argument_from_va_list@U_CRT_DOUBLE@@U1@@?$standard_base@DV?$string_output_adapter@D@__crt_stdio_output@@@__crt_stdio_output@@IAE_NAAU_CRT_DOUBLE@@@Z 100604a2 f i libucrt:output.obj
 0001:0005f4ca       ??$extract_argument_from_va_list@U_CRT_DOUBLE@@U1@@?$standard_base@_WV?$stream_output_adapter@_W@__crt_stdio_output@@@__crt_stdio_output@@IAE_NAAU_CRT_DOUBLE@@@Z 100604ca f i libucrt:output.obj
 0001:0005f4f2       ??$extract_argument_from_va_list@U_CRT_DOUBLE@@U1@@?$standard_base@_WV?$string_output_adapter@_W@__crt_stdio_output@@@__crt_stdio_output@@IAE_NAAU_CRT_DOUBLE@@@Z 100604f2 f i libucrt:output.obj
 0001:0005f51a       ??$extract_argument_from_va_list@_J_J@?$positional_parameter_base@DV?$stream_output_adapter@D@__crt_stdio_output@@@__crt_stdio_output@@IAE_NAA_J@Z 1006051a f i libucrt:output.obj
 0001:0005f5c1       ??$extract_argument_from_va_list@_J_J@?$positional_parameter_base@DV?$string_output_adapter@D@__crt_stdio_output@@@__crt_stdio_output@@IAE_NAA_J@Z 100605c1 f i libucrt:output.obj
 0001:0005f668       ??$extract_argument_from_va_list@_J_J@?$positional_parameter_base@_WV?$stream_output_adapter@_W@__crt_stdio_output@@@__crt_stdio_output@@IAE_NAA_J@Z 10060668 f i libucrt:output.obj
 0001:0005f70f       ??$extract_argument_from_va_list@_J_J@?$positional_parameter_base@_WV?$string_output_adapter@_W@__crt_stdio_output@@@__crt_stdio_output@@IAE_NAA_J@Z 1006070f f i libucrt:output.obj
 0001:0005f7b6       ??$extract_argument_from_va_list@_J_J@?$standard_base@DV?$stream_output_adapter@D@__crt_stdio_output@@@__crt_stdio_output@@IAE_NAA_J@Z 100607b6 f i libucrt:output.obj
 0001:0005f7de       ??$extract_argument_from_va_list@_J_J@?$standard_base@DV?$string_output_adapter@D@__crt_stdio_output@@@__crt_stdio_output@@IAE_NAA_J@Z 100607de f i libucrt:output.obj
 0001:0005f806       ??$extract_argument_from_va_list@_J_J@?$standard_base@_WV?$stream_output_adapter@_W@__crt_stdio_output@@@__crt_stdio_output@@IAE_NAA_J@Z 10060806 f i libucrt:output.obj
 0001:0005f82e       ??$extract_argument_from_va_list@_J_J@?$standard_base@_WV?$string_output_adapter@_W@__crt_stdio_output@@@__crt_stdio_output@@IAE_NAA_J@Z 1006082e f i libucrt:output.obj
 0001:0005f856       ??$extract_argument_from_va_list@_K_J@?$positional_parameter_base@DV?$stream_output_adapter@D@__crt_stdio_output@@@__crt_stdio_output@@IAE_NAA_J@Z 10060856 f i libucrt:output.obj
 0001:0005f8fd       ??$extract_argument_from_va_list@_K_J@?$positional_parameter_base@DV?$string_output_adapter@D@__crt_stdio_output@@@__crt_stdio_output@@IAE_NAA_J@Z 100608fd f i libucrt:output.obj
 0001:0005f9a4       ??$extract_argument_from_va_list@_K_J@?$positional_parameter_base@_WV?$stream_output_adapter@_W@__crt_stdio_output@@@__crt_stdio_output@@IAE_NAA_J@Z 100609a4 f i libucrt:output.obj
 0001:0005fa4b       ??$extract_argument_from_va_list@_K_J@?$positional_parameter_base@_WV?$string_output_adapter@_W@__crt_stdio_output@@@__crt_stdio_output@@IAE_NAA_J@Z 10060a4b f i libucrt:output.obj
 0001:0005faf2       ??$extract_argument_from_va_list@_K_J@?$standard_base@DV?$stream_output_adapter@D@__crt_stdio_output@@@__crt_stdio_output@@IAE_NAA_J@Z 10060af2 f i libucrt:output.obj
 0001:0005fb1a       ??$extract_argument_from_va_list@_K_J@?$standard_base@DV?$string_output_adapter@D@__crt_stdio_output@@@__crt_stdio_output@@IAE_NAA_J@Z 10060b1a f i libucrt:output.obj
 0001:0005fb42       ??$extract_argument_from_va_list@_K_J@?$standard_base@_WV?$stream_output_adapter@_W@__crt_stdio_output@@@__crt_stdio_output@@IAE_NAA_J@Z 10060b42 f i libucrt:output.obj
 0001:0005fb6a       ??$extract_argument_from_va_list@_K_J@?$standard_base@_WV?$string_output_adapter@_W@__crt_stdio_output@@@__crt_stdio_output@@IAE_NAA_J@Z 10060b6a f i libucrt:output.obj
 0001:0005fb92       ??$extract_argument_from_va_list@_W_W@?$positional_parameter_base@DV?$stream_output_adapter@D@__crt_stdio_output@@@__crt_stdio_output@@IAE_NAA_W@Z 10060b92 f i libucrt:output.obj
 0001:0005fc2d       ??$extract_argument_from_va_list@_W_W@?$positional_parameter_base@DV?$string_output_adapter@D@__crt_stdio_output@@@__crt_stdio_output@@IAE_NAA_W@Z 10060c2d f i libucrt:output.obj
 0001:0005fcc8       ??$extract_argument_from_va_list@_W_W@?$positional_parameter_base@_WV?$stream_output_adapter@_W@__crt_stdio_output@@@__crt_stdio_output@@IAE_NAA_W@Z 10060cc8 f i libucrt:output.obj
 0001:0005fd63       ??$extract_argument_from_va_list@_W_W@?$positional_parameter_base@_WV?$string_output_adapter@_W@__crt_stdio_output@@@__crt_stdio_output@@IAE_NAA_W@Z 10060d63 f i libucrt:output.obj
 0001:0005fdfe       ??$extract_argument_from_va_list@_W_W@?$standard_base@DV?$stream_output_adapter@D@__crt_stdio_output@@@__crt_stdio_output@@IAE_NAA_W@Z 10060dfe f i libucrt:output.obj
 0001:0005fe21       ??$extract_argument_from_va_list@_W_W@?$standard_base@DV?$string_output_adapter@D@__crt_stdio_output@@@__crt_stdio_output@@IAE_NAA_W@Z 10060e21 f i libucrt:output.obj
 0001:0005fe44       ??$extract_argument_from_va_list@_W_W@?$standard_base@_WV?$stream_output_adapter@_W@__crt_stdio_output@@@__crt_stdio_output@@IAE_NAA_W@Z 10060e44 f i libucrt:output.obj
 0001:0005fe67       ??$extract_argument_from_va_list@_W_W@?$standard_base@_WV?$string_output_adapter@_W@__crt_stdio_output@@@__crt_stdio_output@@IAE_NAA_W@Z 10060e67 f i libucrt:output.obj
 0001:0005fe8a       ??$get_parameter_type@D@?$positional_parameter_base@DV?$stream_output_adapter@D@__crt_stdio_output@@@__crt_stdio_output@@CA?AW4parameter_type@01@PAD@Z 10060e8a f i libucrt:output.obj
 0001:0005fe8e       ??$get_parameter_type@D@?$positional_parameter_base@DV?$string_output_adapter@D@__crt_stdio_output@@@__crt_stdio_output@@CA?AW4parameter_type@01@PAD@Z 10060e8e f i libucrt:output.obj
 0001:0005fe92       ??$get_parameter_type@D@?$positional_parameter_base@_WV?$stream_output_adapter@_W@__crt_stdio_output@@@__crt_stdio_output@@CA?AW4parameter_type@01@PAD@Z 10060e92 f i libucrt:output.obj
 0001:0005fe96       ??$get_parameter_type@D@?$positional_parameter_base@_WV?$string_output_adapter@_W@__crt_stdio_output@@@__crt_stdio_output@@CA?AW4parameter_type@01@PAD@Z 10060e96 f i libucrt:output.obj
 0001:0005feaa       ??$get_parameter_type@X@?$positional_parameter_base@DV?$stream_output_adapter@D@__crt_stdio_output@@@__crt_stdio_output@@CA?AW4parameter_type@01@PAX@Z 10060eaa f i libucrt:output.obj
 0001:0005feae       ??$get_parameter_type@X@?$positional_parameter_base@DV?$string_output_adapter@D@__crt_stdio_output@@@__crt_stdio_output@@CA?AW4parameter_type@01@PAX@Z 10060eae f i libucrt:output.obj
 0001:0005feb2       ??$get_parameter_type@X@?$positional_parameter_base@_WV?$stream_output_adapter@_W@__crt_stdio_output@@@__crt_stdio_output@@CA?AW4parameter_type@01@PAX@Z 10060eb2 f i libucrt:output.obj
 0001:0005feb6       ??$get_parameter_type@X@?$positional_parameter_base@_WV?$string_output_adapter@_W@__crt_stdio_output@@@__crt_stdio_output@@CA?AW4parameter_type@01@PAX@Z 10060eb6 f i libucrt:output.obj
 0001:0005feba       ??$is_character_specifier@D@?$positional_parameter_base@DV?$stream_output_adapter@D@__crt_stdio_output@@@__crt_stdio_output@@CA_ND@Z 10060eba f i libucrt:output.obj
 0001:0005fed8       ??$is_character_specifier@D@?$positional_parameter_base@DV?$string_output_adapter@D@__crt_stdio_output@@@__crt_stdio_output@@CA_ND@Z 10060ed8 f i libucrt:output.obj
 0001:0005fef6       ??$is_character_specifier@_W@?$positional_parameter_base@_WV?$stream_output_adapter@_W@__crt_stdio_output@@@__crt_stdio_output@@CA_N_W@Z 10060ef6 f i libucrt:output.obj
 0001:0005ff17       ??$is_character_specifier@_W@?$positional_parameter_base@_WV?$string_output_adapter@_W@__crt_stdio_output@@@__crt_stdio_output@@CA_N_W@Z 10060f17 f i libucrt:output.obj
 0001:0005ff38       ??$is_integral_specifier@D@?$positional_parameter_base@DV?$stream_output_adapter@D@__crt_stdio_output@@@__crt_stdio_output@@CA_ND@Z 10060f38 f i libucrt:output.obj
 0001:0005ff6f       ??$is_integral_specifier@D@?$positional_parameter_base@DV?$string_output_adapter@D@__crt_stdio_output@@@__crt_stdio_output@@CA_ND@Z 10060f6f f i libucrt:output.obj
 0001:0005ffa6       ??$is_integral_specifier@_W@?$positional_parameter_base@_WV?$stream_output_adapter@_W@__crt_stdio_output@@@__crt_stdio_output@@CA_N_W@Z 10060fa6 f i libucrt:output.obj
 0001:0005ffef       ??$is_integral_specifier@_W@?$positional_parameter_base@_WV?$string_output_adapter@_W@__crt_stdio_output@@@__crt_stdio_output@@CA_N_W@Z 10060fef f i libucrt:output.obj
 0001:00060038       ??$is_pointer_specifier@D@?$positional_parameter_base@DV?$stream_output_adapter@D@__crt_stdio_output@@@__crt_stdio_output@@CA_ND@Z 10061038 f i libucrt:output.obj
 0001:00060049       ??$is_pointer_specifier@D@?$positional_parameter_base@DV?$string_output_adapter@D@__crt_stdio_output@@@__crt_stdio_output@@CA_ND@Z 10061049 f i libucrt:output.obj
 0001:0006005a       ??$is_pointer_specifier@_W@?$positional_parameter_base@_WV?$stream_output_adapter@_W@__crt_stdio_output@@@__crt_stdio_output@@CA_N_W@Z 1006105a f i libucrt:output.obj
 0001:0006006c       ??$is_pointer_specifier@_W@?$positional_parameter_base@_WV?$string_output_adapter@_W@__crt_stdio_output@@@__crt_stdio_output@@CA_N_W@Z 1006106c f i libucrt:output.obj
 0001:0006007e       ??$is_string_specifier@D@?$positional_parameter_base@DV?$stream_output_adapter@D@__crt_stdio_output@@@__crt_stdio_output@@CA_ND@Z 1006107e f i libucrt:output.obj
 0001:0006009c       ??$is_string_specifier@D@?$positional_parameter_base@DV?$string_output_adapter@D@__crt_stdio_output@@@__crt_stdio_output@@CA_ND@Z 1006109c f i libucrt:output.obj
 0001:000600ba       ??$is_string_specifier@_W@?$positional_parameter_base@_WV?$stream_output_adapter@_W@__crt_stdio_output@@@__crt_stdio_output@@CA_N_W@Z 100610ba f i libucrt:output.obj
 0001:000600db       ??$is_string_specifier@_W@?$positional_parameter_base@_WV?$string_output_adapter@_W@__crt_stdio_output@@@__crt_stdio_output@@CA_N_W@Z 100610db f i libucrt:output.obj
 0001:000600fc       ??$is_wide_character_specifier@D@__crt_stdio_output@@YA_N_KDW4length_modifier@0@@Z 100610fc f i libucrt:output.obj
 0001:00060139       ??$is_wide_character_specifier@_W@__crt_stdio_output@@YA_N_K_WW4length_modifier@0@@Z 10061139 f i libucrt:output.obj
 0001:0006019a       ??$peek_va_arg@C@__crt_stdio_output@@YACPAD@Z 1006119a f i libucrt:output.obj
 0001:000601a9       ??$peek_va_arg@E@__crt_stdio_output@@YAEPAD@Z 100611a9 f i libucrt:output.obj
 0001:000601b8       ??$peek_va_arg@F@__crt_stdio_output@@YAFPAD@Z 100611b8 f i libucrt:output.obj
 0001:000601c8       ??$peek_va_arg@G@__crt_stdio_output@@YAGPAD@Z 100611c8 f i libucrt:output.obj
 0001:000601d8       ??$peek_va_arg@H@__crt_stdio_output@@YAHPAD@Z 100611d8 f i libucrt:output.obj
 0001:000601e7       ??$peek_va_arg@I@__crt_stdio_output@@YAIPAD@Z 100611e7 f i libucrt:output.obj
 0001:000601f6       ??$peek_va_arg@PAD@__crt_stdio_output@@YAPADPAD@Z 100611f6 f i libucrt:output.obj
 0001:00060241       ??$peek_va_arg@PAX@__crt_stdio_output@@YAPAXPAD@Z 10061241 f i libucrt:output.obj
 0001:00060250       ??$peek_va_arg@U_CRT_DOUBLE@@@__crt_stdio_output@@YA?AU_CRT_DOUBLE@@PAD@Z 10061250 f i libucrt:output.obj
 0001:00060262       ??$peek_va_arg@_J@__crt_stdio_output@@YA_JPAD@Z 10061262 f i libucrt:output.obj
 0001:00060274       ??$peek_va_arg@_K@__crt_stdio_output@@YA_KPAD@Z 10061274 f i libucrt:output.obj
 0001:00060286       ??$peek_va_arg@_W@__crt_stdio_output@@YA_WPAD@Z 10061286 f i libucrt:output.obj
 0001:00060296       ??$puttc_nolock@ABDPAU_iobuf@@@?$__crt_char_traits@D@@SAHABD$$QAPAU_iobuf@@@Z 10061296 f i libucrt:output.obj
 0001:000602b6       ??$puttc_nolock@AB_WPAU_iobuf@@@?$__crt_char_traits@_W@@SAGAB_W$$QAPAU_iobuf@@@Z 100612b6 f i libucrt:output.obj
 0001:000602d6       ??$read_va_arg@C@__crt_stdio_output@@YACAAPAD@Z 100612d6 f i libucrt:output.obj
 0001:000602ec       ??$read_va_arg@E@__crt_stdio_output@@YAEAAPAD@Z 100612ec f i libucrt:output.obj
 0001:00060302       ??$read_va_arg@F@__crt_stdio_output@@YAFAAPAD@Z 10061302 f i libucrt:output.obj
 0001:00060319       ??$read_va_arg@G@__crt_stdio_output@@YAGAAPAD@Z 10061319 f i libucrt:output.obj
 0001:00060330       ??$read_va_arg@H@__crt_stdio_output@@YAHAAPAD@Z 10061330 f i libucrt:output.obj
 0001:00060346       ??$read_va_arg@I@__crt_stdio_output@@YAIAAPAD@Z 10061346 f i libucrt:output.obj
 0001:0006035c       ??$read_va_arg@PAD@__crt_stdio_output@@YAPADAAPAD@Z 1006135c f i libucrt:output.obj
 0001:0006047a       ??$read_va_arg@PAX@__crt_stdio_output@@YAPAXAAPAD@Z 1006147a f i libucrt:output.obj
 0001:00060490       ??$read_va_arg@U_CRT_DOUBLE@@@__crt_stdio_output@@YA?AU_CRT_DOUBLE@@AAPAD@Z 10061490 f i libucrt:output.obj
 0001:000604ab       ??$read_va_arg@_J@__crt_stdio_output@@YA_JAAPAD@Z 100614ab f i libucrt:output.obj
 0001:000604c5       ??$read_va_arg@_K@__crt_stdio_output@@YA_KAAPAD@Z 100614c5 f i libucrt:output.obj
 0001:000604df       ??$read_va_arg@_W@__crt_stdio_output@@YA_WAAPAD@Z 100614df f i libucrt:output.obj
 0001:000604f6       ??$scratch_count@D@formatting_buffer@__crt_stdio_output@@QBEIXZ 100614f6 f i libucrt:output.obj
 0001:000604fb       ??$scratch_data@D@formatting_buffer@__crt_stdio_output@@QAEPADXZ 100614fb f i libucrt:output.obj
 0001:00060520       ??$tcstol@AAPBDPAPADH@?$__crt_char_traits@D@@SAJAAPBD$$QAPAPAD$$QAH@Z 10061520 f i libucrt:output.obj
 0001:00060545       ??$tcstol@AAPB_WPAPA_WH@?$__crt_char_traits@_W@@SAJAAPB_W$$QAPAPA_W$$QAH@Z 10061545 f i libucrt:output.obj
 0001:0006056a       ??$tcstol@PBDPAPADH@?$__crt_char_traits@D@@SAJ$$QAPBD$$QAPAPAD$$QAH@Z 1006156a f i libucrt:output.obj
 0001:0006058f       ??$tcstol@PB_WPAPA_WH@?$__crt_char_traits@_W@@SAJ$$QAPB_W$$QAPAPA_W$$QAH@Z 1006158f f i libucrt:output.obj
 0001:000605b4       ??$type_case_integer_parse_into_buffer@I@?$output_processor@DV?$stream_output_adapter@D@__crt_stdio_output@@V?$format_validation_base@DV?$stream_output_adapter@D@__crt_stdio_output@@@2@@__crt_stdio_output@@AAEXII_N@Z 100615b4 f i libucrt:output.obj
 0001:00060643       ??$type_case_integer_parse_into_buffer@I@?$output_processor@DV?$stream_output_adapter@D@__crt_stdio_output@@V?$positional_parameter_base@DV?$stream_output_adapter@D@__crt_stdio_output@@@2@@__crt_stdio_output@@AAEXII_N@Z 10061643 f i libucrt:output.obj
 0001:000606d2       ??$type_case_integer_parse_into_buffer@I@?$output_processor@DV?$stream_output_adapter@D@__crt_stdio_output@@V?$standard_base@DV?$stream_output_adapter@D@__crt_stdio_output@@@2@@__crt_stdio_output@@AAEXII_N@Z 100616d2 f i libucrt:output.obj
 0001:00060761       ??$type_case_integer_parse_into_buffer@I@?$output_processor@DV?$string_output_adapter@D@__crt_stdio_output@@V?$format_validation_base@DV?$string_output_adapter@D@__crt_stdio_output@@@2@@__crt_stdio_output@@AAEXII_N@Z 10061761 f i libucrt:output.obj
 0001:000607f0       ??$type_case_integer_parse_into_buffer@I@?$output_processor@DV?$string_output_adapter@D@__crt_stdio_output@@V?$positional_parameter_base@DV?$string_output_adapter@D@__crt_stdio_output@@@2@@__crt_stdio_output@@AAEXII_N@Z 100617f0 f i libucrt:output.obj
 0001:0006087f       ??$type_case_integer_parse_into_buffer@I@?$output_processor@DV?$string_output_adapter@D@__crt_stdio_output@@V?$standard_base@DV?$string_output_adapter@D@__crt_stdio_output@@@2@@__crt_stdio_output@@AAEXII_N@Z 1006187f f i libucrt:output.obj
 0001:0006090e       ??$type_case_integer_parse_into_buffer@I@?$output_processor@_WV?$stream_output_adapter@_W@__crt_stdio_output@@V?$format_validation_base@_WV?$stream_output_adapter@_W@__crt_stdio_output@@@2@@__crt_stdio_output@@AAEXII_N@Z 1006190e f i libucrt:output.obj
 0001:000609b6       ??$type_case_integer_parse_into_buffer@I@?$output_processor@_WV?$stream_output_adapter@_W@__crt_stdio_output@@V?$positional_parameter_base@_WV?$stream_output_adapter@_W@__crt_stdio_output@@@2@@__crt_stdio_output@@AAEXII_N@Z 100619b6 f i libucrt:output.obj
 0001:00060a5e       ??$type_case_integer_parse_into_buffer@I@?$output_processor@_WV?$stream_output_adapter@_W@__crt_stdio_output@@V?$standard_base@_WV?$stream_output_adapter@_W@__crt_stdio_output@@@2@@__crt_stdio_output@@AAEXII_N@Z 10061a5e f i libucrt:output.obj
 0001:00060b06       ??$type_case_integer_parse_into_buffer@I@?$output_processor@_WV?$string_output_adapter@_W@__crt_stdio_output@@V?$format_validation_base@_WV?$string_output_adapter@_W@__crt_stdio_output@@@2@@__crt_stdio_output@@AAEXII_N@Z 10061b06 f i libucrt:output.obj
 0001:00060bae       ??$type_case_integer_parse_into_buffer@I@?$output_processor@_WV?$string_output_adapter@_W@__crt_stdio_output@@V?$positional_parameter_base@_WV?$string_output_adapter@_W@__crt_stdio_output@@@2@@__crt_stdio_output@@AAEXII_N@Z 10061bae f i libucrt:output.obj
 0001:00060c56       ??$type_case_integer_parse_into_buffer@I@?$output_processor@_WV?$string_output_adapter@_W@__crt_stdio_output@@V?$standard_base@_WV?$string_output_adapter@_W@__crt_stdio_output@@@2@@__crt_stdio_output@@AAEXII_N@Z 10061c56 f i libucrt:output.obj
 0001:00060cfe       ??$type_case_integer_parse_into_buffer@_K@?$output_processor@DV?$stream_output_adapter@D@__crt_stdio_output@@V?$format_validation_base@DV?$stream_output_adapter@D@__crt_stdio_output@@@2@@__crt_stdio_output@@AAEX_KI_N@Z 10061cfe f i libucrt:output.obj
 0001:00060db2       ??$type_case_integer_parse_into_buffer@_K@?$output_processor@DV?$stream_output_adapter@D@__crt_stdio_output@@V?$positional_parameter_base@DV?$stream_output_adapter@D@__crt_stdio_output@@@2@@__crt_stdio_output@@AAEX_KI_N@Z 10061db2 f i libucrt:output.obj
 0001:00060e66       ??$type_case_integer_parse_into_buffer@_K@?$output_processor@DV?$stream_output_adapter@D@__crt_stdio_output@@V?$standard_base@DV?$stream_output_adapter@D@__crt_stdio_output@@@2@@__crt_stdio_output@@AAEX_KI_N@Z 10061e66 f i libucrt:output.obj
 0001:00060f1a       ??$type_case_integer_parse_into_buffer@_K@?$output_processor@DV?$string_output_adapter@D@__crt_stdio_output@@V?$format_validation_base@DV?$string_output_adapter@D@__crt_stdio_output@@@2@@__crt_stdio_output@@AAEX_KI_N@Z 10061f1a f i libucrt:output.obj
 0001:00060fce       ??$type_case_integer_parse_into_buffer@_K@?$output_processor@DV?$string_output_adapter@D@__crt_stdio_output@@V?$positional_parameter_base@DV?$string_output_adapter@D@__crt_stdio_output@@@2@@__crt_stdio_output@@AAEX_KI_N@Z 10061fce f i libucrt:output.obj
 0001:00061082       ??$type_case_integer_parse_into_buffer@_K@?$output_processor@DV?$string_output_adapter@D@__crt_stdio_output@@V?$standard_base@DV?$string_output_adapter@D@__crt_stdio_output@@@2@@__crt_stdio_output@@AAEX_KI_N@Z 10062082 f i libucrt:output.obj
 0001:00061136       ??$type_case_integer_parse_into_buffer@_K@?$output_processor@_WV?$stream_output_adapter@_W@__crt_stdio_output@@V?$format_validation_base@_WV?$stream_output_adapter@_W@__crt_stdio_output@@@2@@__crt_stdio_output@@AAEX_KI_N@Z 10062136 f i libucrt:output.obj
 0001:00061203       ??$type_case_integer_parse_into_buffer@_K@?$output_processor@_WV?$stream_output_adapter@_W@__crt_stdio_output@@V?$positional_parameter_base@_WV?$stream_output_adapter@_W@__crt_stdio_output@@@2@@__crt_stdio_output@@AAEX_KI_N@Z 10062203 f i libucrt:output.obj
 0001:000612d0       ??$type_case_integer_parse_into_buffer@_K@?$output_processor@_WV?$stream_output_adapter@_W@__crt_stdio_output@@V?$standard_base@_WV?$stream_output_adapter@_W@__crt_stdio_output@@@2@@__crt_stdio_output@@AAEX_KI_N@Z 100622d0 f i libucrt:output.obj
 0001:0006139d       ??$type_case_integer_parse_into_buffer@_K@?$output_processor@_WV?$string_output_adapter@_W@__crt_stdio_output@@V?$format_validation_base@_WV?$string_output_adapter@_W@__crt_stdio_output@@@2@@__crt_stdio_output@@AAEX_KI_N@Z 1006239d f i libucrt:output.obj
 0001:0006146a       ??$type_case_integer_parse_into_buffer@_K@?$output_processor@_WV?$string_output_adapter@_W@__crt_stdio_output@@V?$positional_parameter_base@_WV?$string_output_adapter@_W@__crt_stdio_output@@@2@@__crt_stdio_output@@AAEX_KI_N@Z 1006246a f i libucrt:output.obj
 0001:00061537       ??$type_case_integer_parse_into_buffer@_K@?$output_processor@_WV?$string_output_adapter@_W@__crt_stdio_output@@V?$standard_base@_WV?$string_output_adapter@_W@__crt_stdio_output@@@2@@__crt_stdio_output@@AAEX_KI_N@Z 10062537 f i libucrt:output.obj
 0001:00061604       ??$write_multiple_characters@V?$stream_output_adapter@D@__crt_stdio_output@@D@__crt_stdio_output@@YAXABV?$stream_output_adapter@D@0@DHQAH@Z 10062604 f i libucrt:output.obj
 0001:0006164d       ??$write_multiple_characters@V?$stream_output_adapter@_W@__crt_stdio_output@@D@__crt_stdio_output@@YAXABV?$stream_output_adapter@_W@0@DHQAH@Z 1006264d f i libucrt:output.obj
 0001:0006169d       ??$write_multiple_characters@V?$string_output_adapter@D@__crt_stdio_output@@D@__crt_stdio_output@@YAXABV?$string_output_adapter@D@0@DHQAH@Z 1006269d f i libucrt:output.obj
 0001:000616d4       ??$write_multiple_characters@V?$string_output_adapter@_W@__crt_stdio_output@@D@__crt_stdio_output@@YAXABV?$string_output_adapter@_W@0@DHQAH@Z 100626d4 f i libucrt:output.obj
 0001:00061945       ??0?$common_data@D@__crt_stdio_output@@IAE@XZ 10062945 f i libucrt:output.obj
 0001:0006199d       ??0?$common_data@_W@__crt_stdio_output@@IAE@XZ 1006299d f i libucrt:output.obj
 0001:000619fc       ??0?$output_adapter_data@DV?$stream_output_adapter@D@__crt_stdio_output@@@__crt_stdio_output@@IAE@ABV?$stream_output_adapter@D@1@_KQBDQAU__crt_locale_pointers@@QAD@Z 100629fc f i libucrt:output.obj
 0001:00061a47       ??0?$output_adapter_data@DV?$string_output_adapter@D@__crt_stdio_output@@@__crt_stdio_output@@IAE@ABV?$string_output_adapter@D@1@_KQBDQAU__crt_locale_pointers@@QAD@Z 10062a47 f i libucrt:output.obj
 0001:00061a92       ??0?$output_adapter_data@_WV?$stream_output_adapter@_W@__crt_stdio_output@@@__crt_stdio_output@@IAE@ABV?$stream_output_adapter@_W@1@_KQB_WQAU__crt_locale_pointers@@QAD@Z 10062a92 f i libucrt:output.obj
 0001:00061add       ??0?$output_adapter_data@_WV?$string_output_adapter@_W@__crt_stdio_output@@@__crt_stdio_output@@IAE@ABV?$string_output_adapter@_W@1@_KQB_WQAU__crt_locale_pointers@@QAD@Z 10062add f i libucrt:output.obj
 0001:00061b28       ??0?$output_processor@DV?$stream_output_adapter@D@__crt_stdio_output@@V?$format_validation_base@DV?$stream_output_adapter@D@__crt_stdio_output@@@2@@__crt_stdio_output@@QAE@ABV?$stream_output_adapter@D@1@_KQBDQAU__crt_locale_pointers@@QAD@Z 10062b28 f i libucrt:output.obj
 0001:00061b60       ??0?$output_processor@DV?$stream_output_adapter@D@__crt_stdio_output@@V?$positional_parameter_base@DV?$stream_output_adapter@D@__crt_stdio_output@@@2@@__crt_stdio_output@@QAE@ABV?$stream_output_adapter@D@1@_KQBDQAU__crt_locale_pointers@@QAD@Z 10062b60 f i libucrt:output.obj
 0001:00061b90       ??0?$output_processor@DV?$stream_output_adapter@D@__crt_stdio_output@@V?$standard_base@DV?$stream_output_adapter@D@__crt_stdio_output@@@2@@__crt_stdio_output@@QAE@ABV?$stream_output_adapter@D@1@_KQBDQAU__crt_locale_pointers@@QAD@Z 10062b90 f i libucrt:output.obj
 0001:00061bc8       ??0?$output_processor@DV?$string_output_adapter@D@__crt_stdio_output@@V?$format_validation_base@DV?$string_output_adapter@D@__crt_stdio_output@@@2@@__crt_stdio_output@@QAE@ABV?$string_output_adapter@D@1@_KQBDQAU__crt_locale_pointers@@QAD@Z 10062bc8 f i libucrt:output.obj
 0001:00061c00       ??0?$output_processor@DV?$string_output_adapter@D@__crt_stdio_output@@V?$positional_parameter_base@DV?$string_output_adapter@D@__crt_stdio_output@@@2@@__crt_stdio_output@@QAE@ABV?$string_output_adapter@D@1@_KQBDQAU__crt_locale_pointers@@QAD@Z 10062c00 f i libucrt:output.obj
 0001:00061c30       ??0?$output_processor@DV?$string_output_adapter@D@__crt_stdio_output@@V?$standard_base@DV?$string_output_adapter@D@__crt_stdio_output@@@2@@__crt_stdio_output@@QAE@ABV?$string_output_adapter@D@1@_KQBDQAU__crt_locale_pointers@@QAD@Z 10062c30 f i libucrt:output.obj
 0001:00061c68       ??0?$output_processor@_WV?$stream_output_adapter@_W@__crt_stdio_output@@V?$format_validation_base@_WV?$stream_output_adapter@_W@__crt_stdio_output@@@2@@__crt_stdio_output@@QAE@ABV?$stream_output_adapter@_W@1@_KQB_WQAU__crt_locale_pointers@@QAD@Z 10062c68 f i libucrt:output.obj
 0001:00061ca0       ??0?$output_processor@_WV?$stream_output_adapter@_W@__crt_stdio_output@@V?$positional_parameter_base@_WV?$stream_output_adapter@_W@__crt_stdio_output@@@2@@__crt_stdio_output@@QAE@ABV?$stream_output_adapter@_W@1@_KQB_WQAU__crt_locale_pointers@@QAD@Z 10062ca0 f i libucrt:output.obj
 0001:00061cd0       ??0?$output_processor@_WV?$stream_output_adapter@_W@__crt_stdio_output@@V?$standard_base@_WV?$stream_output_adapter@_W@__crt_stdio_output@@@2@@__crt_stdio_output@@QAE@ABV?$stream_output_adapter@_W@1@_KQB_WQAU__crt_locale_pointers@@QAD@Z 10062cd0 f i libucrt:output.obj
 0001:00061d08       ??0?$output_processor@_WV?$string_output_adapter@_W@__crt_stdio_output@@V?$format_validation_base@_WV?$string_output_adapter@_W@__crt_stdio_output@@@2@@__crt_stdio_output@@QAE@ABV?$string_output_adapter@_W@1@_KQB_WQAU__crt_locale_pointers@@QAD@Z 10062d08 f i libucrt:output.obj
 0001:00061d40       ??0?$output_processor@_WV?$string_output_adapter@_W@__crt_stdio_output@@V?$positional_parameter_base@_WV?$string_output_adapter@_W@__crt_stdio_output@@@2@@__crt_stdio_output@@QAE@ABV?$string_output_adapter@_W@1@_KQB_WQAU__crt_locale_pointers@@QAD@Z 10062d40 f i libucrt:output.obj
 0001:00061d70       ??0?$output_processor@_WV?$string_output_adapter@_W@__crt_stdio_output@@V?$standard_base@_WV?$string_output_adapter@_W@__crt_stdio_output@@@2@@__crt_stdio_output@@QAE@ABV?$string_output_adapter@_W@1@_KQB_WQAU__crt_locale_pointers@@QAD@Z 10062d70 f i libucrt:output.obj
 0001:00061da8       ??0?$stream_output_adapter@D@__crt_stdio_output@@QAE@QAU_iobuf@@@Z 10062da8 f i libucrt:output.obj
 0001:00061dbc       ??0?$stream_output_adapter@_W@__crt_stdio_output@@QAE@QAU_iobuf@@@Z 10062dbc f i libucrt:output.obj
 0001:00061dd0       ??0?$string_output_adapter@D@__crt_stdio_output@@QAE@QAU?$string_output_adapter_context@D@1@@Z 10062dd0 f i libucrt:output.obj
 0001:00061de4       ??0?$string_output_adapter@_W@__crt_stdio_output@@QAE@QAU?$string_output_adapter_context@_W@1@@Z 10062de4 f i libucrt:output.obj
 0001:00061df8       ??0_LocaleUpdate@@QAE@QAU__crt_locale_pointers@@@Z 10062df8 f i libucrt:output.obj
 0001:00061e9b       ??0__acrt_stdio_temporary_buffering_guard@@QAE@QAU_iobuf@@@Z 10062e9b f i libucrt:output.obj
 0001:00061ec0       ??0__crt_deferred_errno_cache@@QAE@XZ 10062ec0 f i libucrt:output.obj
 0001:00061ec6       ??0__crt_errno_guard@@QAE@QAH@Z 10062ec6 f i libucrt:output.obj
 0001:00061ee4       ??0formatting_buffer@__crt_stdio_output@@QAE@XZ 10062ee4 f i libucrt:output.obj
 0001:00061ef9       ??1?$common_data@D@__crt_stdio_output@@QAE@XZ 10062ef9 f i libucrt:output.obj
 0001:00061f03       ??1?$common_data@_W@__crt_stdio_output@@QAE@XZ 10062f03 f i libucrt:output.obj
 0001:00061f0d       ??1?$format_validation_base@DV?$stream_output_adapter@D@__crt_stdio_output@@@__crt_stdio_output@@QAE@XZ 10062f0d f i libucrt:output.obj
 0001:00061f17       ??1?$format_validation_base@DV?$string_output_adapter@D@__crt_stdio_output@@@__crt_stdio_output@@QAE@XZ 10062f17 f i libucrt:output.obj
 0001:00061f21       ??1?$format_validation_base@_WV?$stream_output_adapter@_W@__crt_stdio_output@@@__crt_stdio_output@@QAE@XZ 10062f21 f i libucrt:output.obj
 0001:00061f2b       ??1?$format_validation_base@_WV?$string_output_adapter@_W@__crt_stdio_output@@@__crt_stdio_output@@QAE@XZ 10062f2b f i libucrt:output.obj
 0001:00061f35       ??1?$output_adapter_data@DV?$stream_output_adapter@D@__crt_stdio_output@@@__crt_stdio_output@@QAE@XZ 10062f35 f i libucrt:output.obj
 0001:00061f3f       ??1?$output_adapter_data@DV?$string_output_adapter@D@__crt_stdio_output@@@__crt_stdio_output@@QAE@XZ 10062f3f f i libucrt:output.obj
 0001:00061f49       ??1?$output_adapter_data@_WV?$stream_output_adapter@_W@__crt_stdio_output@@@__crt_stdio_output@@QAE@XZ 10062f49 f i libucrt:output.obj
 0001:00061f53       ??1?$output_adapter_data@_WV?$string_output_adapter@_W@__crt_stdio_output@@@__crt_stdio_output@@QAE@XZ 10062f53 f i libucrt:output.obj
 0001:00061f5d       ??1?$output_processor@DV?$stream_output_adapter@D@__crt_stdio_output@@V?$format_validation_base@DV?$stream_output_adapter@D@__crt_stdio_output@@@2@@__crt_stdio_output@@QAE@XZ 10062f5d f i libucrt:output.obj
 0001:00061f67       ??1?$output_processor@DV?$stream_output_adapter@D@__crt_stdio_output@@V?$positional_parameter_base@DV?$stream_output_adapter@D@__crt_stdio_output@@@2@@__crt_stdio_output@@QAE@XZ 10062f67 f i libucrt:output.obj
 0001:00061f71       ??1?$output_processor@DV?$stream_output_adapter@D@__crt_stdio_output@@V?$standard_base@DV?$stream_output_adapter@D@__crt_stdio_output@@@2@@__crt_stdio_output@@QAE@XZ 10062f71 f i libucrt:output.obj
 0001:00061f7b       ??1?$output_processor@DV?$string_output_adapter@D@__crt_stdio_output@@V?$format_validation_base@DV?$string_output_adapter@D@__crt_stdio_output@@@2@@__crt_stdio_output@@QAE@XZ 10062f7b f i libucrt:output.obj
 0001:00061f85       ??1?$output_processor@DV?$string_output_adapter@D@__crt_stdio_output@@V?$positional_parameter_base@DV?$string_output_adapter@D@__crt_stdio_output@@@2@@__crt_stdio_output@@QAE@XZ 10062f85 f i libucrt:output.obj
 0001:00061f8f       ??1?$output_processor@DV?$string_output_adapter@D@__crt_stdio_output@@V?$standard_base@DV?$string_output_adapter@D@__crt_stdio_output@@@2@@__crt_stdio_output@@QAE@XZ 10062f8f f i libucrt:output.obj
 0001:00061f99       ??1?$output_processor@_WV?$stream_output_adapter@_W@__crt_stdio_output@@V?$format_validation_base@_WV?$stream_output_adapter@_W@__crt_stdio_output@@@2@@__crt_stdio_output@@QAE@XZ 10062f99 f i libucrt:output.obj
 0001:00061fa3       ??1?$output_processor@_WV?$stream_output_adapter@_W@__crt_stdio_output@@V?$positional_parameter_base@_WV?$stream_output_adapter@_W@__crt_stdio_output@@@2@@__crt_stdio_output@@QAE@XZ 10062fa3 f i libucrt:output.obj
 0001:00061fad       ??1?$output_processor@_WV?$stream_output_adapter@_W@__crt_stdio_output@@V?$standard_base@_WV?$stream_output_adapter@_W@__crt_stdio_output@@@2@@__crt_stdio_output@@QAE@XZ 10062fad f i libucrt:output.obj
 0001:00061fb7       ??1?$output_processor@_WV?$string_output_adapter@_W@__crt_stdio_output@@V?$format_validation_base@_WV?$string_output_adapter@_W@__crt_stdio_output@@@2@@__crt_stdio_output@@QAE@XZ 10062fb7 f i libucrt:output.obj
 0001:00061fc1       ??1?$output_processor@_WV?$string_output_adapter@_W@__crt_stdio_output@@V?$positional_parameter_base@_WV?$string_output_adapter@_W@__crt_stdio_output@@@2@@__crt_stdio_output@@QAE@XZ 10062fc1 f i libucrt:output.obj
 0001:00061fcb       ??1?$output_processor@_WV?$string_output_adapter@_W@__crt_stdio_output@@V?$standard_base@_WV?$string_output_adapter@_W@__crt_stdio_output@@@2@@__crt_stdio_output@@QAE@XZ 10062fcb f i libucrt:output.obj
 0001:00061fd5       ??1?$positional_parameter_base@DV?$stream_output_adapter@D@__crt_stdio_output@@@__crt_stdio_output@@QAE@XZ 10062fd5 f i libucrt:output.obj
 0001:00061fdf       ??1?$positional_parameter_base@DV?$string_output_adapter@D@__crt_stdio_output@@@__crt_stdio_output@@QAE@XZ 10062fdf f i libucrt:output.obj
 0001:00061fe9       ??1?$positional_parameter_base@_WV?$stream_output_adapter@_W@__crt_stdio_output@@@__crt_stdio_output@@QAE@XZ 10062fe9 f i libucrt:output.obj
 0001:00061ff3       ??1?$positional_parameter_base@_WV?$string_output_adapter@_W@__crt_stdio_output@@@__crt_stdio_output@@QAE@XZ 10062ff3 f i libucrt:output.obj
 0001:00061ffd       ??1?$standard_base@DV?$stream_output_adapter@D@__crt_stdio_output@@@__crt_stdio_output@@QAE@XZ 10062ffd f i libucrt:output.obj
 0001:00062007       ??1?$standard_base@DV?$string_output_adapter@D@__crt_stdio_output@@@__crt_stdio_output@@QAE@XZ 10063007 f i libucrt:output.obj
 0001:00062011       ??1?$standard_base@_WV?$stream_output_adapter@_W@__crt_stdio_output@@@__crt_stdio_output@@QAE@XZ 10063011 f i libucrt:output.obj
 0001:0006201b       ??1?$standard_base@_WV?$string_output_adapter@_W@__crt_stdio_output@@@__crt_stdio_output@@QAE@XZ 1006301b f i libucrt:output.obj
 0001:00062025       ??1_LocaleUpdate@@QAE@XZ   10063025 f i libucrt:output.obj
 0001:00062039       ??1__acrt_stdio_temporary_buffering_guard@@QAE@XZ 10063039 f i libucrt:output.obj
 0001:0006204b       ??1__crt_errno_guard@@QAE@XZ 1006304b f i libucrt:output.obj
 0001:00062060       ??1formatting_buffer@__crt_stdio_output@@QAE@XZ 10063060 f i libucrt:output.obj
 0001:00062080       ??4?$__crt_unique_heap_ptr@DU__crt_internal_free_policy@@@@QAEAAV0@$$QAV0@@Z 10063080 f i libucrt:output.obj
 0001:0006275b       ?GetLocaleT@_LocaleUpdate@@QAEPAU__crt_locale_pointers@@XZ 1006375b f i libucrt:output.obj
 0001:0006275f       ?adjust_hexit@?$output_processor@DV?$stream_output_adapter@D@__crt_stdio_output@@V?$format_validation_base@DV?$stream_output_adapter@D@__crt_stdio_output@@@2@@__crt_stdio_output@@CADH_N@Z 1006375f f i libucrt:output.obj
 0001:00062778       ?adjust_hexit@?$output_processor@DV?$stream_output_adapter@D@__crt_stdio_output@@V?$positional_parameter_base@DV?$stream_output_adapter@D@__crt_stdio_output@@@2@@__crt_stdio_output@@CADH_N@Z 10063778 f i libucrt:output.obj
 0001:00062791       ?adjust_hexit@?$output_processor@DV?$stream_output_adapter@D@__crt_stdio_output@@V?$standard_base@DV?$stream_output_adapter@D@__crt_stdio_output@@@2@@__crt_stdio_output@@CADH_N@Z 10063791 f i libucrt:output.obj
 0001:000627aa       ?adjust_hexit@?$output_processor@DV?$string_output_adapter@D@__crt_stdio_output@@V?$format_validation_base@DV?$string_output_adapter@D@__crt_stdio_output@@@2@@__crt_stdio_output@@CADH_N@Z 100637aa f i libucrt:output.obj
 0001:000627c3       ?adjust_hexit@?$output_processor@DV?$string_output_adapter@D@__crt_stdio_output@@V?$positional_parameter_base@DV?$string_output_adapter@D@__crt_stdio_output@@@2@@__crt_stdio_output@@CADH_N@Z 100637c3 f i libucrt:output.obj
 0001:000627dc       ?adjust_hexit@?$output_processor@DV?$string_output_adapter@D@__crt_stdio_output@@V?$standard_base@DV?$string_output_adapter@D@__crt_stdio_output@@@2@@__crt_stdio_output@@CADH_N@Z 100637dc f i libucrt:output.obj
 0001:000627f5       ?adjust_hexit@?$output_processor@_WV?$stream_output_adapter@_W@__crt_stdio_output@@V?$format_validation_base@_WV?$stream_output_adapter@_W@__crt_stdio_output@@@2@@__crt_stdio_output@@CADH_N@Z 100637f5 f i libucrt:output.obj
 0001:0006280e       ?adjust_hexit@?$output_processor@_WV?$stream_output_adapter@_W@__crt_stdio_output@@V?$positional_parameter_base@_WV?$stream_output_adapter@_W@__crt_stdio_output@@@2@@__crt_stdio_output@@CADH_N@Z 1006380e f i libucrt:output.obj
 0001:00062827       ?adjust_hexit@?$output_processor@_WV?$stream_output_adapter@_W@__crt_stdio_output@@V?$standard_base@_WV?$stream_output_adapter@_W@__crt_stdio_output@@@2@@__crt_stdio_output@@CADH_N@Z 10063827 f i libucrt:output.obj
 0001:00062840       ?adjust_hexit@?$output_processor@_WV?$string_output_adapter@_W@__crt_stdio_output@@V?$format_validation_base@_WV?$string_output_adapter@_W@__crt_stdio_output@@@2@@__crt_stdio_output@@CADH_N@Z 10063840 f i libucrt:output.obj
 0001:00062859       ?adjust_hexit@?$output_processor@_WV?$string_output_adapter@_W@__crt_stdio_output@@V?$positional_parameter_base@_WV?$string_output_adapter@_W@__crt_stdio_output@@@2@@__crt_stdio_output@@CADH_N@Z 10063859 f i libucrt:output.obj
 0001:00062872       ?adjust_hexit@?$output_processor@_WV?$string_output_adapter@_W@__crt_stdio_output@@V?$standard_base@_WV?$string_output_adapter@_W@__crt_stdio_output@@@2@@__crt_stdio_output@@CADH_N@Z 10063872 f i libucrt:output.obj
 0001:0006288b       ?advance_to_next_pass@?$positional_parameter_base@DV?$stream_output_adapter@D@__crt_stdio_output@@@__crt_stdio_output@@IAE_NXZ 1006388b f i libucrt:output.obj
 0001:000628ea       ?advance_to_next_pass@?$positional_parameter_base@DV?$string_output_adapter@D@__crt_stdio_output@@@__crt_stdio_output@@IAE_NXZ 100638ea f i libucrt:output.obj
 0001:00062949       ?advance_to_next_pass@?$positional_parameter_base@_WV?$stream_output_adapter@_W@__crt_stdio_output@@@__crt_stdio_output@@IAE_NXZ 10063949 f i libucrt:output.obj
 0001:000629a8       ?advance_to_next_pass@?$positional_parameter_base@_WV?$string_output_adapter@_W@__crt_stdio_output@@@__crt_stdio_output@@IAE_NXZ 100639a8 f i libucrt:output.obj
 0001:00062a07       ?advance_to_next_pass@?$standard_base@DV?$stream_output_adapter@D@__crt_stdio_output@@@__crt_stdio_output@@IAE_NXZ 10063a07 f i libucrt:output.obj
 0001:00062a1c       ?advance_to_next_pass@?$standard_base@DV?$string_output_adapter@D@__crt_stdio_output@@@__crt_stdio_output@@IAE_NXZ 10063a1c f i libucrt:output.obj
 0001:00062a31       ?advance_to_next_pass@?$standard_base@_WV?$stream_output_adapter@_W@__crt_stdio_output@@@__crt_stdio_output@@IAE_NXZ 10063a31 f i libucrt:output.obj
 0001:00062a46       ?advance_to_next_pass@?$standard_base@_WV?$string_output_adapter@_W@__crt_stdio_output@@@__crt_stdio_output@@IAE_NXZ 10063a46 f i libucrt:output.obj
 0001:00062a5b       ?crop_zeroes@__crt_stdio_output@@YAXPADQAU__crt_locale_pointers@@@Z 10063a5b f i libucrt:output.obj
 0001:00062ad3       ?find_next_state@?$output_processor@DV?$stream_output_adapter@D@__crt_stdio_output@@V?$format_validation_base@DV?$stream_output_adapter@D@__crt_stdio_output@@@2@@__crt_stdio_output@@ABE?AW4state@2@DW432@@Z 10063ad3 f i libucrt:output.obj
 0001:00062b25       ?find_next_state@?$output_processor@DV?$stream_output_adapter@D@__crt_stdio_output@@V?$positional_parameter_base@DV?$stream_output_adapter@D@__crt_stdio_output@@@2@@__crt_stdio_output@@ABE?AW4state@2@DW432@@Z 10063b25 f i libucrt:output.obj
 0001:00062b77       ?find_next_state@?$output_processor@DV?$stream_output_adapter@D@__crt_stdio_output@@V?$standard_base@DV?$stream_output_adapter@D@__crt_stdio_output@@@2@@__crt_stdio_output@@ABE?AW4state@2@DW432@@Z 10063b77 f i libucrt:output.obj
 0001:00062bc5       ?find_next_state@?$output_processor@DV?$string_output_adapter@D@__crt_stdio_output@@V?$format_validation_base@DV?$string_output_adapter@D@__crt_stdio_output@@@2@@__crt_stdio_output@@ABE?AW4state@2@DW432@@Z 10063bc5 f i libucrt:output.obj
 0001:00062c17       ?find_next_state@?$output_processor@DV?$string_output_adapter@D@__crt_stdio_output@@V?$positional_parameter_base@DV?$string_output_adapter@D@__crt_stdio_output@@@2@@__crt_stdio_output@@ABE?AW4state@2@DW432@@Z 10063c17 f i libucrt:output.obj
 0001:00062c69       ?find_next_state@?$output_processor@DV?$string_output_adapter@D@__crt_stdio_output@@V?$standard_base@DV?$string_output_adapter@D@__crt_stdio_output@@@2@@__crt_stdio_output@@ABE?AW4state@2@DW432@@Z 10063c69 f i libucrt:output.obj
 0001:00062cb7       ?find_next_state@?$output_processor@_WV?$stream_output_adapter@_W@__crt_stdio_output@@V?$format_validation_base@_WV?$stream_output_adapter@_W@__crt_stdio_output@@@2@@__crt_stdio_output@@ABE?AW4state@2@_WW432@@Z 10063cb7 f i libucrt:output.obj
 0001:00062d0c       ?find_next_state@?$output_processor@_WV?$stream_output_adapter@_W@__crt_stdio_output@@V?$positional_parameter_base@_WV?$stream_output_adapter@_W@__crt_stdio_output@@@2@@__crt_stdio_output@@ABE?AW4state@2@_WW432@@Z 10063d0c f i libucrt:output.obj
 0001:00062d61       ?find_next_state@?$output_processor@_WV?$stream_output_adapter@_W@__crt_stdio_output@@V?$standard_base@_WV?$stream_output_adapter@_W@__crt_stdio_output@@@2@@__crt_stdio_output@@ABE?AW4state@2@_WW432@@Z 10063d61 f i libucrt:output.obj
 0001:00062db2       ?find_next_state@?$output_processor@_WV?$string_output_adapter@_W@__crt_stdio_output@@V?$format_validation_base@_WV?$string_output_adapter@_W@__crt_stdio_output@@@2@@__crt_stdio_output@@ABE?AW4state@2@_WW432@@Z 10063db2 f i libucrt:output.obj
 0001:00062e07       ?find_next_state@?$output_processor@_WV?$string_output_adapter@_W@__crt_stdio_output@@V?$positional_parameter_base@_WV?$string_output_adapter@_W@__crt_stdio_output@@@2@@__crt_stdio_output@@ABE?AW4state@2@_WW432@@Z 10063e07 f i libucrt:output.obj
 0001:00062e5c       ?find_next_state@?$output_processor@_WV?$string_output_adapter@_W@__crt_stdio_output@@V?$standard_base@_WV?$string_output_adapter@_W@__crt_stdio_output@@@2@@__crt_stdio_output@@ABE?AW4state@2@_WW432@@Z 10063e5c f i libucrt:output.obj
 0001:00062ead       ?force_decimal_point@__crt_stdio_output@@YAXPADQAU__crt_locale_pointers@@@Z 10063ead f i libucrt:output.obj
 0001:00062f20       ?get@__crt_deferred_errno_cache@@QAEAAHXZ 10063f20 f i libucrt:output.obj
 0001:00062f39       ?get_flags@__crt_stdio_stream@@QBEJXZ 10063f39 f i libucrt:output.obj
 0001:00062f40       ?get_parameter_type@?$positional_parameter_base@DV?$stream_output_adapter@D@__crt_stdio_output@@@__crt_stdio_output@@CA?AW4parameter_type@12@F@Z 10063f40 f i libucrt:output.obj
 0001:00062f44       ?get_parameter_type@?$positional_parameter_base@DV?$stream_output_adapter@D@__crt_stdio_output@@@__crt_stdio_output@@CA?AW4parameter_type@12@G@Z 10063f44 f i libucrt:output.obj
 0001:00062f48       ?get_parameter_type@?$positional_parameter_base@DV?$stream_output_adapter@D@__crt_stdio_output@@@__crt_stdio_output@@CA?AW4parameter_type@12@H@Z 10063f48 f i libucrt:output.obj
 0001:00062f4c       ?get_parameter_type@?$positional_parameter_base@DV?$stream_output_adapter@D@__crt_stdio_output@@@__crt_stdio_output@@CA?AW4parameter_type@12@I@Z 10063f4c f i libucrt:output.obj
 0001:00062f50       ?get_parameter_type@?$positional_parameter_base@DV?$stream_output_adapter@D@__crt_stdio_output@@@__crt_stdio_output@@CA?AW4parameter_type@12@U_CRT_DOUBLE@@@Z 10063f50 f i libucrt:output.obj
 0001:00062f54       ?get_parameter_type@?$positional_parameter_base@DV?$stream_output_adapter@D@__crt_stdio_output@@@__crt_stdio_output@@CA?AW4parameter_type@12@_J@Z 10063f54 f i libucrt:output.obj
 0001:00062f58       ?get_parameter_type@?$positional_parameter_base@DV?$stream_output_adapter@D@__crt_stdio_output@@@__crt_stdio_output@@CA?AW4parameter_type@12@_K@Z 10063f58 f i libucrt:output.obj
 0001:00062f5c       ?get_parameter_type@?$positional_parameter_base@DV?$stream_output_adapter@D@__crt_stdio_output@@@__crt_stdio_output@@CA?AW4parameter_type@12@_W@Z 10063f5c f i libucrt:output.obj
 0001:00062f60       ?get_parameter_type@?$positional_parameter_base@DV?$string_output_adapter@D@__crt_stdio_output@@@__crt_stdio_output@@CA?AW4parameter_type@12@F@Z 10063f60 f i libucrt:output.obj
 0001:00062f64       ?get_parameter_type@?$positional_parameter_base@DV?$string_output_adapter@D@__crt_stdio_output@@@__crt_stdio_output@@CA?AW4parameter_type@12@G@Z 10063f64 f i libucrt:output.obj
 0001:00062f68       ?get_parameter_type@?$positional_parameter_base@DV?$string_output_adapter@D@__crt_stdio_output@@@__crt_stdio_output@@CA?AW4parameter_type@12@H@Z 10063f68 f i libucrt:output.obj
 0001:00062f6c       ?get_parameter_type@?$positional_parameter_base@DV?$string_output_adapter@D@__crt_stdio_output@@@__crt_stdio_output@@CA?AW4parameter_type@12@I@Z 10063f6c f i libucrt:output.obj
 0001:00062f70       ?get_parameter_type@?$positional_parameter_base@DV?$string_output_adapter@D@__crt_stdio_output@@@__crt_stdio_output@@CA?AW4parameter_type@12@U_CRT_DOUBLE@@@Z 10063f70 f i libucrt:output.obj
 0001:00062f74       ?get_parameter_type@?$positional_parameter_base@DV?$string_output_adapter@D@__crt_stdio_output@@@__crt_stdio_output@@CA?AW4parameter_type@12@_J@Z 10063f74 f i libucrt:output.obj
 0001:00062f78       ?get_parameter_type@?$positional_parameter_base@DV?$string_output_adapter@D@__crt_stdio_output@@@__crt_stdio_output@@CA?AW4parameter_type@12@_K@Z 10063f78 f i libucrt:output.obj
 0001:00062f7c       ?get_parameter_type@?$positional_parameter_base@DV?$string_output_adapter@D@__crt_stdio_output@@@__crt_stdio_output@@CA?AW4parameter_type@12@_W@Z 10063f7c f i libucrt:output.obj
 0001:00062f80       ?get_parameter_type@?$positional_parameter_base@_WV?$stream_output_adapter@_W@__crt_stdio_output@@@__crt_stdio_output@@CA?AW4parameter_type@12@F@Z 10063f80 f i libucrt:output.obj
 0001:00062f84       ?get_parameter_type@?$positional_parameter_base@_WV?$stream_output_adapter@_W@__crt_stdio_output@@@__crt_stdio_output@@CA?AW4parameter_type@12@G@Z 10063f84 f i libucrt:output.obj
 0001:00062f88       ?get_parameter_type@?$positional_parameter_base@_WV?$stream_output_adapter@_W@__crt_stdio_output@@@__crt_stdio_output@@CA?AW4parameter_type@12@H@Z 10063f88 f i libucrt:output.obj
 0001:00062f8c       ?get_parameter_type@?$positional_parameter_base@_WV?$stream_output_adapter@_W@__crt_stdio_output@@@__crt_stdio_output@@CA?AW4parameter_type@12@I@Z 10063f8c f i libucrt:output.obj
 0001:00062f90       ?get_parameter_type@?$positional_parameter_base@_WV?$stream_output_adapter@_W@__crt_stdio_output@@@__crt_stdio_output@@CA?AW4parameter_type@12@U_CRT_DOUBLE@@@Z 10063f90 f i libucrt:output.obj
 0001:00062f94       ?get_parameter_type@?$positional_parameter_base@_WV?$stream_output_adapter@_W@__crt_stdio_output@@@__crt_stdio_output@@CA?AW4parameter_type@12@_J@Z 10063f94 f i libucrt:output.obj
 0001:00062f98       ?get_parameter_type@?$positional_parameter_base@_WV?$stream_output_adapter@_W@__crt_stdio_output@@@__crt_stdio_output@@CA?AW4parameter_type@12@_K@Z 10063f98 f i libucrt:output.obj
 0001:00062f9c       ?get_parameter_type@?$positional_parameter_base@_WV?$stream_output_adapter@_W@__crt_stdio_output@@@__crt_stdio_output@@CA?AW4parameter_type@12@_W@Z 10063f9c f i libucrt:output.obj
 0001:00062fa0       ?get_parameter_type@?$positional_parameter_base@_WV?$string_output_adapter@_W@__crt_stdio_output@@@__crt_stdio_output@@CA?AW4parameter_type@12@F@Z 10063fa0 f i libucrt:output.obj
 0001:00062fa4       ?get_parameter_type@?$positional_parameter_base@_WV?$string_output_adapter@_W@__crt_stdio_output@@@__crt_stdio_output@@CA?AW4parameter_type@12@G@Z 10063fa4 f i libucrt:output.obj
 0001:00062fa8       ?get_parameter_type@?$positional_parameter_base@_WV?$string_output_adapter@_W@__crt_stdio_output@@@__crt_stdio_output@@CA?AW4parameter_type@12@H@Z 10063fa8 f i libucrt:output.obj
 0001:00062fac       ?get_parameter_type@?$positional_parameter_base@_WV?$string_output_adapter@_W@__crt_stdio_output@@@__crt_stdio_output@@CA?AW4parameter_type@12@I@Z 10063fac f i libucrt:output.obj
 0001:00062fb0       ?get_parameter_type@?$positional_parameter_base@_WV?$string_output_adapter@_W@__crt_stdio_output@@@__crt_stdio_output@@CA?AW4parameter_type@12@U_CRT_DOUBLE@@@Z 10063fb0 f i libucrt:output.obj
 0001:00062fb4       ?get_parameter_type@?$positional_parameter_base@_WV?$string_output_adapter@_W@__crt_stdio_output@@@__crt_stdio_output@@CA?AW4parameter_type@12@_J@Z 10063fb4 f i libucrt:output.obj
 0001:00062fb8       ?get_parameter_type@?$positional_parameter_base@_WV?$string_output_adapter@_W@__crt_stdio_output@@@__crt_stdio_output@@CA?AW4parameter_type@12@_K@Z 10063fb8 f i libucrt:output.obj
 0001:00062fbc       ?get_parameter_type@?$positional_parameter_base@_WV?$string_output_adapter@_W@__crt_stdio_output@@@__crt_stdio_output@@CA?AW4parameter_type@12@_W@Z 10063fbc f i libucrt:output.obj
 0001:00062fc0       ?has_flag@?$output_processor@DV?$stream_output_adapter@D@__crt_stdio_output@@V?$format_validation_base@DV?$stream_output_adapter@D@__crt_stdio_output@@@2@@__crt_stdio_output@@ABE_NI@Z 10063fc0 f i libucrt:output.obj
 0001:00062fd6       ?has_flag@?$output_processor@DV?$stream_output_adapter@D@__crt_stdio_output@@V?$positional_parameter_base@DV?$stream_output_adapter@D@__crt_stdio_output@@@2@@__crt_stdio_output@@ABE_NI@Z 10063fd6 f i libucrt:output.obj
 0001:00062fec       ?has_flag@?$output_processor@DV?$stream_output_adapter@D@__crt_stdio_output@@V?$standard_base@DV?$stream_output_adapter@D@__crt_stdio_output@@@2@@__crt_stdio_output@@ABE_NI@Z 10063fec f i libucrt:output.obj
 0001:00063002       ?has_flag@?$output_processor@DV?$string_output_adapter@D@__crt_stdio_output@@V?$format_validation_base@DV?$string_output_adapter@D@__crt_stdio_output@@@2@@__crt_stdio_output@@ABE_NI@Z 10064002 f i libucrt:output.obj
 0001:00063018       ?has_flag@?$output_processor@DV?$string_output_adapter@D@__crt_stdio_output@@V?$positional_parameter_base@DV?$string_output_adapter@D@__crt_stdio_output@@@2@@__crt_stdio_output@@ABE_NI@Z 10064018 f i libucrt:output.obj
 0001:0006302e       ?has_flag@?$output_processor@DV?$string_output_adapter@D@__crt_stdio_output@@V?$standard_base@DV?$string_output_adapter@D@__crt_stdio_output@@@2@@__crt_stdio_output@@ABE_NI@Z 1006402e f i libucrt:output.obj
 0001:00063044       ?has_flag@?$output_processor@_WV?$stream_output_adapter@_W@__crt_stdio_output@@V?$format_validation_base@_WV?$stream_output_adapter@_W@__crt_stdio_output@@@2@@__crt_stdio_output@@ABE_NI@Z 10064044 f i libucrt:output.obj
 0001:0006305a       ?has_flag@?$output_processor@_WV?$stream_output_adapter@_W@__crt_stdio_output@@V?$positional_parameter_base@_WV?$stream_output_adapter@_W@__crt_stdio_output@@@2@@__crt_stdio_output@@ABE_NI@Z 1006405a f i libucrt:output.obj
 0001:00063070       ?has_flag@?$output_processor@_WV?$stream_output_adapter@_W@__crt_stdio_output@@V?$standard_base@_WV?$stream_output_adapter@_W@__crt_stdio_output@@@2@@__crt_stdio_output@@ABE_NI@Z 10064070 f i libucrt:output.obj
 0001:00063086       ?has_flag@?$output_processor@_WV?$string_output_adapter@_W@__crt_stdio_output@@V?$format_validation_base@_WV?$string_output_adapter@_W@__crt_stdio_output@@@2@@__crt_stdio_output@@ABE_NI@Z 10064086 f i libucrt:output.obj
 0001:0006309c       ?has_flag@?$output_processor@_WV?$string_output_adapter@_W@__crt_stdio_output@@V?$positional_parameter_base@_WV?$string_output_adapter@_W@__crt_stdio_output@@@2@@__crt_stdio_output@@ABE_NI@Z 1006409c f i libucrt:output.obj
 0001:000630b2       ?has_flag@?$output_processor@_WV?$string_output_adapter@_W@__crt_stdio_output@@V?$standard_base@_WV?$string_output_adapter@_W@__crt_stdio_output@@@2@@__crt_stdio_output@@ABE_NI@Z 100640b2 f i libucrt:output.obj
 0001:000630c8       ?is_positional_parameter_reappearance_consistent@?$positional_parameter_base@DV?$stream_output_adapter@D@__crt_stdio_output@@@__crt_stdio_output@@AAE_NABUparameter_data@12@W4parameter_type@12@DW4length_modifier@2@@Z 100640c8 f i libucrt:output.obj
 0001:00063228       ?is_positional_parameter_reappearance_consistent@?$positional_parameter_base@DV?$string_output_adapter@D@__crt_stdio_output@@@__crt_stdio_output@@AAE_NABUparameter_data@12@W4parameter_type@12@DW4length_modifier@2@@Z 10064228 f i libucrt:output.obj
 0001:00063388       ?is_positional_parameter_reappearance_consistent@?$positional_parameter_base@_WV?$stream_output_adapter@_W@__crt_stdio_output@@@__crt_stdio_output@@AAE_NABUparameter_data@12@W4parameter_type@12@_WW4length_modifier@2@@Z 10064388 f i libucrt:output.obj
 0001:000634e8       ?is_positional_parameter_reappearance_consistent@?$positional_parameter_base@_WV?$string_output_adapter@_W@__crt_stdio_output@@@__crt_stdio_output@@AAE_NABUparameter_data@12@W4parameter_type@12@_WW4length_modifier@2@@Z 100644e8 f i libucrt:output.obj
 0001:00063648       ?is_string_backed@__crt_stdio_stream@@QBE_NXZ 10064648 f i libucrt:output.obj
 0001:00063657       ?narrow_null_string@?$output_processor@DV?$stream_output_adapter@D@__crt_stdio_output@@V?$format_validation_base@DV?$stream_output_adapter@D@__crt_stdio_output@@@2@@__crt_stdio_output@@CAPADXZ 10064657 f i libucrt:output.obj
 0001:0006365d       ?narrow_null_string@?$output_processor@DV?$stream_output_adapter@D@__crt_stdio_output@@V?$positional_parameter_base@DV?$stream_output_adapter@D@__crt_stdio_output@@@2@@__crt_stdio_output@@CAPADXZ 1006465d f i libucrt:output.obj
 0001:00063663       ?narrow_null_string@?$output_processor@DV?$stream_output_adapter@D@__crt_stdio_output@@V?$standard_base@DV?$stream_output_adapter@D@__crt_stdio_output@@@2@@__crt_stdio_output@@CAPADXZ 10064663 f i libucrt:output.obj
 0001:00063669       ?narrow_null_string@?$output_processor@DV?$string_output_adapter@D@__crt_stdio_output@@V?$format_validation_base@DV?$string_output_adapter@D@__crt_stdio_output@@@2@@__crt_stdio_output@@CAPADXZ 10064669 f i libucrt:output.obj
 0001:0006366f       ?narrow_null_string@?$output_processor@DV?$string_output_adapter@D@__crt_stdio_output@@V?$positional_parameter_base@DV?$string_output_adapter@D@__crt_stdio_output@@@2@@__crt_stdio_output@@CAPADXZ 1006466f f i libucrt:output.obj
 0001:00063675       ?narrow_null_string@?$output_processor@DV?$string_output_adapter@D@__crt_stdio_output@@V?$standard_base@DV?$string_output_adapter@D@__crt_stdio_output@@@2@@__crt_stdio_output@@CAPADXZ 10064675 f i libucrt:output.obj
 0001:0006367b       ?narrow_null_string@?$output_processor@_WV?$stream_output_adapter@_W@__crt_stdio_output@@V?$format_validation_base@_WV?$stream_output_adapter@_W@__crt_stdio_output@@@2@@__crt_stdio_output@@CAPADXZ 1006467b f i libucrt:output.obj
 0001:00063681       ?narrow_null_string@?$output_processor@_WV?$stream_output_adapter@_W@__crt_stdio_output@@V?$positional_parameter_base@_WV?$stream_output_adapter@_W@__crt_stdio_output@@@2@@__crt_stdio_output@@CAPADXZ 10064681 f i libucrt:output.obj
 0001:00063687       ?narrow_null_string@?$output_processor@_WV?$stream_output_adapter@_W@__crt_stdio_output@@V?$standard_base@_WV?$stream_output_adapter@_W@__crt_stdio_output@@@2@@__crt_stdio_output@@CAPADXZ 10064687 f i libucrt:output.obj
 0001:0006368d       ?narrow_null_string@?$output_processor@_WV?$string_output_adapter@_W@__crt_stdio_output@@V?$format_validation_base@_WV?$string_output_adapter@_W@__crt_stdio_output@@@2@@__crt_stdio_output@@CAPADXZ 1006468d f i libucrt:output.obj
 0001:00063693       ?narrow_null_string@?$output_processor@_WV?$string_output_adapter@_W@__crt_stdio_output@@V?$positional_parameter_base@_WV?$string_output_adapter@_W@__crt_stdio_output@@@2@@__crt_stdio_output@@CAPADXZ 10064693 f i libucrt:output.obj
 0001:00063699       ?narrow_null_string@?$output_processor@_WV?$string_output_adapter@_W@__crt_stdio_output@@V?$standard_base@_WV?$string_output_adapter@_W@__crt_stdio_output@@@2@@__crt_stdio_output@@CAPADXZ 10064699 f i libucrt:output.obj
 0001:0006369f       ?parse_int_from_format_string@?$output_processor@DV?$stream_output_adapter@D@__crt_stdio_output@@V?$format_validation_base@DV?$stream_output_adapter@D@__crt_stdio_output@@@2@@__crt_stdio_output@@AAE_NQAH@Z 1006469f f i libucrt:output.obj
 0001:00063732       ?parse_int_from_format_string@?$output_processor@DV?$stream_output_adapter@D@__crt_stdio_output@@V?$positional_parameter_base@DV?$stream_output_adapter@D@__crt_stdio_output@@@2@@__crt_stdio_output@@AAE_NQAH@Z 10064732 f i libucrt:output.obj
 0001:000637c5       ?parse_int_from_format_string@?$output_processor@DV?$stream_output_adapter@D@__crt_stdio_output@@V?$standard_base@DV?$stream_output_adapter@D@__crt_stdio_output@@@2@@__crt_stdio_output@@AAE_NQAH@Z 100647c5 f i libucrt:output.obj
 0001:00063858       ?parse_int_from_format_string@?$output_processor@DV?$string_output_adapter@D@__crt_stdio_output@@V?$format_validation_base@DV?$string_output_adapter@D@__crt_stdio_output@@@2@@__crt_stdio_output@@AAE_NQAH@Z 10064858 f i libucrt:output.obj
 0001:000638eb       ?parse_int_from_format_string@?$output_processor@DV?$string_output_adapter@D@__crt_stdio_output@@V?$positional_parameter_base@DV?$string_output_adapter@D@__crt_stdio_output@@@2@@__crt_stdio_output@@AAE_NQAH@Z 100648eb f i libucrt:output.obj
 0001:0006397e       ?parse_int_from_format_string@?$output_processor@DV?$string_output_adapter@D@__crt_stdio_output@@V?$standard_base@DV?$string_output_adapter@D@__crt_stdio_output@@@2@@__crt_stdio_output@@AAE_NQAH@Z 1006497e f i libucrt:output.obj
 0001:00063a11       ?parse_int_from_format_string@?$output_processor@_WV?$stream_output_adapter@_W@__crt_stdio_output@@V?$format_validation_base@_WV?$stream_output_adapter@_W@__crt_stdio_output@@@2@@__crt_stdio_output@@AAE_NQAH@Z 10064a11 f i libucrt:output.obj
 0001:00063aa7       ?parse_int_from_format_string@?$output_processor@_WV?$stream_output_adapter@_W@__crt_stdio_output@@V?$positional_parameter_base@_WV?$stream_output_adapter@_W@__crt_stdio_output@@@2@@__crt_stdio_output@@AAE_NQAH@Z 10064aa7 f i libucrt:output.obj
 0001:00063b3d       ?parse_int_from_format_string@?$output_processor@_WV?$stream_output_adapter@_W@__crt_stdio_output@@V?$standard_base@_WV?$stream_output_adapter@_W@__crt_stdio_output@@@2@@__crt_stdio_output@@AAE_NQAH@Z 10064b3d f i libucrt:output.obj
 0001:00063bd3       ?parse_int_from_format_string@?$output_processor@_WV?$string_output_adapter@_W@__crt_stdio_output@@V?$format_validation_base@_WV?$string_output_adapter@_W@__crt_stdio_output@@@2@@__crt_stdio_output@@AAE_NQAH@Z 10064bd3 f i libucrt:output.obj
 0001:00063c69       ?parse_int_from_format_string@?$output_processor@_WV?$string_output_adapter@_W@__crt_stdio_output@@V?$positional_parameter_base@_WV?$string_output_adapter@_W@__crt_stdio_output@@@2@@__crt_stdio_output@@AAE_NQAH@Z 10064c69 f i libucrt:output.obj
 0001:00063cff       ?parse_int_from_format_string@?$output_processor@_WV?$string_output_adapter@_W@__crt_stdio_output@@V?$standard_base@_WV?$string_output_adapter@_W@__crt_stdio_output@@@2@@__crt_stdio_output@@AAE_NQAH@Z 10064cff f i libucrt:output.obj
 0001:00063d95       ?process@?$output_processor@DV?$stream_output_adapter@D@__crt_stdio_output@@V?$format_validation_base@DV?$stream_output_adapter@D@__crt_stdio_output@@@2@@__crt_stdio_output@@QAEHXZ 10064d95 f i libucrt:output.obj
 0001:00063f02       ?process@?$output_processor@DV?$stream_output_adapter@D@__crt_stdio_output@@V?$positional_parameter_base@DV?$stream_output_adapter@D@__crt_stdio_output@@@2@@__crt_stdio_output@@QAEHXZ 10064f02 f i libucrt:output.obj
 0001:0006407e       ?process@?$output_processor@DV?$stream_output_adapter@D@__crt_stdio_output@@V?$standard_base@DV?$stream_output_adapter@D@__crt_stdio_output@@@2@@__crt_stdio_output@@QAEHXZ 1006507e f i libucrt:output.obj
 0001:000641d7       ?process@?$output_processor@DV?$string_output_adapter@D@__crt_stdio_output@@V?$format_validation_base@DV?$string_output_adapter@D@__crt_stdio_output@@@2@@__crt_stdio_output@@QAEHXZ 100651d7 f i libucrt:output.obj
 0001:00064344       ?process@?$output_processor@DV?$string_output_adapter@D@__crt_stdio_output@@V?$positional_parameter_base@DV?$string_output_adapter@D@__crt_stdio_output@@@2@@__crt_stdio_output@@QAEHXZ 10065344 f i libucrt:output.obj
 0001:000644c0       ?process@?$output_processor@DV?$string_output_adapter@D@__crt_stdio_output@@V?$standard_base@DV?$string_output_adapter@D@__crt_stdio_output@@@2@@__crt_stdio_output@@QAEHXZ 100654c0 f i libucrt:output.obj
 0001:00064619       ?process@?$output_processor@_WV?$stream_output_adapter@_W@__crt_stdio_output@@V?$format_validation_base@_WV?$stream_output_adapter@_W@__crt_stdio_output@@@2@@__crt_stdio_output@@QAEHXZ 10065619 f i libucrt:output.obj
 0001:0006478b       ?process@?$output_processor@_WV?$stream_output_adapter@_W@__crt_stdio_output@@V?$positional_parameter_base@_WV?$stream_output_adapter@_W@__crt_stdio_output@@@2@@__crt_stdio_output@@QAEHXZ 1006578b f i libucrt:output.obj
 0001:0006490c       ?process@?$output_processor@_WV?$stream_output_adapter@_W@__crt_stdio_output@@V?$standard_base@_WV?$stream_output_adapter@_W@__crt_stdio_output@@@2@@__crt_stdio_output@@QAEHXZ 1006590c f i libucrt:output.obj
 0001:00064a6f       ?process@?$output_processor@_WV?$string_output_adapter@_W@__crt_stdio_output@@V?$format_validation_base@_WV?$string_output_adapter@_W@__crt_stdio_output@@@2@@__crt_stdio_output@@QAEHXZ 10065a6f f i libucrt:output.obj
 0001:00064be1       ?process@?$output_processor@_WV?$string_output_adapter@_W@__crt_stdio_output@@V?$positional_parameter_base@_WV?$string_output_adapter@_W@__crt_stdio_output@@@2@@__crt_stdio_output@@QAEHXZ 10065be1 f i libucrt:output.obj
 0001:00064d62       ?process@?$output_processor@_WV?$string_output_adapter@_W@__crt_stdio_output@@V?$standard_base@_WV?$string_output_adapter@_W@__crt_stdio_output@@@2@@__crt_stdio_output@@QAEHXZ 10065d62 f i libucrt:output.obj
 0001:00064ec5       ?public_stream@__crt_stdio_stream@@QBEPAU_iobuf@@XZ 10065ec5 f i libucrt:output.obj
 0001:00064ec8       ?set_flag@?$output_processor@DV?$stream_output_adapter@D@__crt_stdio_output@@V?$format_validation_base@DV?$stream_output_adapter@D@__crt_stdio_output@@@2@@__crt_stdio_output@@AAEXI@Z 10065ec8 f i libucrt:output.obj
 0001:00064eda       ?set_flag@?$output_processor@DV?$stream_output_adapter@D@__crt_stdio_output@@V?$positional_parameter_base@DV?$stream_output_adapter@D@__crt_stdio_output@@@2@@__crt_stdio_output@@AAEXI@Z 10065eda f i libucrt:output.obj
 0001:00064eec       ?set_flag@?$output_processor@DV?$stream_output_adapter@D@__crt_stdio_output@@V?$standard_base@DV?$stream_output_adapter@D@__crt_stdio_output@@@2@@__crt_stdio_output@@AAEXI@Z 10065eec f i libucrt:output.obj
 0001:00064efe       ?set_flag@?$output_processor@DV?$string_output_adapter@D@__crt_stdio_output@@V?$format_validation_base@DV?$string_output_adapter@D@__crt_stdio_output@@@2@@__crt_stdio_output@@AAEXI@Z 10065efe f i libucrt:output.obj
 0001:00064f10       ?set_flag@?$output_processor@DV?$string_output_adapter@D@__crt_stdio_output@@V?$positional_parameter_base@DV?$string_output_adapter@D@__crt_stdio_output@@@2@@__crt_stdio_output@@AAEXI@Z 10065f10 f i libucrt:output.obj
 0001:00064f22       ?set_flag@?$output_processor@DV?$string_output_adapter@D@__crt_stdio_output@@V?$standard_base@DV?$string_output_adapter@D@__crt_stdio_output@@@2@@__crt_stdio_output@@AAEXI@Z 10065f22 f i libucrt:output.obj
 0001:00064f34       ?set_flag@?$output_processor@_WV?$stream_output_adapter@_W@__crt_stdio_output@@V?$format_validation_base@_WV?$stream_output_adapter@_W@__crt_stdio_output@@@2@@__crt_stdio_output@@AAEXI@Z 10065f34 f i libucrt:output.obj
 0001:00064f46       ?set_flag@?$output_processor@_WV?$stream_output_adapter@_W@__crt_stdio_output@@V?$positional_parameter_base@_WV?$stream_output_adapter@_W@__crt_stdio_output@@@2@@__crt_stdio_output@@AAEXI@Z 10065f46 f i libucrt:output.obj
 0001:00064f58       ?set_flag@?$output_processor@_WV?$stream_output_adapter@_W@__crt_stdio_output@@V?$standard_base@_WV?$stream_output_adapter@_W@__crt_stdio_output@@@2@@__crt_stdio_output@@AAEXI@Z 10065f58 f i libucrt:output.obj
 0001:00064f6a       ?set_flag@?$output_processor@_WV?$string_output_adapter@_W@__crt_stdio_output@@V?$format_validation_base@_WV?$string_output_adapter@_W@__crt_stdio_output@@@2@@__crt_stdio_output@@AAEXI@Z 10065f6a f i libucrt:output.obj
 0001:00064f7c       ?set_flag@?$output_processor@_WV?$string_output_adapter@_W@__crt_stdio_output@@V?$positional_parameter_base@_WV?$string_output_adapter@_W@__crt_stdio_output@@@2@@__crt_stdio_output@@AAEXI@Z 10065f7c f i libucrt:output.obj
 0001:00064f8e       ?set_flag@?$output_processor@_WV?$string_output_adapter@_W@__crt_stdio_output@@V?$standard_base@_WV?$string_output_adapter@_W@__crt_stdio_output@@@2@@__crt_stdio_output@@AAEXI@Z 10065f8e f i libucrt:output.obj
 0001:00064fa0       ?should_format@?$positional_parameter_base@DV?$stream_output_adapter@D@__crt_stdio_output@@@__crt_stdio_output@@IAE_NXZ 10065fa0 f i libucrt:output.obj
 0001:00064fbb       ?should_format@?$positional_parameter_base@DV?$string_output_adapter@D@__crt_stdio_output@@@__crt_stdio_output@@IAE_NXZ 10065fbb f i libucrt:output.obj
 0001:00064fd6       ?should_format@?$positional_parameter_base@_WV?$stream_output_adapter@_W@__crt_stdio_output@@@__crt_stdio_output@@IAE_NXZ 10065fd6 f i libucrt:output.obj
 0001:00064ff1       ?should_format@?$positional_parameter_base@_WV?$string_output_adapter@_W@__crt_stdio_output@@@__crt_stdio_output@@IAE_NXZ 10065ff1 f i libucrt:output.obj
 0001:0006500c       ?should_format@?$standard_base@DV?$stream_output_adapter@D@__crt_stdio_output@@@__crt_stdio_output@@IAE_NXZ 1006600c f i libucrt:output.obj
 0001:0006500f       ?should_format@?$standard_base@DV?$string_output_adapter@D@__crt_stdio_output@@@__crt_stdio_output@@IAE_NXZ 1006600f f i libucrt:output.obj
 0001:00065012       ?should_format@?$standard_base@_WV?$stream_output_adapter@_W@__crt_stdio_output@@@__crt_stdio_output@@IAE_NXZ 10066012 f i libucrt:output.obj
 0001:00065015       ?should_format@?$standard_base@_WV?$string_output_adapter@_W@__crt_stdio_output@@@__crt_stdio_output@@IAE_NXZ 10066015 f i libucrt:output.obj
 0001:00065018       ?should_skip_normal_state_processing@?$positional_parameter_base@DV?$stream_output_adapter@D@__crt_stdio_output@@@__crt_stdio_output@@IAE_NXZ 10066018 f i libucrt:output.obj
 0001:0006504a       ?should_skip_normal_state_processing@?$positional_parameter_base@DV?$string_output_adapter@D@__crt_stdio_output@@@__crt_stdio_output@@IAE_NXZ 1006604a f i libucrt:output.obj
 0001:0006507c       ?should_skip_normal_state_processing@?$positional_parameter_base@_WV?$stream_output_adapter@_W@__crt_stdio_output@@@__crt_stdio_output@@IAE_NXZ 1006607c f i libucrt:output.obj
 0001:000650ae       ?should_skip_normal_state_processing@?$positional_parameter_base@_WV?$string_output_adapter@_W@__crt_stdio_output@@@__crt_stdio_output@@IAE_NXZ 100660ae f i libucrt:output.obj
 0001:000650e0       ?should_skip_normal_state_processing@?$standard_base@DV?$stream_output_adapter@D@__crt_stdio_output@@@__crt_stdio_output@@IAE_NXZ 100660e0 f i libucrt:output.obj
 0001:000650e3       ?should_skip_normal_state_processing@?$standard_base@DV?$string_output_adapter@D@__crt_stdio_output@@@__crt_stdio_output@@IAE_NXZ 100660e3 f i libucrt:output.obj
 0001:000650e6       ?should_skip_normal_state_processing@?$standard_base@_WV?$stream_output_adapter@_W@__crt_stdio_output@@@__crt_stdio_output@@IAE_NXZ 100660e6 f i libucrt:output.obj
 0001:000650e9       ?should_skip_normal_state_processing@?$standard_base@_WV?$string_output_adapter@_W@__crt_stdio_output@@@__crt_stdio_output@@IAE_NXZ 100660e9 f i libucrt:output.obj
 0001:000650ec       ?should_skip_type_state_output@?$positional_parameter_base@DV?$stream_output_adapter@D@__crt_stdio_output@@@__crt_stdio_output@@IBE_NXZ 100660ec f i libucrt:output.obj
 0001:00065108       ?should_skip_type_state_output@?$positional_parameter_base@DV?$string_output_adapter@D@__crt_stdio_output@@@__crt_stdio_output@@IBE_NXZ 10066108 f i libucrt:output.obj
 0001:00065124       ?should_skip_type_state_output@?$positional_parameter_base@_WV?$stream_output_adapter@_W@__crt_stdio_output@@@__crt_stdio_output@@IBE_NXZ 10066124 f i libucrt:output.obj
 0001:00065140       ?should_skip_type_state_output@?$positional_parameter_base@_WV?$string_output_adapter@_W@__crt_stdio_output@@@__crt_stdio_output@@IBE_NXZ 10066140 f i libucrt:output.obj
 0001:0006515c       ?should_skip_type_state_output@?$standard_base@DV?$stream_output_adapter@D@__crt_stdio_output@@@__crt_stdio_output@@IBE_NXZ 1006615c f i libucrt:output.obj
 0001:0006515f       ?should_skip_type_state_output@?$standard_base@DV?$string_output_adapter@D@__crt_stdio_output@@@__crt_stdio_output@@IBE_NXZ 1006615f f i libucrt:output.obj
 0001:00065162       ?should_skip_type_state_output@?$standard_base@_WV?$stream_output_adapter@_W@__crt_stdio_output@@@__crt_stdio_output@@IBE_NXZ 10066162 f i libucrt:output.obj
 0001:00065165       ?should_skip_type_state_output@?$standard_base@_WV?$string_output_adapter@_W@__crt_stdio_output@@@__crt_stdio_output@@IBE_NXZ 10066165 f i libucrt:output.obj
 0001:00065168       ?state_case_dot@?$output_processor@DV?$stream_output_adapter@D@__crt_stdio_output@@V?$format_validation_base@DV?$stream_output_adapter@D@__crt_stdio_output@@@2@@__crt_stdio_output@@AAE_NXZ 10066168 f i libucrt:output.obj
 0001:0006516f       ?state_case_dot@?$output_processor@DV?$stream_output_adapter@D@__crt_stdio_output@@V?$positional_parameter_base@DV?$stream_output_adapter@D@__crt_stdio_output@@@2@@__crt_stdio_output@@AAE_NXZ 1006616f f i libucrt:output.obj
 0001:00065176       ?state_case_dot@?$output_processor@DV?$stream_output_adapter@D@__crt_stdio_output@@V?$standard_base@DV?$stream_output_adapter@D@__crt_stdio_output@@@2@@__crt_stdio_output@@AAE_NXZ 10066176 f i libucrt:output.obj
 0001:0006517d       ?state_case_dot@?$output_processor@DV?$string_output_adapter@D@__crt_stdio_output@@V?$format_validation_base@DV?$string_output_adapter@D@__crt_stdio_output@@@2@@__crt_stdio_output@@AAE_NXZ 1006617d f i libucrt:output.obj
 0001:00065184       ?state_case_dot@?$output_processor@DV?$string_output_adapter@D@__crt_stdio_output@@V?$positional_parameter_base@DV?$string_output_adapter@D@__crt_stdio_output@@@2@@__crt_stdio_output@@AAE_NXZ 10066184 f i libucrt:output.obj
 0001:0006518b       ?state_case_dot@?$output_processor@DV?$string_output_adapter@D@__crt_stdio_output@@V?$standard_base@DV?$string_output_adapter@D@__crt_stdio_output@@@2@@__crt_stdio_output@@AAE_NXZ 1006618b f i libucrt:output.obj
 0001:00065192       ?state_case_dot@?$output_processor@_WV?$stream_output_adapter@_W@__crt_stdio_output@@V?$format_validation_base@_WV?$stream_output_adapter@_W@__crt_stdio_output@@@2@@__crt_stdio_output@@AAE_NXZ 10066192 f i libucrt:output.obj
 0001:00065199       ?state_case_dot@?$output_processor@_WV?$stream_output_adapter@_W@__crt_stdio_output@@V?$positional_parameter_base@_WV?$stream_output_adapter@_W@__crt_stdio_output@@@2@@__crt_stdio_output@@AAE_NXZ 10066199 f i libucrt:output.obj
 0001:000651a0       ?state_case_dot@?$output_processor@_WV?$stream_output_adapter@_W@__crt_stdio_output@@V?$standard_base@_WV?$stream_output_adapter@_W@__crt_stdio_output@@@2@@__crt_stdio_output@@AAE_NXZ 100661a0 f i libucrt:output.obj
 0001:000651a7       ?state_case_dot@?$output_processor@_WV?$string_output_adapter@_W@__crt_stdio_output@@V?$format_validation_base@_WV?$string_output_adapter@_W@__crt_stdio_output@@@2@@__crt_stdio_output@@AAE_NXZ 100661a7 f i libucrt:output.obj
 0001:000651ae       ?state_case_dot@?$output_processor@_WV?$string_output_adapter@_W@__crt_stdio_output@@V?$positional_parameter_base@_WV?$string_output_adapter@_W@__crt_stdio_output@@@2@@__crt_stdio_output@@AAE_NXZ 100661ae f i libucrt:output.obj
 0001:000651b5       ?state_case_dot@?$output_processor@_WV?$string_output_adapter@_W@__crt_stdio_output@@V?$standard_base@_WV?$string_output_adapter@_W@__crt_stdio_output@@@2@@__crt_stdio_output@@AAE_NXZ 100661b5 f i libucrt:output.obj
 0001:000651bc       ?state_case_flag@?$output_processor@DV?$stream_output_adapter@D@__crt_stdio_output@@V?$format_validation_base@DV?$stream_output_adapter@D@__crt_stdio_output@@@2@@__crt_stdio_output@@AAE_NXZ 100661bc f i libucrt:output.obj
 0001:00065208       ?state_case_flag@?$output_processor@DV?$stream_output_adapter@D@__crt_stdio_output@@V?$positional_parameter_base@DV?$stream_output_adapter@D@__crt_stdio_output@@@2@@__crt_stdio_output@@AAE_NXZ 10066208 f i libucrt:output.obj
 0001:00065254       ?state_case_flag@?$output_processor@DV?$stream_output_adapter@D@__crt_stdio_output@@V?$standard_base@DV?$stream_output_adapter@D@__crt_stdio_output@@@2@@__crt_stdio_output@@AAE_NXZ 10066254 f i libucrt:output.obj
 0001:000652a0       ?state_case_flag@?$output_processor@DV?$string_output_adapter@D@__crt_stdio_output@@V?$format_validation_base@DV?$string_output_adapter@D@__crt_stdio_output@@@2@@__crt_stdio_output@@AAE_NXZ 100662a0 f i libucrt:output.obj
 0001:000652ec       ?state_case_flag@?$output_processor@DV?$string_output_adapter@D@__crt_stdio_output@@V?$positional_parameter_base@DV?$string_output_adapter@D@__crt_stdio_output@@@2@@__crt_stdio_output@@AAE_NXZ 100662ec f i libucrt:output.obj
 0001:00065338       ?state_case_flag@?$output_processor@DV?$string_output_adapter@D@__crt_stdio_output@@V?$standard_base@DV?$string_output_adapter@D@__crt_stdio_output@@@2@@__crt_stdio_output@@AAE_NXZ 10066338 f i libucrt:output.obj
 0001:00065384       ?state_case_flag@?$output_processor@_WV?$stream_output_adapter@_W@__crt_stdio_output@@V?$format_validation_base@_WV?$stream_output_adapter@_W@__crt_stdio_output@@@2@@__crt_stdio_output@@AAE_NXZ 10066384 f i libucrt:output.obj
 0001:000653d0       ?state_case_flag@?$output_processor@_WV?$stream_output_adapter@_W@__crt_stdio_output@@V?$positional_parameter_base@_WV?$stream_output_adapter@_W@__crt_stdio_output@@@2@@__crt_stdio_output@@AAE_NXZ 100663d0 f i libucrt:output.obj
 0001:0006541c       ?state_case_flag@?$output_processor@_WV?$stream_output_adapter@_W@__crt_stdio_output@@V?$standard_base@_WV?$stream_output_adapter@_W@__crt_stdio_output@@@2@@__crt_stdio_output@@AAE_NXZ 1006641c f i libucrt:output.obj
 0001:00065468       ?state_case_flag@?$output_processor@_WV?$string_output_adapter@_W@__crt_stdio_output@@V?$format_validation_base@_WV?$string_output_adapter@_W@__crt_stdio_output@@@2@@__crt_stdio_output@@AAE_NXZ 10066468 f i libucrt:output.obj
 0001:000654b4       ?state_case_flag@?$output_processor@_WV?$string_output_adapter@_W@__crt_stdio_output@@V?$positional_parameter_base@_WV?$string_output_adapter@_W@__crt_stdio_output@@@2@@__crt_stdio_output@@AAE_NXZ 100664b4 f i libucrt:output.obj
 0001:00065500       ?state_case_flag@?$output_processor@_WV?$string_output_adapter@_W@__crt_stdio_output@@V?$standard_base@_WV?$string_output_adapter@_W@__crt_stdio_output@@@2@@__crt_stdio_output@@AAE_NXZ 10066500 f i libucrt:output.obj
 0001:0006554c       ?state_case_normal@?$output_processor@DV?$stream_output_adapter@D@__crt_stdio_output@@V?$format_validation_base@DV?$stream_output_adapter@D@__crt_stdio_output@@@2@@__crt_stdio_output@@AAE_NXZ 1006654c f i libucrt:output.obj
 0001:00065572       ?state_case_normal@?$output_processor@DV?$stream_output_adapter@D@__crt_stdio_output@@V?$positional_parameter_base@DV?$stream_output_adapter@D@__crt_stdio_output@@@2@@__crt_stdio_output@@AAE_NXZ 10066572 f i libucrt:output.obj
 0001:000655af       ?state_case_normal@?$output_processor@DV?$stream_output_adapter@D@__crt_stdio_output@@V?$standard_base@DV?$stream_output_adapter@D@__crt_stdio_output@@@2@@__crt_stdio_output@@AAE_NXZ 100665af f i libucrt:output.obj
 0001:000655d5       ?state_case_normal@?$output_processor@DV?$string_output_adapter@D@__crt_stdio_output@@V?$format_validation_base@DV?$string_output_adapter@D@__crt_stdio_output@@@2@@__crt_stdio_output@@AAE_NXZ 100665d5 f i libucrt:output.obj
 0001:000655fb       ?state_case_normal@?$output_processor@DV?$string_output_adapter@D@__crt_stdio_output@@V?$positional_parameter_base@DV?$string_output_adapter@D@__crt_stdio_output@@@2@@__crt_stdio_output@@AAE_NXZ 100665fb f i libucrt:output.obj
 0001:00065638       ?state_case_normal@?$output_processor@DV?$string_output_adapter@D@__crt_stdio_output@@V?$standard_base@DV?$string_output_adapter@D@__crt_stdio_output@@@2@@__crt_stdio_output@@AAE_NXZ 10066638 f i libucrt:output.obj
 0001:0006565e       ?state_case_normal@?$output_processor@_WV?$stream_output_adapter@_W@__crt_stdio_output@@V?$format_validation_base@_WV?$stream_output_adapter@_W@__crt_stdio_output@@@2@@__crt_stdio_output@@AAE_NXZ 1006665e f i libucrt:output.obj
 0001:00065684       ?state_case_normal@?$output_processor@_WV?$stream_output_adapter@_W@__crt_stdio_output@@V?$positional_parameter_base@_WV?$stream_output_adapter@_W@__crt_stdio_output@@@2@@__crt_stdio_output@@AAE_NXZ 10066684 f i libucrt:output.obj
 0001:000656c1       ?state_case_normal@?$output_processor@_WV?$stream_output_adapter@_W@__crt_stdio_output@@V?$standard_base@_WV?$stream_output_adapter@_W@__crt_stdio_output@@@2@@__crt_stdio_output@@AAE_NXZ 100666c1 f i libucrt:output.obj
 0001:000656e7       ?state_case_normal@?$output_processor@_WV?$string_output_adapter@_W@__crt_stdio_output@@V?$format_validation_base@_WV?$string_output_adapter@_W@__crt_stdio_output@@@2@@__crt_stdio_output@@AAE_NXZ 100666e7 f i libucrt:output.obj
 0001:0006570d       ?state_case_normal@?$output_processor@_WV?$string_output_adapter@_W@__crt_stdio_output@@V?$positional_parameter_base@_WV?$string_output_adapter@_W@__crt_stdio_output@@@2@@__crt_stdio_output@@AAE_NXZ 1006670d f i libucrt:output.obj
 0001:0006574a       ?state_case_normal@?$output_processor@_WV?$string_output_adapter@_W@__crt_stdio_output@@V?$standard_base@_WV?$string_output_adapter@_W@__crt_stdio_output@@@2@@__crt_stdio_output@@AAE_NXZ 1006674a f i libucrt:output.obj
 0001:00065770       ?state_case_normal_common@?$output_processor@DV?$stream_output_adapter@D@__crt_stdio_output@@V?$format_validation_base@DV?$stream_output_adapter@D@__crt_stdio_output@@@2@@__crt_stdio_output@@AAE_NXZ 10066770 f i libucrt:output.obj
 0001:000657bb       ?state_case_normal_common@?$output_processor@DV?$stream_output_adapter@D@__crt_stdio_output@@V?$positional_parameter_base@DV?$stream_output_adapter@D@__crt_stdio_output@@@2@@__crt_stdio_output@@AAE_NXZ 100667bb f i libucrt:output.obj
 0001:00065806       ?state_case_normal_common@?$output_processor@DV?$stream_output_adapter@D@__crt_stdio_output@@V?$standard_base@DV?$stream_output_adapter@D@__crt_stdio_output@@@2@@__crt_stdio_output@@AAE_NXZ 10066806 f i libucrt:output.obj
 0001:00065851       ?state_case_normal_common@?$output_processor@DV?$string_output_adapter@D@__crt_stdio_output@@V?$format_validation_base@DV?$string_output_adapter@D@__crt_stdio_output@@@2@@__crt_stdio_output@@AAE_NXZ 10066851 f i libucrt:output.obj
 0001:00065885       ?state_case_normal_common@?$output_processor@DV?$string_output_adapter@D@__crt_stdio_output@@V?$positional_parameter_base@DV?$string_output_adapter@D@__crt_stdio_output@@@2@@__crt_stdio_output@@AAE_NXZ 10066885 f i libucrt:output.obj
 0001:000658b9       ?state_case_normal_common@?$output_processor@DV?$string_output_adapter@D@__crt_stdio_output@@V?$standard_base@DV?$string_output_adapter@D@__crt_stdio_output@@@2@@__crt_stdio_output@@AAE_NXZ 100668b9 f i libucrt:output.obj
 0001:000658ed       ?state_case_normal_common@?$output_processor@_WV?$stream_output_adapter@_W@__crt_stdio_output@@V?$format_validation_base@_WV?$stream_output_adapter@_W@__crt_stdio_output@@@2@@__crt_stdio_output@@AAE_NXZ 100668ed f i libucrt:output.obj
 0001:00065921       ?state_case_normal_common@?$output_processor@_WV?$stream_output_adapter@_W@__crt_stdio_output@@V?$positional_parameter_base@_WV?$stream_output_adapter@_W@__crt_stdio_output@@@2@@__crt_stdio_output@@AAE_NXZ 10066921 f i libucrt:output.obj
 0001:00065955       ?state_case_normal_common@?$output_processor@_WV?$stream_output_adapter@_W@__crt_stdio_output@@V?$standard_base@_WV?$stream_output_adapter@_W@__crt_stdio_output@@@2@@__crt_stdio_output@@AAE_NXZ 10066955 f i libucrt:output.obj
 0001:00065989       ?state_case_normal_common@?$output_processor@_WV?$string_output_adapter@_W@__crt_stdio_output@@V?$format_validation_base@_WV?$string_output_adapter@_W@__crt_stdio_output@@@2@@__crt_stdio_output@@AAE_NXZ 10066989 f i libucrt:output.obj
 0001:000659aa       ?state_case_normal_common@?$output_processor@_WV?$string_output_adapter@_W@__crt_stdio_output@@V?$positional_parameter_base@_WV?$string_output_adapter@_W@__crt_stdio_output@@@2@@__crt_stdio_output@@AAE_NXZ 100669aa f i libucrt:output.obj
 0001:000659cb       ?state_case_normal_common@?$output_processor@_WV?$string_output_adapter@_W@__crt_stdio_output@@V?$standard_base@_WV?$string_output_adapter@_W@__crt_stdio_output@@@2@@__crt_stdio_output@@AAE_NXZ 100669cb f i libucrt:output.obj
 0001:000659ec       ?state_case_normal_tchar@?$output_processor@DV?$stream_output_adapter@D@__crt_stdio_output@@V?$format_validation_base@DV?$stream_output_adapter@D@__crt_stdio_output@@@2@@__crt_stdio_output@@AAE_ND@Z 100669ec f i libucrt:output.obj
 0001:00065a74       ?state_case_normal_tchar@?$output_processor@DV?$stream_output_adapter@D@__crt_stdio_output@@V?$positional_parameter_base@DV?$stream_output_adapter@D@__crt_stdio_output@@@2@@__crt_stdio_output@@AAE_ND@Z 10066a74 f i libucrt:output.obj
 0001:00065afc       ?state_case_normal_tchar@?$output_processor@DV?$stream_output_adapter@D@__crt_stdio_output@@V?$standard_base@DV?$stream_output_adapter@D@__crt_stdio_output@@@2@@__crt_stdio_output@@AAE_ND@Z 10066afc f i libucrt:output.obj
 0001:00065b84       ?state_case_normal_tchar@?$output_processor@DV?$string_output_adapter@D@__crt_stdio_output@@V?$format_validation_base@DV?$string_output_adapter@D@__crt_stdio_output@@@2@@__crt_stdio_output@@AAE_ND@Z 10066b84 f i libucrt:output.obj
 0001:00065c01       ?state_case_normal_tchar@?$output_processor@DV?$string_output_adapter@D@__crt_stdio_output@@V?$positional_parameter_base@DV?$string_output_adapter@D@__crt_stdio_output@@@2@@__crt_stdio_output@@AAE_ND@Z 10066c01 f i libucrt:output.obj
 0001:00065c7e       ?state_case_normal_tchar@?$output_processor@DV?$string_output_adapter@D@__crt_stdio_output@@V?$standard_base@DV?$string_output_adapter@D@__crt_stdio_output@@@2@@__crt_stdio_output@@AAE_ND@Z 10066c7e f i libucrt:output.obj
 0001:00065cfb       ?state_case_normal_tchar@?$output_processor@_WV?$stream_output_adapter@_W@__crt_stdio_output@@V?$format_validation_base@_WV?$stream_output_adapter@_W@__crt_stdio_output@@@2@@__crt_stdio_output@@AAE_N_W@Z 10066cfb f i libucrt:output.obj
 0001:00065d06       ?state_case_normal_tchar@?$output_processor@_WV?$stream_output_adapter@_W@__crt_stdio_output@@V?$positional_parameter_base@_WV?$stream_output_adapter@_W@__crt_stdio_output@@@2@@__crt_stdio_output@@AAE_N_W@Z 10066d06 f i libucrt:output.obj
 0001:00065d11       ?state_case_normal_tchar@?$output_processor@_WV?$stream_output_adapter@_W@__crt_stdio_output@@V?$standard_base@_WV?$stream_output_adapter@_W@__crt_stdio_output@@@2@@__crt_stdio_output@@AAE_N_W@Z 10066d11 f i libucrt:output.obj
 0001:00065d1c       ?state_case_normal_tchar@?$output_processor@_WV?$string_output_adapter@_W@__crt_stdio_output@@V?$format_validation_base@_WV?$string_output_adapter@_W@__crt_stdio_output@@@2@@__crt_stdio_output@@AAE_N_W@Z 10066d1c f i libucrt:output.obj
 0001:00065d27       ?state_case_normal_tchar@?$output_processor@_WV?$string_output_adapter@_W@__crt_stdio_output@@V?$positional_parameter_base@_WV?$string_output_adapter@_W@__crt_stdio_output@@@2@@__crt_stdio_output@@AAE_N_W@Z 10066d27 f i libucrt:output.obj
 0001:00065d32       ?state_case_normal_tchar@?$output_processor@_WV?$string_output_adapter@_W@__crt_stdio_output@@V?$standard_base@_WV?$string_output_adapter@_W@__crt_stdio_output@@@2@@__crt_stdio_output@@AAE_N_W@Z 10066d32 f i libucrt:output.obj
 0001:00065d3d       ?state_case_percent@?$output_processor@DV?$stream_output_adapter@D@__crt_stdio_output@@V?$format_validation_base@DV?$stream_output_adapter@D@__crt_stdio_output@@@2@@__crt_stdio_output@@AAE_NXZ 10066d3d f i libucrt:output.obj
 0001:00065d5b       ?state_case_percent@?$output_processor@DV?$stream_output_adapter@D@__crt_stdio_output@@V?$positional_parameter_base@DV?$stream_output_adapter@D@__crt_stdio_output@@@2@@__crt_stdio_output@@AAE_NXZ 10066d5b f i libucrt:output.obj
 0001:00065d79       ?state_case_percent@?$output_processor@DV?$stream_output_adapter@D@__crt_stdio_output@@V?$standard_base@DV?$stream_output_adapter@D@__crt_stdio_output@@@2@@__crt_stdio_output@@AAE_NXZ 10066d79 f i libucrt:output.obj
 0001:00065d97       ?state_case_percent@?$output_processor@DV?$string_output_adapter@D@__crt_stdio_output@@V?$format_validation_base@DV?$string_output_adapter@D@__crt_stdio_output@@@2@@__crt_stdio_output@@AAE_NXZ 10066d97 f i libucrt:output.obj
 0001:00065db5       ?state_case_percent@?$output_processor@DV?$string_output_adapter@D@__crt_stdio_output@@V?$positional_parameter_base@DV?$string_output_adapter@D@__crt_stdio_output@@@2@@__crt_stdio_output@@AAE_NXZ 10066db5 f i libucrt:output.obj
 0001:00065dd3       ?state_case_percent@?$output_processor@DV?$string_output_adapter@D@__crt_stdio_output@@V?$standard_base@DV?$string_output_adapter@D@__crt_stdio_output@@@2@@__crt_stdio_output@@AAE_NXZ 10066dd3 f i libucrt:output.obj
 0001:00065df1       ?state_case_percent@?$output_processor@_WV?$stream_output_adapter@_W@__crt_stdio_output@@V?$format_validation_base@_WV?$stream_output_adapter@_W@__crt_stdio_output@@@2@@__crt_stdio_output@@AAE_NXZ 10066df1 f i libucrt:output.obj
 0001:00065e0f       ?state_case_percent@?$output_processor@_WV?$stream_output_adapter@_W@__crt_stdio_output@@V?$positional_parameter_base@_WV?$stream_output_adapter@_W@__crt_stdio_output@@@2@@__crt_stdio_output@@AAE_NXZ 10066e0f f i libucrt:output.obj
 0001:00065e2d       ?state_case_percent@?$output_processor@_WV?$stream_output_adapter@_W@__crt_stdio_output@@V?$standard_base@_WV?$stream_output_adapter@_W@__crt_stdio_output@@@2@@__crt_stdio_output@@AAE_NXZ 10066e2d f i libucrt:output.obj
 0001:00065e4b       ?state_case_percent@?$output_processor@_WV?$string_output_adapter@_W@__crt_stdio_output@@V?$format_validation_base@_WV?$string_output_adapter@_W@__crt_stdio_output@@@2@@__crt_stdio_output@@AAE_NXZ 10066e4b f i libucrt:output.obj
 0001:00065e69       ?state_case_percent@?$output_processor@_WV?$string_output_adapter@_W@__crt_stdio_output@@V?$positional_parameter_base@_WV?$string_output_adapter@_W@__crt_stdio_output@@@2@@__crt_stdio_output@@AAE_NXZ 10066e69 f i libucrt:output.obj
 0001:00065e87       ?state_case_percent@?$output_processor@_WV?$string_output_adapter@_W@__crt_stdio_output@@V?$standard_base@_WV?$string_output_adapter@_W@__crt_stdio_output@@@2@@__crt_stdio_output@@AAE_NXZ 10066e87 f i libucrt:output.obj
 0001:00065ea5       ?state_case_precision@?$output_processor@DV?$stream_output_adapter@D@__crt_stdio_output@@V?$format_validation_base@DV?$stream_output_adapter@D@__crt_stdio_output@@@2@@__crt_stdio_output@@AAE_NXZ 10066ea5 f i libucrt:output.obj
 0001:00065ed4       ?state_case_precision@?$output_processor@DV?$stream_output_adapter@D@__crt_stdio_output@@V?$positional_parameter_base@DV?$stream_output_adapter@D@__crt_stdio_output@@@2@@__crt_stdio_output@@AAE_NXZ 10066ed4 f i libucrt:output.obj
 0001:00065f1c       ?state_case_precision@?$output_processor@DV?$stream_output_adapter@D@__crt_stdio_output@@V?$standard_base@DV?$stream_output_adapter@D@__crt_stdio_output@@@2@@__crt_stdio_output@@AAE_NXZ 10066f1c f i libucrt:output.obj
 0001:00065f4b       ?state_case_precision@?$output_processor@DV?$string_output_adapter@D@__crt_stdio_output@@V?$format_validation_base@DV?$string_output_adapter@D@__crt_stdio_output@@@2@@__crt_stdio_output@@AAE_NXZ 10066f4b f i libucrt:output.obj
 0001:00065f7a       ?state_case_precision@?$output_processor@DV?$string_output_adapter@D@__crt_stdio_output@@V?$positional_parameter_base@DV?$string_output_adapter@D@__crt_stdio_output@@@2@@__crt_stdio_output@@AAE_NXZ 10066f7a f i libucrt:output.obj
 0001:00065fc2       ?state_case_precision@?$output_processor@DV?$string_output_adapter@D@__crt_stdio_output@@V?$standard_base@DV?$string_output_adapter@D@__crt_stdio_output@@@2@@__crt_stdio_output@@AAE_NXZ 10066fc2 f i libucrt:output.obj
 0001:00065ff1       ?state_case_precision@?$output_processor@_WV?$stream_output_adapter@_W@__crt_stdio_output@@V?$format_validation_base@_WV?$stream_output_adapter@_W@__crt_stdio_output@@@2@@__crt_stdio_output@@AAE_NXZ 10066ff1 f i libucrt:output.obj
 0001:00066021       ?state_case_precision@?$output_processor@_WV?$stream_output_adapter@_W@__crt_stdio_output@@V?$positional_parameter_base@_WV?$stream_output_adapter@_W@__crt_stdio_output@@@2@@__crt_stdio_output@@AAE_NXZ 10067021 f i libucrt:output.obj
 0001:0006606a       ?state_case_precision@?$output_processor@_WV?$stream_output_adapter@_W@__crt_stdio_output@@V?$standard_base@_WV?$stream_output_adapter@_W@__crt_stdio_output@@@2@@__crt_stdio_output@@AAE_NXZ 1006706a f i libucrt:output.obj
 0001:0006609a       ?state_case_precision@?$output_processor@_WV?$string_output_adapter@_W@__crt_stdio_output@@V?$format_validation_base@_WV?$string_output_adapter@_W@__crt_stdio_output@@@2@@__crt_stdio_output@@AAE_NXZ 1006709a f i libucrt:output.obj
 0001:000660ca       ?state_case_precision@?$output_processor@_WV?$string_output_adapter@_W@__crt_stdio_output@@V?$positional_parameter_base@_WV?$string_output_adapter@_W@__crt_stdio_output@@@2@@__crt_stdio_output@@AAE_NXZ 100670ca f i libucrt:output.obj
 0001:00066113       ?state_case_precision@?$output_processor@_WV?$string_output_adapter@_W@__crt_stdio_output@@V?$standard_base@_WV?$string_output_adapter@_W@__crt_stdio_output@@@2@@__crt_stdio_output@@AAE_NXZ 10067113 f i libucrt:output.obj
 0001:00066143       ?state_case_size@?$output_processor@DV?$stream_output_adapter@D@__crt_stdio_output@@V?$format_validation_base@DV?$stream_output_adapter@D@__crt_stdio_output@@@2@@__crt_stdio_output@@AAE_NXZ 10067143 f i libucrt:output.obj
 0001:000662e4       ?state_case_size@?$output_processor@DV?$stream_output_adapter@D@__crt_stdio_output@@V?$positional_parameter_base@DV?$stream_output_adapter@D@__crt_stdio_output@@@2@@__crt_stdio_output@@AAE_NXZ 100672e4 f i libucrt:output.obj
 0001:00066485       ?state_case_size@?$output_processor@DV?$stream_output_adapter@D@__crt_stdio_output@@V?$standard_base@DV?$stream_output_adapter@D@__crt_stdio_output@@@2@@__crt_stdio_output@@AAE_NXZ 10067485 f i libucrt:output.obj
 0001:00066626       ?state_case_size@?$output_processor@DV?$string_output_adapter@D@__crt_stdio_output@@V?$format_validation_base@DV?$string_output_adapter@D@__crt_stdio_output@@@2@@__crt_stdio_output@@AAE_NXZ 10067626 f i libucrt:output.obj
 0001:000667c7       ?state_case_size@?$output_processor@DV?$string_output_adapter@D@__crt_stdio_output@@V?$positional_parameter_base@DV?$string_output_adapter@D@__crt_stdio_output@@@2@@__crt_stdio_output@@AAE_NXZ 100677c7 f i libucrt:output.obj
 0001:00066968       ?state_case_size@?$output_processor@DV?$string_output_adapter@D@__crt_stdio_output@@V?$standard_base@DV?$string_output_adapter@D@__crt_stdio_output@@@2@@__crt_stdio_output@@AAE_NXZ 10067968 f i libucrt:output.obj
 0001:00066b09       ?state_case_size@?$output_processor@_WV?$stream_output_adapter@_W@__crt_stdio_output@@V?$format_validation_base@_WV?$stream_output_adapter@_W@__crt_stdio_output@@@2@@__crt_stdio_output@@AAE_NXZ 10067b09 f i libucrt:output.obj
 0001:00066cdf       ?state_case_size@?$output_processor@_WV?$stream_output_adapter@_W@__crt_stdio_output@@V?$positional_parameter_base@_WV?$stream_output_adapter@_W@__crt_stdio_output@@@2@@__crt_stdio_output@@AAE_NXZ 10067cdf f i libucrt:output.obj
 0001:00066eb5       ?state_case_size@?$output_processor@_WV?$stream_output_adapter@_W@__crt_stdio_output@@V?$standard_base@_WV?$stream_output_adapter@_W@__crt_stdio_output@@@2@@__crt_stdio_output@@AAE_NXZ 10067eb5 f i libucrt:output.obj
 0001:0006708b       ?state_case_size@?$output_processor@_WV?$string_output_adapter@_W@__crt_stdio_output@@V?$format_validation_base@_WV?$string_output_adapter@_W@__crt_stdio_output@@@2@@__crt_stdio_output@@AAE_NXZ 1006808b f i libucrt:output.obj
 0001:00067261       ?state_case_size@?$output_processor@_WV?$string_output_adapter@_W@__crt_stdio_output@@V?$positional_parameter_base@_WV?$string_output_adapter@_W@__crt_stdio_output@@@2@@__crt_stdio_output@@AAE_NXZ 10068261 f i libucrt:output.obj
 0001:00067437       ?state_case_size@?$output_processor@_WV?$string_output_adapter@_W@__crt_stdio_output@@V?$standard_base@_WV?$string_output_adapter@_W@__crt_stdio_output@@@2@@__crt_stdio_output@@AAE_NXZ 10068437 f i libucrt:output.obj
 0001:0006760d       ?state_case_type@?$output_processor@DV?$stream_output_adapter@D@__crt_stdio_output@@V?$format_validation_base@DV?$stream_output_adapter@D@__crt_stdio_output@@@2@@__crt_stdio_output@@AAE_NXZ 1006860d f i libucrt:output.obj
 0001:000678ce       ?state_case_type@?$output_processor@DV?$stream_output_adapter@D@__crt_stdio_output@@V?$positional_parameter_base@DV?$stream_output_adapter@D@__crt_stdio_output@@@2@@__crt_stdio_output@@AAE_NXZ 100688ce f i libucrt:output.obj
 0001:00067ba1       ?state_case_type@?$output_processor@DV?$stream_output_adapter@D@__crt_stdio_output@@V?$standard_base@DV?$stream_output_adapter@D@__crt_stdio_output@@@2@@__crt_stdio_output@@AAE_NXZ 10068ba1 f i libucrt:output.obj
 0001:00067e62       ?state_case_type@?$output_processor@DV?$string_output_adapter@D@__crt_stdio_output@@V?$format_validation_base@DV?$string_output_adapter@D@__crt_stdio_output@@@2@@__crt_stdio_output@@AAE_NXZ 10068e62 f i libucrt:output.obj
 0001:00068123       ?state_case_type@?$output_processor@DV?$string_output_adapter@D@__crt_stdio_output@@V?$positional_parameter_base@DV?$string_output_adapter@D@__crt_stdio_output@@@2@@__crt_stdio_output@@AAE_NXZ 10069123 f i libucrt:output.obj
 0001:000683f6       ?state_case_type@?$output_processor@DV?$string_output_adapter@D@__crt_stdio_output@@V?$standard_base@DV?$string_output_adapter@D@__crt_stdio_output@@@2@@__crt_stdio_output@@AAE_NXZ 100693f6 f i libucrt:output.obj
 0001:000686b7       ?state_case_type@?$output_processor@_WV?$stream_output_adapter@_W@__crt_stdio_output@@V?$format_validation_base@_WV?$stream_output_adapter@_W@__crt_stdio_output@@@2@@__crt_stdio_output@@AAE_NXZ 100696b7 f i libucrt:output.obj
 0001:000689b7       ?state_case_type@?$output_processor@_WV?$stream_output_adapter@_W@__crt_stdio_output@@V?$positional_parameter_base@_WV?$stream_output_adapter@_W@__crt_stdio_output@@@2@@__crt_stdio_output@@AAE_NXZ 100699b7 f i libucrt:output.obj
 0001:00068cca       ?state_case_type@?$output_processor@_WV?$stream_output_adapter@_W@__crt_stdio_output@@V?$standard_base@_WV?$stream_output_adapter@_W@__crt_stdio_output@@@2@@__crt_stdio_output@@AAE_NXZ 10069cca f i libucrt:output.obj
 0001:00068fca       ?state_case_type@?$output_processor@_WV?$string_output_adapter@_W@__crt_stdio_output@@V?$format_validation_base@_WV?$string_output_adapter@_W@__crt_stdio_output@@@2@@__crt_stdio_output@@AAE_NXZ 10069fca f i libucrt:output.obj
 0001:000692ca       ?state_case_type@?$output_processor@_WV?$string_output_adapter@_W@__crt_stdio_output@@V?$positional_parameter_base@_WV?$string_output_adapter@_W@__crt_stdio_output@@@2@@__crt_stdio_output@@AAE_NXZ 1006a2ca f i libucrt:output.obj
 0001:000695dd       ?state_case_type@?$output_processor@_WV?$string_output_adapter@_W@__crt_stdio_output@@V?$standard_base@_WV?$string_output_adapter@_W@__crt_stdio_output@@@2@@__crt_stdio_output@@AAE_NXZ 1006a5dd f i libucrt:output.obj
 0001:000698dd       ?state_case_width@?$output_processor@DV?$stream_output_adapter@D@__crt_stdio_output@@V?$format_validation_base@DV?$stream_output_adapter@D@__crt_stdio_output@@@2@@__crt_stdio_output@@AAE_NXZ 1006a8dd f i libucrt:output.obj
 0001:00069912       ?state_case_width@?$output_processor@DV?$stream_output_adapter@D@__crt_stdio_output@@V?$positional_parameter_base@DV?$stream_output_adapter@D@__crt_stdio_output@@@2@@__crt_stdio_output@@AAE_NXZ 1006a912 f i libucrt:output.obj
 0001:00069962       ?state_case_width@?$output_processor@DV?$stream_output_adapter@D@__crt_stdio_output@@V?$standard_base@DV?$stream_output_adapter@D@__crt_stdio_output@@@2@@__crt_stdio_output@@AAE_NXZ 1006a962 f i libucrt:output.obj
 0001:00069997       ?state_case_width@?$output_processor@DV?$string_output_adapter@D@__crt_stdio_output@@V?$format_validation_base@DV?$string_output_adapter@D@__crt_stdio_output@@@2@@__crt_stdio_output@@AAE_NXZ 1006a997 f i libucrt:output.obj
 0001:000699cc       ?state_case_width@?$output_processor@DV?$string_output_adapter@D@__crt_stdio_output@@V?$positional_parameter_base@DV?$string_output_adapter@D@__crt_stdio_output@@@2@@__crt_stdio_output@@AAE_NXZ 1006a9cc f i libucrt:output.obj
 0001:00069a1c       ?state_case_width@?$output_processor@DV?$string_output_adapter@D@__crt_stdio_output@@V?$standard_base@DV?$string_output_adapter@D@__crt_stdio_output@@@2@@__crt_stdio_output@@AAE_NXZ 1006aa1c f i libucrt:output.obj
 0001:00069a51       ?state_case_width@?$output_processor@_WV?$stream_output_adapter@_W@__crt_stdio_output@@V?$format_validation_base@_WV?$stream_output_adapter@_W@__crt_stdio_output@@@2@@__crt_stdio_output@@AAE_NXZ 1006aa51 f i libucrt:output.obj
 0001:00069a88       ?state_case_width@?$output_processor@_WV?$stream_output_adapter@_W@__crt_stdio_output@@V?$positional_parameter_base@_WV?$stream_output_adapter@_W@__crt_stdio_output@@@2@@__crt_stdio_output@@AAE_NXZ 1006aa88 f i libucrt:output.obj
 0001:00069ad9       ?state_case_width@?$output_processor@_WV?$stream_output_adapter@_W@__crt_stdio_output@@V?$standard_base@_WV?$stream_output_adapter@_W@__crt_stdio_output@@@2@@__crt_stdio_output@@AAE_NXZ 1006aad9 f i libucrt:output.obj
 0001:00069b10       ?state_case_width@?$output_processor@_WV?$string_output_adapter@_W@__crt_stdio_output@@V?$format_validation_base@_WV?$string_output_adapter@_W@__crt_stdio_output@@@2@@__crt_stdio_output@@AAE_NXZ 1006ab10 f i libucrt:output.obj
 0001:00069b47       ?state_case_width@?$output_processor@_WV?$string_output_adapter@_W@__crt_stdio_output@@V?$positional_parameter_base@_WV?$string_output_adapter@_W@__crt_stdio_output@@@2@@__crt_stdio_output@@AAE_NXZ 1006ab47 f i libucrt:output.obj
 0001:00069b98       ?state_case_width@?$output_processor@_WV?$string_output_adapter@_W@__crt_stdio_output@@V?$standard_base@_WV?$string_output_adapter@_W@__crt_stdio_output@@@2@@__crt_stdio_output@@AAE_NXZ 1006ab98 f i libucrt:output.obj
 0001:00069bcf       ?state_count@?$format_validation_base@DV?$stream_output_adapter@D@__crt_stdio_output@@@__crt_stdio_output@@KAIXZ 1006abcf f i libucrt:output.obj
 0001:00069bd3       ?state_count@?$format_validation_base@DV?$string_output_adapter@D@__crt_stdio_output@@@__crt_stdio_output@@KAIXZ 1006abd3 f i libucrt:output.obj
 0001:00069bd7       ?state_count@?$format_validation_base@_WV?$stream_output_adapter@_W@__crt_stdio_output@@@__crt_stdio_output@@KAIXZ 1006abd7 f i libucrt:output.obj
 0001:00069bdb       ?state_count@?$format_validation_base@_WV?$string_output_adapter@_W@__crt_stdio_output@@@__crt_stdio_output@@KAIXZ 1006abdb f i libucrt:output.obj
 0001:00069bdf       ?state_count@?$standard_base@DV?$stream_output_adapter@D@__crt_stdio_output@@@__crt_stdio_output@@KAIXZ 1006abdf f i libucrt:output.obj
 0001:00069be3       ?state_count@?$standard_base@DV?$string_output_adapter@D@__crt_stdio_output@@@__crt_stdio_output@@KAIXZ 1006abe3 f i libucrt:output.obj
 0001:00069be7       ?state_count@?$standard_base@_WV?$stream_output_adapter@_W@__crt_stdio_output@@@__crt_stdio_output@@KAIXZ 1006abe7 f i libucrt:output.obj
 0001:00069beb       ?state_count@?$standard_base@_WV?$string_output_adapter@_W@__crt_stdio_output@@@__crt_stdio_output@@KAIXZ 1006abeb f i libucrt:output.obj
 0001:00069bef       ?state_transition_table@?$format_validation_base@DV?$stream_output_adapter@D@__crt_stdio_output@@@__crt_stdio_output@@KAPBEXZ 1006abef f i libucrt:output.obj
 0001:00069bf5       ?state_transition_table@?$format_validation_base@DV?$string_output_adapter@D@__crt_stdio_output@@@__crt_stdio_output@@KAPBEXZ 1006abf5 f i libucrt:output.obj
 0001:00069bfb       ?state_transition_table@?$format_validation_base@_WV?$stream_output_adapter@_W@__crt_stdio_output@@@__crt_stdio_output@@KAPBEXZ 1006abfb f i libucrt:output.obj
 0001:00069c01       ?state_transition_table@?$format_validation_base@_WV?$string_output_adapter@_W@__crt_stdio_output@@@__crt_stdio_output@@KAPBEXZ 1006ac01 f i libucrt:output.obj
 0001:00069c07       ?state_transition_table@?$standard_base@DV?$stream_output_adapter@D@__crt_stdio_output@@@__crt_stdio_output@@KAPBEXZ 1006ac07 f i libucrt:output.obj
 0001:00069c0d       ?state_transition_table@?$standard_base@DV?$string_output_adapter@D@__crt_stdio_output@@@__crt_stdio_output@@KAPBEXZ 1006ac0d f i libucrt:output.obj
 0001:00069c13       ?state_transition_table@?$standard_base@_WV?$stream_output_adapter@_W@__crt_stdio_output@@@__crt_stdio_output@@KAPBEXZ 1006ac13 f i libucrt:output.obj
 0001:00069c19       ?state_transition_table@?$standard_base@_WV?$string_output_adapter@_W@__crt_stdio_output@@@__crt_stdio_output@@KAPBEXZ 1006ac19 f i libucrt:output.obj
 0001:00069c1f       ?tchar_string@?$common_data@D@__crt_stdio_output@@IAEAAPADD@Z 1006ac1f f i libucrt:output.obj
 0001:00069c25       ?tchar_string@?$common_data@D@__crt_stdio_output@@IAEAAPADXZ 1006ac25 f i libucrt:output.obj
 0001:00069c29       ?tchar_string@?$common_data@_W@__crt_stdio_output@@IAEAAPA_WXZ 1006ac29 f i libucrt:output.obj
 0001:00069c2d       ?tchar_string@?$common_data@_W@__crt_stdio_output@@IAEAAPA_W_W@Z 1006ac2d f i libucrt:output.obj
 0001:00069c33       ?to_integer_size@__crt_stdio_output@@YAIW4length_modifier@1@@Z 1006ac33 f i libucrt:output.obj
 0001:00069c9c       ?type_case_X@?$output_processor@DV?$stream_output_adapter@D@__crt_stdio_output@@V?$format_validation_base@DV?$stream_output_adapter@D@__crt_stdio_output@@@2@@__crt_stdio_output@@AAE_NXZ 1006ac9c f i libucrt:output.obj
 0001:00069ca8       ?type_case_X@?$output_processor@DV?$stream_output_adapter@D@__crt_stdio_output@@V?$positional_parameter_base@DV?$stream_output_adapter@D@__crt_stdio_output@@@2@@__crt_stdio_output@@AAE_NXZ 1006aca8 f i libucrt:output.obj
 0001:00069cb4       ?type_case_X@?$output_processor@DV?$stream_output_adapter@D@__crt_stdio_output@@V?$standard_base@DV?$stream_output_adapter@D@__crt_stdio_output@@@2@@__crt_stdio_output@@AAE_NXZ 1006acb4 f i libucrt:output.obj
 0001:00069cc0       ?type_case_X@?$output_processor@DV?$string_output_adapter@D@__crt_stdio_output@@V?$format_validation_base@DV?$string_output_adapter@D@__crt_stdio_output@@@2@@__crt_stdio_output@@AAE_NXZ 1006acc0 f i libucrt:output.obj
 0001:00069ccc       ?type_case_X@?$output_processor@DV?$string_output_adapter@D@__crt_stdio_output@@V?$positional_parameter_base@DV?$string_output_adapter@D@__crt_stdio_output@@@2@@__crt_stdio_output@@AAE_NXZ 1006accc f i libucrt:output.obj
 0001:00069cd8       ?type_case_X@?$output_processor@DV?$string_output_adapter@D@__crt_stdio_output@@V?$standard_base@DV?$string_output_adapter@D@__crt_stdio_output@@@2@@__crt_stdio_output@@AAE_NXZ 1006acd8 f i libucrt:output.obj
 0001:00069ce4       ?type_case_X@?$output_processor@_WV?$stream_output_adapter@_W@__crt_stdio_output@@V?$format_validation_base@_WV?$stream_output_adapter@_W@__crt_stdio_output@@@2@@__crt_stdio_output@@AAE_NXZ 1006ace4 f i libucrt:output.obj
 0001:00069cf0       ?type_case_X@?$output_processor@_WV?$stream_output_adapter@_W@__crt_stdio_output@@V?$positional_parameter_base@_WV?$stream_output_adapter@_W@__crt_stdio_output@@@2@@__crt_stdio_output@@AAE_NXZ 1006acf0 f i libucrt:output.obj
 0001:00069cfc       ?type_case_X@?$output_processor@_WV?$stream_output_adapter@_W@__crt_stdio_output@@V?$standard_base@_WV?$stream_output_adapter@_W@__crt_stdio_output@@@2@@__crt_stdio_output@@AAE_NXZ 1006acfc f i libucrt:output.obj
 0001:00069d08       ?type_case_X@?$output_processor@_WV?$string_output_adapter@_W@__crt_stdio_output@@V?$format_validation_base@_WV?$string_output_adapter@_W@__crt_stdio_output@@@2@@__crt_stdio_output@@AAE_NXZ 1006ad08 f i libucrt:output.obj
 0001:00069d14       ?type_case_X@?$output_processor@_WV?$string_output_adapter@_W@__crt_stdio_output@@V?$positional_parameter_base@_WV?$string_output_adapter@_W@__crt_stdio_output@@@2@@__crt_stdio_output@@AAE_NXZ 1006ad14 f i libucrt:output.obj
 0001:00069d20       ?type_case_X@?$output_processor@_WV?$string_output_adapter@_W@__crt_stdio_output@@V?$standard_base@_WV?$string_output_adapter@_W@__crt_stdio_output@@@2@@__crt_stdio_output@@AAE_NXZ 1006ad20 f i libucrt:output.obj
 0001:00069d2c       ?type_case_Z@?$output_processor@DV?$stream_output_adapter@D@__crt_stdio_output@@V?$format_validation_base@DV?$stream_output_adapter@D@__crt_stdio_output@@@2@@__crt_stdio_output@@AAE_NXZ 1006ad2c f i libucrt:output.obj
 0001:00069d9f       ?type_case_Z@?$output_processor@DV?$stream_output_adapter@D@__crt_stdio_output@@V?$positional_parameter_base@DV?$stream_output_adapter@D@__crt_stdio_output@@@2@@__crt_stdio_output@@AAE_NXZ 1006ad9f f i libucrt:output.obj
 0001:00069eaf       ?type_case_Z@?$output_processor@DV?$stream_output_adapter@D@__crt_stdio_output@@V?$standard_base@DV?$stream_output_adapter@D@__crt_stdio_output@@@2@@__crt_stdio_output@@AAE_NXZ 1006aeaf f i libucrt:output.obj
 0001:00069f22       ?type_case_Z@?$output_processor@DV?$string_output_adapter@D@__crt_stdio_output@@V?$format_validation_base@DV?$string_output_adapter@D@__crt_stdio_output@@@2@@__crt_stdio_output@@AAE_NXZ 1006af22 f i libucrt:output.obj
 0001:00069f95       ?type_case_Z@?$output_processor@DV?$string_output_adapter@D@__crt_stdio_output@@V?$positional_parameter_base@DV?$string_output_adapter@D@__crt_stdio_output@@@2@@__crt_stdio_output@@AAE_NXZ 1006af95 f i libucrt:output.obj
 0001:0006a0a5       ?type_case_Z@?$output_processor@DV?$string_output_adapter@D@__crt_stdio_output@@V?$standard_base@DV?$string_output_adapter@D@__crt_stdio_output@@@2@@__crt_stdio_output@@AAE_NXZ 1006b0a5 f i libucrt:output.obj
 0001:0006a118       ?type_case_Z@?$output_processor@_WV?$stream_output_adapter@_W@__crt_stdio_output@@V?$format_validation_base@_WV?$stream_output_adapter@_W@__crt_stdio_output@@@2@@__crt_stdio_output@@AAE_NXZ 1006b118 f i libucrt:output.obj
 0001:0006a18b       ?type_case_Z@?$output_processor@_WV?$stream_output_adapter@_W@__crt_stdio_output@@V?$positional_parameter_base@_WV?$stream_output_adapter@_W@__crt_stdio_output@@@2@@__crt_stdio_output@@AAE_NXZ 1006b18b f i libucrt:output.obj
 0001:0006a29b       ?type_case_Z@?$output_processor@_WV?$stream_output_adapter@_W@__crt_stdio_output@@V?$standard_base@_WV?$stream_output_adapter@_W@__crt_stdio_output@@@2@@__crt_stdio_output@@AAE_NXZ 1006b29b f i libucrt:output.obj
 0001:0006a30e       ?type_case_Z@?$output_processor@_WV?$string_output_adapter@_W@__crt_stdio_output@@V?$format_validation_base@_WV?$string_output_adapter@_W@__crt_stdio_output@@@2@@__crt_stdio_output@@AAE_NXZ 1006b30e f i libucrt:output.obj
 0001:0006a381       ?type_case_Z@?$output_processor@_WV?$string_output_adapter@_W@__crt_stdio_output@@V?$positional_parameter_base@_WV?$string_output_adapter@_W@__crt_stdio_output@@@2@@__crt_stdio_output@@AAE_NXZ 1006b381 f i libucrt:output.obj
 0001:0006a491       ?type_case_Z@?$output_processor@_WV?$string_output_adapter@_W@__crt_stdio_output@@V?$standard_base@_WV?$string_output_adapter@_W@__crt_stdio_output@@@2@@__crt_stdio_output@@AAE_NXZ 1006b491 f i libucrt:output.obj
 0001:0006a504       ?type_case_a@?$output_processor@DV?$stream_output_adapter@D@__crt_stdio_output@@V?$format_validation_base@DV?$stream_output_adapter@D@__crt_stdio_output@@@2@@__crt_stdio_output@@AAE_NXZ 1006b504 f i libucrt:output.obj
 0001:0006a6b3       ?type_case_a@?$output_processor@DV?$stream_output_adapter@D@__crt_stdio_output@@V?$positional_parameter_base@DV?$stream_output_adapter@D@__crt_stdio_output@@@2@@__crt_stdio_output@@AAE_NXZ 1006b6b3 f i libucrt:output.obj
 0001:0006a88f       ?type_case_a@?$output_processor@DV?$stream_output_adapter@D@__crt_stdio_output@@V?$standard_base@DV?$stream_output_adapter@D@__crt_stdio_output@@@2@@__crt_stdio_output@@AAE_NXZ 1006b88f f i libucrt:output.obj
 0001:0006aa3e       ?type_case_a@?$output_processor@DV?$string_output_adapter@D@__crt_stdio_output@@V?$format_validation_base@DV?$string_output_adapter@D@__crt_stdio_output@@@2@@__crt_stdio_output@@AAE_NXZ 1006ba3e f i libucrt:output.obj
 0001:0006abed       ?type_case_a@?$output_processor@DV?$string_output_adapter@D@__crt_stdio_output@@V?$positional_parameter_base@DV?$string_output_adapter@D@__crt_stdio_output@@@2@@__crt_stdio_output@@AAE_NXZ 1006bbed f i libucrt:output.obj
 0001:0006adc9       ?type_case_a@?$output_processor@DV?$string_output_adapter@D@__crt_stdio_output@@V?$standard_base@DV?$string_output_adapter@D@__crt_stdio_output@@@2@@__crt_stdio_output@@AAE_NXZ 1006bdc9 f i libucrt:output.obj
 0001:0006af78       ?type_case_a@?$output_processor@_WV?$stream_output_adapter@_W@__crt_stdio_output@@V?$format_validation_base@_WV?$stream_output_adapter@_W@__crt_stdio_output@@@2@@__crt_stdio_output@@AAE_NXZ 1006bf78 f i libucrt:output.obj
 0001:0006b142       ?type_case_a@?$output_processor@_WV?$stream_output_adapter@_W@__crt_stdio_output@@V?$positional_parameter_base@_WV?$stream_output_adapter@_W@__crt_stdio_output@@@2@@__crt_stdio_output@@AAE_NXZ 1006c142 f i libucrt:output.obj
 0001:0006b339       ?type_case_a@?$output_processor@_WV?$stream_output_adapter@_W@__crt_stdio_output@@V?$standard_base@_WV?$stream_output_adapter@_W@__crt_stdio_output@@@2@@__crt_stdio_output@@AAE_NXZ 1006c339 f i libucrt:output.obj
 0001:0006b503       ?type_case_a@?$output_processor@_WV?$string_output_adapter@_W@__crt_stdio_output@@V?$format_validation_base@_WV?$string_output_adapter@_W@__crt_stdio_output@@@2@@__crt_stdio_output@@AAE_NXZ 1006c503 f i libucrt:output.obj
 0001:0006b6cd       ?type_case_a@?$output_processor@_WV?$string_output_adapter@_W@__crt_stdio_output@@V?$positional_parameter_base@_WV?$string_output_adapter@_W@__crt_stdio_output@@@2@@__crt_stdio_output@@AAE_NXZ 1006c6cd f i libucrt:output.obj
 0001:0006b8c4       ?type_case_a@?$output_processor@_WV?$string_output_adapter@_W@__crt_stdio_output@@V?$standard_base@_WV?$string_output_adapter@_W@__crt_stdio_output@@@2@@__crt_stdio_output@@AAE_NXZ 1006c8c4 f i libucrt:output.obj
 0001:0006ba8e       ?type_case_c@?$output_processor@DV?$stream_output_adapter@D@__crt_stdio_output@@V?$format_validation_base@DV?$stream_output_adapter@D@__crt_stdio_output@@@2@@__crt_stdio_output@@AAE_NXZ 1006ca8e f i libucrt:output.obj
 0001:0006ba98       ?type_case_c@?$output_processor@DV?$stream_output_adapter@D@__crt_stdio_output@@V?$positional_parameter_base@DV?$stream_output_adapter@D@__crt_stdio_output@@@2@@__crt_stdio_output@@AAE_NXZ 1006ca98 f i libucrt:output.obj
 0001:0006baa2       ?type_case_c@?$output_processor@DV?$stream_output_adapter@D@__crt_stdio_output@@V?$standard_base@DV?$stream_output_adapter@D@__crt_stdio_output@@@2@@__crt_stdio_output@@AAE_NXZ 1006caa2 f i libucrt:output.obj
 0001:0006baac       ?type_case_c@?$output_processor@DV?$string_output_adapter@D@__crt_stdio_output@@V?$format_validation_base@DV?$string_output_adapter@D@__crt_stdio_output@@@2@@__crt_stdio_output@@AAE_NXZ 1006caac f i libucrt:output.obj
 0001:0006bab6       ?type_case_c@?$output_processor@DV?$string_output_adapter@D@__crt_stdio_output@@V?$positional_parameter_base@DV?$string_output_adapter@D@__crt_stdio_output@@@2@@__crt_stdio_output@@AAE_NXZ 1006cab6 f i libucrt:output.obj
 0001:0006bac0       ?type_case_c@?$output_processor@DV?$string_output_adapter@D@__crt_stdio_output@@V?$standard_base@DV?$string_output_adapter@D@__crt_stdio_output@@@2@@__crt_stdio_output@@AAE_NXZ 1006cac0 f i libucrt:output.obj
 0001:0006baca       ?type_case_c@?$output_processor@_WV?$stream_output_adapter@_W@__crt_stdio_output@@V?$format_validation_base@_WV?$stream_output_adapter@_W@__crt_stdio_output@@@2@@__crt_stdio_output@@AAE_NXZ 1006caca f i libucrt:output.obj
 0001:0006bad4       ?type_case_c@?$output_processor@_WV?$stream_output_adapter@_W@__crt_stdio_output@@V?$positional_parameter_base@_WV?$stream_output_adapter@_W@__crt_stdio_output@@@2@@__crt_stdio_output@@AAE_NXZ 1006cad4 f i libucrt:output.obj
 0001:0006bade       ?type_case_c@?$output_processor@_WV?$stream_output_adapter@_W@__crt_stdio_output@@V?$standard_base@_WV?$stream_output_adapter@_W@__crt_stdio_output@@@2@@__crt_stdio_output@@AAE_NXZ 1006cade f i libucrt:output.obj
 0001:0006bae8       ?type_case_c@?$output_processor@_WV?$string_output_adapter@_W@__crt_stdio_output@@V?$format_validation_base@_WV?$string_output_adapter@_W@__crt_stdio_output@@@2@@__crt_stdio_output@@AAE_NXZ 1006cae8 f i libucrt:output.obj
 0001:0006baf2       ?type_case_c@?$output_processor@_WV?$string_output_adapter@_W@__crt_stdio_output@@V?$positional_parameter_base@_WV?$string_output_adapter@_W@__crt_stdio_output@@@2@@__crt_stdio_output@@AAE_NXZ 1006caf2 f i libucrt:output.obj
 0001:0006bafc       ?type_case_c@?$output_processor@_WV?$string_output_adapter@_W@__crt_stdio_output@@V?$standard_base@_WV?$string_output_adapter@_W@__crt_stdio_output@@@2@@__crt_stdio_output@@AAE_NXZ 1006cafc f i libucrt:output.obj
 0001:0006bb06       ?type_case_c_tchar@?$output_processor@DV?$stream_output_adapter@D@__crt_stdio_output@@V?$format_validation_base@DV?$stream_output_adapter@D@__crt_stdio_output@@@2@@__crt_stdio_output@@AAE_ND@Z 1006cb06 f i libucrt:output.obj
 0001:0006bbba       ?type_case_c_tchar@?$output_processor@DV?$stream_output_adapter@D@__crt_stdio_output@@V?$positional_parameter_base@DV?$stream_output_adapter@D@__crt_stdio_output@@@2@@__crt_stdio_output@@AAE_ND@Z 1006cbba f i libucrt:output.obj
 0001:0006bcaa       ?type_case_c_tchar@?$output_processor@DV?$stream_output_adapter@D@__crt_stdio_output@@V?$standard_base@DV?$stream_output_adapter@D@__crt_stdio_output@@@2@@__crt_stdio_output@@AAE_ND@Z 1006ccaa f i libucrt:output.obj
 0001:0006bd5e       ?type_case_c_tchar@?$output_processor@DV?$string_output_adapter@D@__crt_stdio_output@@V?$format_validation_base@DV?$string_output_adapter@D@__crt_stdio_output@@@2@@__crt_stdio_output@@AAE_ND@Z 1006cd5e f i libucrt:output.obj
 0001:0006be12       ?type_case_c_tchar@?$output_processor@DV?$string_output_adapter@D@__crt_stdio_output@@V?$positional_parameter_base@DV?$string_output_adapter@D@__crt_stdio_output@@@2@@__crt_stdio_output@@AAE_ND@Z 1006ce12 f i libucrt:output.obj
 0001:0006bf02       ?type_case_c_tchar@?$output_processor@DV?$string_output_adapter@D@__crt_stdio_output@@V?$standard_base@DV?$string_output_adapter@D@__crt_stdio_output@@@2@@__crt_stdio_output@@AAE_ND@Z 1006cf02 f i libucrt:output.obj
 0001:0006bfb6       ?type_case_c_tchar@?$output_processor@_WV?$stream_output_adapter@_W@__crt_stdio_output@@V?$format_validation_base@_WV?$stream_output_adapter@_W@__crt_stdio_output@@@2@@__crt_stdio_output@@AAE_N_W@Z 1006cfb6 f i libucrt:output.obj
 0001:0006c074       ?type_case_c_tchar@?$output_processor@_WV?$stream_output_adapter@_W@__crt_stdio_output@@V?$positional_parameter_base@_WV?$stream_output_adapter@_W@__crt_stdio_output@@@2@@__crt_stdio_output@@AAE_N_W@Z 1006d074 f i libucrt:output.obj
 0001:0006c14e       ?type_case_c_tchar@?$output_processor@_WV?$stream_output_adapter@_W@__crt_stdio_output@@V?$standard_base@_WV?$stream_output_adapter@_W@__crt_stdio_output@@@2@@__crt_stdio_output@@AAE_N_W@Z 1006d14e f i libucrt:output.obj
 0001:0006c20c       ?type_case_c_tchar@?$output_processor@_WV?$string_output_adapter@_W@__crt_stdio_output@@V?$format_validation_base@_WV?$string_output_adapter@_W@__crt_stdio_output@@@2@@__crt_stdio_output@@AAE_N_W@Z 1006d20c f i libucrt:output.obj
 0001:0006c2ca       ?type_case_c_tchar@?$output_processor@_WV?$string_output_adapter@_W@__crt_stdio_output@@V?$positional_parameter_base@_WV?$string_output_adapter@_W@__crt_stdio_output@@@2@@__crt_stdio_output@@AAE_N_W@Z 1006d2ca f i libucrt:output.obj
 0001:0006c3a4       ?type_case_c_tchar@?$output_processor@_WV?$string_output_adapter@_W@__crt_stdio_output@@V?$standard_base@_WV?$string_output_adapter@_W@__crt_stdio_output@@@2@@__crt_stdio_output@@AAE_N_W@Z 1006d3a4 f i libucrt:output.obj
 0001:0006c462       ?type_case_d@?$output_processor@DV?$stream_output_adapter@D@__crt_stdio_output@@V?$format_validation_base@DV?$stream_output_adapter@D@__crt_stdio_output@@@2@@__crt_stdio_output@@AAE_NXZ 1006d462 f i libucrt:output.obj
 0001:0006c473       ?type_case_d@?$output_processor@DV?$stream_output_adapter@D@__crt_stdio_output@@V?$positional_parameter_base@DV?$stream_output_adapter@D@__crt_stdio_output@@@2@@__crt_stdio_output@@AAE_NXZ 1006d473 f i libucrt:output.obj
 0001:0006c484       ?type_case_d@?$output_processor@DV?$stream_output_adapter@D@__crt_stdio_output@@V?$standard_base@DV?$stream_output_adapter@D@__crt_stdio_output@@@2@@__crt_stdio_output@@AAE_NXZ 1006d484 f i libucrt:output.obj
 0001:0006c495       ?type_case_d@?$output_processor@DV?$string_output_adapter@D@__crt_stdio_output@@V?$format_validation_base@DV?$string_output_adapter@D@__crt_stdio_output@@@2@@__crt_stdio_output@@AAE_NXZ 1006d495 f i libucrt:output.obj
 0001:0006c4a6       ?type_case_d@?$output_processor@DV?$string_output_adapter@D@__crt_stdio_output@@V?$positional_parameter_base@DV?$string_output_adapter@D@__crt_stdio_output@@@2@@__crt_stdio_output@@AAE_NXZ 1006d4a6 f i libucrt:output.obj
 0001:0006c4b7       ?type_case_d@?$output_processor@DV?$string_output_adapter@D@__crt_stdio_output@@V?$standard_base@DV?$string_output_adapter@D@__crt_stdio_output@@@2@@__crt_stdio_output@@AAE_NXZ 1006d4b7 f i libucrt:output.obj
 0001:0006c4c8       ?type_case_d@?$output_processor@_WV?$stream_output_adapter@_W@__crt_stdio_output@@V?$format_validation_base@_WV?$stream_output_adapter@_W@__crt_stdio_output@@@2@@__crt_stdio_output@@AAE_NXZ 1006d4c8 f i libucrt:output.obj
 0001:0006c4d9       ?type_case_d@?$output_processor@_WV?$stream_output_adapter@_W@__crt_stdio_output@@V?$positional_parameter_base@_WV?$stream_output_adapter@_W@__crt_stdio_output@@@2@@__crt_stdio_output@@AAE_NXZ 1006d4d9 f i libucrt:output.obj
 0001:0006c4ea       ?type_case_d@?$output_processor@_WV?$stream_output_adapter@_W@__crt_stdio_output@@V?$standard_base@_WV?$stream_output_adapter@_W@__crt_stdio_output@@@2@@__crt_stdio_output@@AAE_NXZ 1006d4ea f i libucrt:output.obj
 0001:0006c4fb       ?type_case_d@?$output_processor@_WV?$string_output_adapter@_W@__crt_stdio_output@@V?$format_validation_base@_WV?$string_output_adapter@_W@__crt_stdio_output@@@2@@__crt_stdio_output@@AAE_NXZ 1006d4fb f i libucrt:output.obj
 0001:0006c50c       ?type_case_d@?$output_processor@_WV?$string_output_adapter@_W@__crt_stdio_output@@V?$positional_parameter_base@_WV?$string_output_adapter@_W@__crt_stdio_output@@@2@@__crt_stdio_output@@AAE_NXZ 1006d50c f i libucrt:output.obj
 0001:0006c51d       ?type_case_d@?$output_processor@_WV?$string_output_adapter@_W@__crt_stdio_output@@V?$standard_base@_WV?$string_output_adapter@_W@__crt_stdio_output@@@2@@__crt_stdio_output@@AAE_NXZ 1006d51d f i libucrt:output.obj
 0001:0006c52e       ?type_case_integer@?$output_processor@DV?$stream_output_adapter@D@__crt_stdio_output@@V?$format_validation_base@DV?$stream_output_adapter@D@__crt_stdio_output@@@2@@__crt_stdio_output@@AAE_NI_N@Z 1006d52e f i libucrt:output.obj
 0001:0006c6d5       ?type_case_integer@?$output_processor@DV?$stream_output_adapter@D@__crt_stdio_output@@V?$positional_parameter_base@DV?$stream_output_adapter@D@__crt_stdio_output@@@2@@__crt_stdio_output@@AAE_NI_N@Z 1006d6d5 f i libucrt:output.obj
 0001:0006c8b8       ?type_case_integer@?$output_processor@DV?$stream_output_adapter@D@__crt_stdio_output@@V?$standard_base@DV?$stream_output_adapter@D@__crt_stdio_output@@@2@@__crt_stdio_output@@AAE_NI_N@Z 1006d8b8 f i libucrt:output.obj
 0001:0006ca5f       ?type_case_integer@?$output_processor@DV?$string_output_adapter@D@__crt_stdio_output@@V?$format_validation_base@DV?$string_output_adapter@D@__crt_stdio_output@@@2@@__crt_stdio_output@@AAE_NI_N@Z 1006da5f f i libucrt:output.obj
 0001:0006cc06       ?type_case_integer@?$output_processor@DV?$string_output_adapter@D@__crt_stdio_output@@V?$positional_parameter_base@DV?$string_output_adapter@D@__crt_stdio_output@@@2@@__crt_stdio_output@@AAE_NI_N@Z 1006dc06 f i libucrt:output.obj
 0001:0006cde9       ?type_case_integer@?$output_processor@DV?$string_output_adapter@D@__crt_stdio_output@@V?$standard_base@DV?$string_output_adapter@D@__crt_stdio_output@@@2@@__crt_stdio_output@@AAE_NI_N@Z 1006dde9 f i libucrt:output.obj
 0001:0006cf90       ?type_case_integer@?$output_processor@_WV?$stream_output_adapter@_W@__crt_stdio_output@@V?$format_validation_base@_WV?$stream_output_adapter@_W@__crt_stdio_output@@@2@@__crt_stdio_output@@AAE_NI_N@Z 1006df90 f i libucrt:output.obj
 0001:0006d13c       ?type_case_integer@?$output_processor@_WV?$stream_output_adapter@_W@__crt_stdio_output@@V?$positional_parameter_base@_WV?$stream_output_adapter@_W@__crt_stdio_output@@@2@@__crt_stdio_output@@AAE_NI_N@Z 1006e13c f i libucrt:output.obj
 0001:0006d324       ?type_case_integer@?$output_processor@_WV?$stream_output_adapter@_W@__crt_stdio_output@@V?$standard_base@_WV?$stream_output_adapter@_W@__crt_stdio_output@@@2@@__crt_stdio_output@@AAE_NI_N@Z 1006e324 f i libucrt:output.obj
 0001:0006d4d0       ?type_case_integer@?$output_processor@_WV?$string_output_adapter@_W@__crt_stdio_output@@V?$format_validation_base@_WV?$string_output_adapter@_W@__crt_stdio_output@@@2@@__crt_stdio_output@@AAE_NI_N@Z 1006e4d0 f i libucrt:output.obj
 0001:0006d67c       ?type_case_integer@?$output_processor@_WV?$string_output_adapter@_W@__crt_stdio_output@@V?$positional_parameter_base@_WV?$string_output_adapter@_W@__crt_stdio_output@@@2@@__crt_stdio_output@@AAE_NI_N@Z 1006e67c f i libucrt:output.obj
 0001:0006d864       ?type_case_integer@?$output_processor@_WV?$string_output_adapter@_W@__crt_stdio_output@@V?$standard_base@_WV?$string_output_adapter@_W@__crt_stdio_output@@@2@@__crt_stdio_output@@AAE_NI_N@Z 1006e864 f i libucrt:output.obj
 0001:0006da10       ?type_case_n@?$output_processor@DV?$stream_output_adapter@D@__crt_stdio_output@@V?$format_validation_base@DV?$stream_output_adapter@D@__crt_stdio_output@@@2@@__crt_stdio_output@@AAE_NXZ 1006ea10 f i libucrt:output.obj
 0001:0006daa1       ?type_case_n@?$output_processor@DV?$stream_output_adapter@D@__crt_stdio_output@@V?$positional_parameter_base@DV?$stream_output_adapter@D@__crt_stdio_output@@@2@@__crt_stdio_output@@AAE_NXZ 1006eaa1 f i libucrt:output.obj
 0001:0006db60       ?type_case_n@?$output_processor@DV?$stream_output_adapter@D@__crt_stdio_output@@V?$standard_base@DV?$stream_output_adapter@D@__crt_stdio_output@@@2@@__crt_stdio_output@@AAE_NXZ 1006eb60 f i libucrt:output.obj
 0001:0006dbf1       ?type_case_n@?$output_processor@DV?$string_output_adapter@D@__crt_stdio_output@@V?$format_validation_base@DV?$string_output_adapter@D@__crt_stdio_output@@@2@@__crt_stdio_output@@AAE_NXZ 1006ebf1 f i libucrt:output.obj
 0001:0006dc82       ?type_case_n@?$output_processor@DV?$string_output_adapter@D@__crt_stdio_output@@V?$positional_parameter_base@DV?$string_output_adapter@D@__crt_stdio_output@@@2@@__crt_stdio_output@@AAE_NXZ 1006ec82 f i libucrt:output.obj
 0001:0006dd41       ?type_case_n@?$output_processor@DV?$string_output_adapter@D@__crt_stdio_output@@V?$standard_base@DV?$string_output_adapter@D@__crt_stdio_output@@@2@@__crt_stdio_output@@AAE_NXZ 1006ed41 f i libucrt:output.obj
 0001:0006ddd2       ?type_case_n@?$output_processor@_WV?$stream_output_adapter@_W@__crt_stdio_output@@V?$format_validation_base@_WV?$stream_output_adapter@_W@__crt_stdio_output@@@2@@__crt_stdio_output@@AAE_NXZ 1006edd2 f i libucrt:output.obj
 0001:0006de63       ?type_case_n@?$output_processor@_WV?$stream_output_adapter@_W@__crt_stdio_output@@V?$positional_parameter_base@_WV?$stream_output_adapter@_W@__crt_stdio_output@@@2@@__crt_stdio_output@@AAE_NXZ 1006ee63 f i libucrt:output.obj
 0001:0006df22       ?type_case_n@?$output_processor@_WV?$stream_output_adapter@_W@__crt_stdio_output@@V?$standard_base@_WV?$stream_output_adapter@_W@__crt_stdio_output@@@2@@__crt_stdio_output@@AAE_NXZ 1006ef22 f i libucrt:output.obj
 0001:0006dfb3       ?type_case_n@?$output_processor@_WV?$string_output_adapter@_W@__crt_stdio_output@@V?$format_validation_base@_WV?$string_output_adapter@_W@__crt_stdio_output@@@2@@__crt_stdio_output@@AAE_NXZ 1006efb3 f i libucrt:output.obj
 0001:0006e044       ?type_case_n@?$output_processor@_WV?$string_output_adapter@_W@__crt_stdio_output@@V?$positional_parameter_base@_WV?$string_output_adapter@_W@__crt_stdio_output@@@2@@__crt_stdio_output@@AAE_NXZ 1006f044 f i libucrt:output.obj
 0001:0006e103       ?type_case_n@?$output_processor@_WV?$string_output_adapter@_W@__crt_stdio_output@@V?$standard_base@_WV?$string_output_adapter@_W@__crt_stdio_output@@@2@@__crt_stdio_output@@AAE_NXZ 1006f103 f i libucrt:output.obj
 0001:0006e194       ?type_case_o@?$output_processor@DV?$stream_output_adapter@D@__crt_stdio_output@@V?$format_validation_base@DV?$stream_output_adapter@D@__crt_stdio_output@@@2@@__crt_stdio_output@@AAE_NXZ 1006f194 f i libucrt:output.obj
 0001:0006e1ba       ?type_case_o@?$output_processor@DV?$stream_output_adapter@D@__crt_stdio_output@@V?$positional_parameter_base@DV?$stream_output_adapter@D@__crt_stdio_output@@@2@@__crt_stdio_output@@AAE_NXZ 1006f1ba f i libucrt:output.obj
 0001:0006e1e0       ?type_case_o@?$output_processor@DV?$stream_output_adapter@D@__crt_stdio_output@@V?$standard_base@DV?$stream_output_adapter@D@__crt_stdio_output@@@2@@__crt_stdio_output@@AAE_NXZ 1006f1e0 f i libucrt:output.obj
 0001:0006e206       ?type_case_o@?$output_processor@DV?$string_output_adapter@D@__crt_stdio_output@@V?$format_validation_base@DV?$string_output_adapter@D@__crt_stdio_output@@@2@@__crt_stdio_output@@AAE_NXZ 1006f206 f i libucrt:output.obj
 0001:0006e22c       ?type_case_o@?$output_processor@DV?$string_output_adapter@D@__crt_stdio_output@@V?$positional_parameter_base@DV?$string_output_adapter@D@__crt_stdio_output@@@2@@__crt_stdio_output@@AAE_NXZ 1006f22c f i libucrt:output.obj
 0001:0006e252       ?type_case_o@?$output_processor@DV?$string_output_adapter@D@__crt_stdio_output@@V?$standard_base@DV?$string_output_adapter@D@__crt_stdio_output@@@2@@__crt_stdio_output@@AAE_NXZ 1006f252 f i libucrt:output.obj
 0001:0006e278       ?type_case_o@?$output_processor@_WV?$stream_output_adapter@_W@__crt_stdio_output@@V?$format_validation_base@_WV?$stream_output_adapter@_W@__crt_stdio_output@@@2@@__crt_stdio_output@@AAE_NXZ 1006f278 f i libucrt:output.obj
 0001:0006e29e       ?type_case_o@?$output_processor@_WV?$stream_output_adapter@_W@__crt_stdio_output@@V?$positional_parameter_base@_WV?$stream_output_adapter@_W@__crt_stdio_output@@@2@@__crt_stdio_output@@AAE_NXZ 1006f29e f i libucrt:output.obj
 0001:0006e2c4       ?type_case_o@?$output_processor@_WV?$stream_output_adapter@_W@__crt_stdio_output@@V?$standard_base@_WV?$stream_output_adapter@_W@__crt_stdio_output@@@2@@__crt_stdio_output@@AAE_NXZ 1006f2c4 f i libucrt:output.obj
 0001:0006e2ea       ?type_case_o@?$output_processor@_WV?$string_output_adapter@_W@__crt_stdio_output@@V?$format_validation_base@_WV?$string_output_adapter@_W@__crt_stdio_output@@@2@@__crt_stdio_output@@AAE_NXZ 1006f2ea f i libucrt:output.obj
 0001:0006e310       ?type_case_o@?$output_processor@_WV?$string_output_adapter@_W@__crt_stdio_output@@V?$positional_parameter_base@_WV?$string_output_adapter@_W@__crt_stdio_output@@@2@@__crt_stdio_output@@AAE_NXZ 1006f310 f i libucrt:output.obj
 0001:0006e336       ?type_case_o@?$output_processor@_WV?$string_output_adapter@_W@__crt_stdio_output@@V?$standard_base@_WV?$string_output_adapter@_W@__crt_stdio_output@@@2@@__crt_stdio_output@@AAE_NXZ 1006f336 f i libucrt:output.obj
 0001:0006e35c       ?type_case_p@?$output_processor@DV?$stream_output_adapter@D@__crt_stdio_output@@V?$format_validation_base@DV?$stream_output_adapter@D@__crt_stdio_output@@@2@@__crt_stdio_output@@AAE_NXZ 1006f35c f i libucrt:output.obj
 0001:0006e37a       ?type_case_p@?$output_processor@DV?$stream_output_adapter@D@__crt_stdio_output@@V?$positional_parameter_base@DV?$stream_output_adapter@D@__crt_stdio_output@@@2@@__crt_stdio_output@@AAE_NXZ 1006f37a f i libucrt:output.obj
 0001:0006e398       ?type_case_p@?$output_processor@DV?$stream_output_adapter@D@__crt_stdio_output@@V?$standard_base@DV?$stream_output_adapter@D@__crt_stdio_output@@@2@@__crt_stdio_output@@AAE_NXZ 1006f398 f i libucrt:output.obj
 0001:0006e3b6       ?type_case_p@?$output_processor@DV?$string_output_adapter@D@__crt_stdio_output@@V?$format_validation_base@DV?$string_output_adapter@D@__crt_stdio_output@@@2@@__crt_stdio_output@@AAE_NXZ 1006f3b6 f i libucrt:output.obj
 0001:0006e3d4       ?type_case_p@?$output_processor@DV?$string_output_adapter@D@__crt_stdio_output@@V?$positional_parameter_base@DV?$string_output_adapter@D@__crt_stdio_output@@@2@@__crt_stdio_output@@AAE_NXZ 1006f3d4 f i libucrt:output.obj
 0001:0006e3f2       ?type_case_p@?$output_processor@DV?$string_output_adapter@D@__crt_stdio_output@@V?$standard_base@DV?$string_output_adapter@D@__crt_stdio_output@@@2@@__crt_stdio_output@@AAE_NXZ 1006f3f2 f i libucrt:output.obj
 0001:0006e410       ?type_case_p@?$output_processor@_WV?$stream_output_adapter@_W@__crt_stdio_output@@V?$format_validation_base@_WV?$stream_output_adapter@_W@__crt_stdio_output@@@2@@__crt_stdio_output@@AAE_NXZ 1006f410 f i libucrt:output.obj
 0001:0006e42e       ?type_case_p@?$output_processor@_WV?$stream_output_adapter@_W@__crt_stdio_output@@V?$positional_parameter_base@_WV?$stream_output_adapter@_W@__crt_stdio_output@@@2@@__crt_stdio_output@@AAE_NXZ 1006f42e f i libucrt:output.obj
 0001:0006e44c       ?type_case_p@?$output_processor@_WV?$stream_output_adapter@_W@__crt_stdio_output@@V?$standard_base@_WV?$stream_output_adapter@_W@__crt_stdio_output@@@2@@__crt_stdio_output@@AAE_NXZ 1006f44c f i libucrt:output.obj
 0001:0006e46a       ?type_case_p@?$output_processor@_WV?$string_output_adapter@_W@__crt_stdio_output@@V?$format_validation_base@_WV?$string_output_adapter@_W@__crt_stdio_output@@@2@@__crt_stdio_output@@AAE_NXZ 1006f46a f i libucrt:output.obj
 0001:0006e488       ?type_case_p@?$output_processor@_WV?$string_output_adapter@_W@__crt_stdio_output@@V?$positional_parameter_base@_WV?$string_output_adapter@_W@__crt_stdio_output@@@2@@__crt_stdio_output@@AAE_NXZ 1006f488 f i libucrt:output.obj
 0001:0006e4a6       ?type_case_p@?$output_processor@_WV?$string_output_adapter@_W@__crt_stdio_output@@V?$standard_base@_WV?$string_output_adapter@_W@__crt_stdio_output@@@2@@__crt_stdio_output@@AAE_NXZ 1006f4a6 f i libucrt:output.obj
 0001:0006e4c4       ?type_case_s@?$output_processor@DV?$stream_output_adapter@D@__crt_stdio_output@@V?$format_validation_base@DV?$stream_output_adapter@D@__crt_stdio_output@@@2@@__crt_stdio_output@@AAE_NXZ 1006f4c4 f i libucrt:output.obj
 0001:0006e551       ?type_case_s@?$output_processor@DV?$stream_output_adapter@D@__crt_stdio_output@@V?$positional_parameter_base@DV?$stream_output_adapter@D@__crt_stdio_output@@@2@@__crt_stdio_output@@AAE_NXZ 1006f551 f i libucrt:output.obj
 0001:0006e5ee       ?type_case_s@?$output_processor@DV?$stream_output_adapter@D@__crt_stdio_output@@V?$standard_base@DV?$stream_output_adapter@D@__crt_stdio_output@@@2@@__crt_stdio_output@@AAE_NXZ 1006f5ee f i libucrt:output.obj
 0001:0006e67b       ?type_case_s@?$output_processor@DV?$string_output_adapter@D@__crt_stdio_output@@V?$format_validation_base@DV?$string_output_adapter@D@__crt_stdio_output@@@2@@__crt_stdio_output@@AAE_NXZ 1006f67b f i libucrt:output.obj
 0001:0006e708       ?type_case_s@?$output_processor@DV?$string_output_adapter@D@__crt_stdio_output@@V?$positional_parameter_base@DV?$string_output_adapter@D@__crt_stdio_output@@@2@@__crt_stdio_output@@AAE_NXZ 1006f708 f i libucrt:output.obj
 0001:0006e7a5       ?type_case_s@?$output_processor@DV?$string_output_adapter@D@__crt_stdio_output@@V?$standard_base@DV?$string_output_adapter@D@__crt_stdio_output@@@2@@__crt_stdio_output@@AAE_NXZ 1006f7a5 f i libucrt:output.obj
 0001:0006e832       ?type_case_s@?$output_processor@_WV?$stream_output_adapter@_W@__crt_stdio_output@@V?$format_validation_base@_WV?$stream_output_adapter@_W@__crt_stdio_output@@@2@@__crt_stdio_output@@AAE_NXZ 1006f832 f i libucrt:output.obj
 0001:0006e8c1       ?type_case_s@?$output_processor@_WV?$stream_output_adapter@_W@__crt_stdio_output@@V?$positional_parameter_base@_WV?$stream_output_adapter@_W@__crt_stdio_output@@@2@@__crt_stdio_output@@AAE_NXZ 1006f8c1 f i libucrt:output.obj
 0001:0006e961       ?type_case_s@?$output_processor@_WV?$stream_output_adapter@_W@__crt_stdio_output@@V?$standard_base@_WV?$stream_output_adapter@_W@__crt_stdio_output@@@2@@__crt_stdio_output@@AAE_NXZ 1006f961 f i libucrt:output.obj
 0001:0006e9f0       ?type_case_s@?$output_processor@_WV?$string_output_adapter@_W@__crt_stdio_output@@V?$format_validation_base@_WV?$string_output_adapter@_W@__crt_stdio_output@@@2@@__crt_stdio_output@@AAE_NXZ 1006f9f0 f i libucrt:output.obj
 0001:0006ea7f       ?type_case_s@?$output_processor@_WV?$string_output_adapter@_W@__crt_stdio_output@@V?$positional_parameter_base@_WV?$string_output_adapter@_W@__crt_stdio_output@@@2@@__crt_stdio_output@@AAE_NXZ 1006fa7f f i libucrt:output.obj
 0001:0006eb1f       ?type_case_s@?$output_processor@_WV?$string_output_adapter@_W@__crt_stdio_output@@V?$standard_base@_WV?$string_output_adapter@_W@__crt_stdio_output@@@2@@__crt_stdio_output@@AAE_NXZ 1006fb1f f i libucrt:output.obj
 0001:0006ebae       ?type_case_s_compute_narrow_string_length@?$output_processor@DV?$stream_output_adapter@D@__crt_stdio_output@@V?$format_validation_base@DV?$stream_output_adapter@D@__crt_stdio_output@@@2@@__crt_stdio_output@@ABEHHD@Z 1006fbae f i libucrt:output.obj
 0001:0006ebc9       ?type_case_s_compute_narrow_string_length@?$output_processor@DV?$stream_output_adapter@D@__crt_stdio_output@@V?$positional_parameter_base@DV?$stream_output_adapter@D@__crt_stdio_output@@@2@@__crt_stdio_output@@ABEHHD@Z 1006fbc9 f i libucrt:output.obj
 0001:0006ebe4       ?type_case_s_compute_narrow_string_length@?$output_processor@DV?$stream_output_adapter@D@__crt_stdio_output@@V?$standard_base@DV?$stream_output_adapter@D@__crt_stdio_output@@@2@@__crt_stdio_output@@ABEHHD@Z 1006fbe4 f i libucrt:output.obj
 0001:0006ebff       ?type_case_s_compute_narrow_string_length@?$output_processor@DV?$string_output_adapter@D@__crt_stdio_output@@V?$format_validation_base@DV?$string_output_adapter@D@__crt_stdio_output@@@2@@__crt_stdio_output@@ABEHHD@Z 1006fbff f i libucrt:output.obj
 0001:0006ec1a       ?type_case_s_compute_narrow_string_length@?$output_processor@DV?$string_output_adapter@D@__crt_stdio_output@@V?$positional_parameter_base@DV?$string_output_adapter@D@__crt_stdio_output@@@2@@__crt_stdio_output@@ABEHHD@Z 1006fc1a f i libucrt:output.obj
 0001:0006ec35       ?type_case_s_compute_narrow_string_length@?$output_processor@DV?$string_output_adapter@D@__crt_stdio_output@@V?$standard_base@DV?$string_output_adapter@D@__crt_stdio_output@@@2@@__crt_stdio_output@@ABEHHD@Z 1006fc35 f i libucrt:output.obj
 0001:0006ec50       ?type_case_s_compute_narrow_string_length@?$output_processor@_WV?$stream_output_adapter@_W@__crt_stdio_output@@V?$format_validation_base@_WV?$stream_output_adapter@_W@__crt_stdio_output@@@2@@__crt_stdio_output@@ABEHH_W@Z 1006fc50 f i libucrt:output.obj
 0001:0006eca8       ?type_case_s_compute_narrow_string_length@?$output_processor@_WV?$stream_output_adapter@_W@__crt_stdio_output@@V?$positional_parameter_base@_WV?$stream_output_adapter@_W@__crt_stdio_output@@@2@@__crt_stdio_output@@ABEHH_W@Z 1006fca8 f i libucrt:output.obj
 0001:0006ed00       ?type_case_s_compute_narrow_string_length@?$output_processor@_WV?$stream_output_adapter@_W@__crt_stdio_output@@V?$standard_base@_WV?$stream_output_adapter@_W@__crt_stdio_output@@@2@@__crt_stdio_output@@ABEHH_W@Z 1006fd00 f i libucrt:output.obj
 0001:0006ed58       ?type_case_s_compute_narrow_string_length@?$output_processor@_WV?$string_output_adapter@_W@__crt_stdio_output@@V?$format_validation_base@_WV?$string_output_adapter@_W@__crt_stdio_output@@@2@@__crt_stdio_output@@ABEHH_W@Z 1006fd58 f i libucrt:output.obj
 0001:0006edb0       ?type_case_s_compute_narrow_string_length@?$output_processor@_WV?$string_output_adapter@_W@__crt_stdio_output@@V?$positional_parameter_base@_WV?$string_output_adapter@_W@__crt_stdio_output@@@2@@__crt_stdio_output@@ABEHH_W@Z 1006fdb0 f i libucrt:output.obj
 0001:0006ee08       ?type_case_s_compute_narrow_string_length@?$output_processor@_WV?$string_output_adapter@_W@__crt_stdio_output@@V?$standard_base@_WV?$string_output_adapter@_W@__crt_stdio_output@@@2@@__crt_stdio_output@@ABEHH_W@Z 1006fe08 f i libucrt:output.obj
 0001:0006ee60       ?type_case_u@?$output_processor@DV?$stream_output_adapter@D@__crt_stdio_output@@V?$format_validation_base@DV?$stream_output_adapter@D@__crt_stdio_output@@@2@@__crt_stdio_output@@AAE_NXZ 1006fe60 f i libucrt:output.obj
 0001:0006ee6c       ?type_case_u@?$output_processor@DV?$stream_output_adapter@D@__crt_stdio_output@@V?$positional_parameter_base@DV?$stream_output_adapter@D@__crt_stdio_output@@@2@@__crt_stdio_output@@AAE_NXZ 1006fe6c f i libucrt:output.obj
 0001:0006ee78       ?type_case_u@?$output_processor@DV?$stream_output_adapter@D@__crt_stdio_output@@V?$standard_base@DV?$stream_output_adapter@D@__crt_stdio_output@@@2@@__crt_stdio_output@@AAE_NXZ 1006fe78 f i libucrt:output.obj
 0001:0006ee84       ?type_case_u@?$output_processor@DV?$string_output_adapter@D@__crt_stdio_output@@V?$format_validation_base@DV?$string_output_adapter@D@__crt_stdio_output@@@2@@__crt_stdio_output@@AAE_NXZ 1006fe84 f i libucrt:output.obj
 0001:0006ee90       ?type_case_u@?$output_processor@DV?$string_output_adapter@D@__crt_stdio_output@@V?$positional_parameter_base@DV?$string_output_adapter@D@__crt_stdio_output@@@2@@__crt_stdio_output@@AAE_NXZ 1006fe90 f i libucrt:output.obj
 0001:0006ee9c       ?type_case_u@?$output_processor@DV?$string_output_adapter@D@__crt_stdio_output@@V?$standard_base@DV?$string_output_adapter@D@__crt_stdio_output@@@2@@__crt_stdio_output@@AAE_NXZ 1006fe9c f i libucrt:output.obj
 0001:0006eea8       ?type_case_u@?$output_processor@_WV?$stream_output_adapter@_W@__crt_stdio_output@@V?$format_validation_base@_WV?$stream_output_adapter@_W@__crt_stdio_output@@@2@@__crt_stdio_output@@AAE_NXZ 1006fea8 f i libucrt:output.obj
 0001:0006eeb4       ?type_case_u@?$output_processor@_WV?$stream_output_adapter@_W@__crt_stdio_output@@V?$positional_parameter_base@_WV?$stream_output_adapter@_W@__crt_stdio_output@@@2@@__crt_stdio_output@@AAE_NXZ 1006feb4 f i libucrt:output.obj
 0001:0006eec0       ?type_case_u@?$output_processor@_WV?$stream_output_adapter@_W@__crt_stdio_output@@V?$standard_base@_WV?$stream_output_adapter@_W@__crt_stdio_output@@@2@@__crt_stdio_output@@AAE_NXZ 1006fec0 f i libucrt:output.obj
 0001:0006eecc       ?type_case_u@?$output_processor@_WV?$string_output_adapter@_W@__crt_stdio_output@@V?$format_validation_base@_WV?$string_output_adapter@_W@__crt_stdio_output@@@2@@__crt_stdio_output@@AAE_NXZ 1006fecc f i libucrt:output.obj
 0001:0006eed8       ?type_case_u@?$output_processor@_WV?$string_output_adapter@_W@__crt_stdio_output@@V?$positional_parameter_base@_WV?$string_output_adapter@_W@__crt_stdio_output@@@2@@__crt_stdio_output@@AAE_NXZ 1006fed8 f i libucrt:output.obj
 0001:0006eee4       ?type_case_u@?$output_processor@_WV?$string_output_adapter@_W@__crt_stdio_output@@V?$standard_base@_WV?$string_output_adapter@_W@__crt_stdio_output@@@2@@__crt_stdio_output@@AAE_NXZ 1006fee4 f i libucrt:output.obj
 0001:0006eef0       ?type_case_x@?$output_processor@DV?$stream_output_adapter@D@__crt_stdio_output@@V?$format_validation_base@DV?$stream_output_adapter@D@__crt_stdio_output@@@2@@__crt_stdio_output@@AAE_NXZ 1006fef0 f i libucrt:output.obj
 0001:0006eefc       ?type_case_x@?$output_processor@DV?$stream_output_adapter@D@__crt_stdio_output@@V?$positional_parameter_base@DV?$stream_output_adapter@D@__crt_stdio_output@@@2@@__crt_stdio_output@@AAE_NXZ 1006fefc f i libucrt:output.obj
 0001:0006ef08       ?type_case_x@?$output_processor@DV?$stream_output_adapter@D@__crt_stdio_output@@V?$standard_base@DV?$stream_output_adapter@D@__crt_stdio_output@@@2@@__crt_stdio_output@@AAE_NXZ 1006ff08 f i libucrt:output.obj
 0001:0006ef14       ?type_case_x@?$output_processor@DV?$string_output_adapter@D@__crt_stdio_output@@V?$format_validation_base@DV?$string_output_adapter@D@__crt_stdio_output@@@2@@__crt_stdio_output@@AAE_NXZ 1006ff14 f i libucrt:output.obj
 0001:0006ef20       ?type_case_x@?$output_processor@DV?$string_output_adapter@D@__crt_stdio_output@@V?$positional_parameter_base@DV?$string_output_adapter@D@__crt_stdio_output@@@2@@__crt_stdio_output@@AAE_NXZ 1006ff20 f i libucrt:output.obj
 0001:0006ef2c       ?type_case_x@?$output_processor@DV?$string_output_adapter@D@__crt_stdio_output@@V?$standard_base@DV?$string_output_adapter@D@__crt_stdio_output@@@2@@__crt_stdio_output@@AAE_NXZ 1006ff2c f i libucrt:output.obj
 0001:0006ef38       ?type_case_x@?$output_processor@_WV?$stream_output_adapter@_W@__crt_stdio_output@@V?$format_validation_base@_WV?$stream_output_adapter@_W@__crt_stdio_output@@@2@@__crt_stdio_output@@AAE_NXZ 1006ff38 f i libucrt:output.obj
 0001:0006ef44       ?type_case_x@?$output_processor@_WV?$stream_output_adapter@_W@__crt_stdio_output@@V?$positional_parameter_base@_WV?$stream_output_adapter@_W@__crt_stdio_output@@@2@@__crt_stdio_output@@AAE_NXZ 1006ff44 f i libucrt:output.obj
 0001:0006ef50       ?type_case_x@?$output_processor@_WV?$stream_output_adapter@_W@__crt_stdio_output@@V?$standard_base@_WV?$stream_output_adapter@_W@__crt_stdio_output@@@2@@__crt_stdio_output@@AAE_NXZ 1006ff50 f i libucrt:output.obj
 0001:0006ef5c       ?type_case_x@?$output_processor@_WV?$string_output_adapter@_W@__crt_stdio_output@@V?$format_validation_base@_WV?$string_output_adapter@_W@__crt_stdio_output@@@2@@__crt_stdio_output@@AAE_NXZ 1006ff5c f i libucrt:output.obj
 0001:0006ef68       ?type_case_x@?$output_processor@_WV?$string_output_adapter@_W@__crt_stdio_output@@V?$positional_parameter_base@_WV?$string_output_adapter@_W@__crt_stdio_output@@@2@@__crt_stdio_output@@AAE_NXZ 1006ff68 f i libucrt:output.obj
 0001:0006ef74       ?type_case_x@?$output_processor@_WV?$string_output_adapter@_W@__crt_stdio_output@@V?$standard_base@_WV?$string_output_adapter@_W@__crt_stdio_output@@@2@@__crt_stdio_output@@AAE_NXZ 1006ff74 f i libucrt:output.obj
 0001:0006ef80       ?unset_flag@?$output_processor@DV?$stream_output_adapter@D@__crt_stdio_output@@V?$format_validation_base@DV?$stream_output_adapter@D@__crt_stdio_output@@@2@@__crt_stdio_output@@AAEXI@Z 1006ff80 f i libucrt:output.obj
 0001:0006ef95       ?unset_flag@?$output_processor@DV?$stream_output_adapter@D@__crt_stdio_output@@V?$positional_parameter_base@DV?$stream_output_adapter@D@__crt_stdio_output@@@2@@__crt_stdio_output@@AAEXI@Z 1006ff95 f i libucrt:output.obj
 0001:0006efaa       ?unset_flag@?$output_processor@DV?$stream_output_adapter@D@__crt_stdio_output@@V?$standard_base@DV?$stream_output_adapter@D@__crt_stdio_output@@@2@@__crt_stdio_output@@AAEXI@Z 1006ffaa f i libucrt:output.obj
 0001:0006efbf       ?unset_flag@?$output_processor@DV?$string_output_adapter@D@__crt_stdio_output@@V?$format_validation_base@DV?$string_output_adapter@D@__crt_stdio_output@@@2@@__crt_stdio_output@@AAEXI@Z 1006ffbf f i libucrt:output.obj
 0001:0006efd4       ?unset_flag@?$output_processor@DV?$string_output_adapter@D@__crt_stdio_output@@V?$positional_parameter_base@DV?$string_output_adapter@D@__crt_stdio_output@@@2@@__crt_stdio_output@@AAEXI@Z 1006ffd4 f i libucrt:output.obj
 0001:0006efe9       ?unset_flag@?$output_processor@DV?$string_output_adapter@D@__crt_stdio_output@@V?$standard_base@DV?$string_output_adapter@D@__crt_stdio_output@@@2@@__crt_stdio_output@@AAEXI@Z 1006ffe9 f i libucrt:output.obj
 0001:0006effe       ?unset_flag@?$output_processor@_WV?$stream_output_adapter@_W@__crt_stdio_output@@V?$format_validation_base@_WV?$stream_output_adapter@_W@__crt_stdio_output@@@2@@__crt_stdio_output@@AAEXI@Z 1006fffe f i libucrt:output.obj
 0001:0006f013       ?unset_flag@?$output_processor@_WV?$stream_output_adapter@_W@__crt_stdio_output@@V?$positional_parameter_base@_WV?$stream_output_adapter@_W@__crt_stdio_output@@@2@@__crt_stdio_output@@AAEXI@Z 10070013 f i libucrt:output.obj
 0001:0006f028       ?unset_flag@?$output_processor@_WV?$stream_output_adapter@_W@__crt_stdio_output@@V?$standard_base@_WV?$stream_output_adapter@_W@__crt_stdio_output@@@2@@__crt_stdio_output@@AAEXI@Z 10070028 f i libucrt:output.obj
 0001:0006f03d       ?unset_flag@?$output_processor@_WV?$string_output_adapter@_W@__crt_stdio_output@@V?$format_validation_base@_WV?$string_output_adapter@_W@__crt_stdio_output@@@2@@__crt_stdio_output@@AAEXI@Z 1007003d f i libucrt:output.obj
 0001:0006f052       ?unset_flag@?$output_processor@_WV?$string_output_adapter@_W@__crt_stdio_output@@V?$positional_parameter_base@_WV?$string_output_adapter@_W@__crt_stdio_output@@@2@@__crt_stdio_output@@AAEXI@Z 10070052 f i libucrt:output.obj
 0001:0006f067       ?unset_flag@?$output_processor@_WV?$string_output_adapter@_W@__crt_stdio_output@@V?$standard_base@_WV?$string_output_adapter@_W@__crt_stdio_output@@@2@@__crt_stdio_output@@AAEXI@Z 10070067 f i libucrt:output.obj
 0001:0006f07c       ?update_field_width@?$positional_parameter_base@DV?$stream_output_adapter@D@__crt_stdio_output@@@__crt_stdio_output@@IAE_NXZ 1007007c f i libucrt:output.obj
 0001:0006f15f       ?update_field_width@?$positional_parameter_base@DV?$string_output_adapter@D@__crt_stdio_output@@@__crt_stdio_output@@IAE_NXZ 1007015f f i libucrt:output.obj
 0001:0006f242       ?update_field_width@?$positional_parameter_base@_WV?$stream_output_adapter@_W@__crt_stdio_output@@@__crt_stdio_output@@IAE_NXZ 10070242 f i libucrt:output.obj
 0001:0006f326       ?update_field_width@?$positional_parameter_base@_WV?$string_output_adapter@_W@__crt_stdio_output@@@__crt_stdio_output@@IAE_NXZ 10070326 f i libucrt:output.obj
 0001:0006f40a       ?update_field_width@?$standard_base@DV?$stream_output_adapter@D@__crt_stdio_output@@@__crt_stdio_output@@IAE_NXZ 1007040a f i libucrt:output.obj
 0001:0006f41e       ?update_field_width@?$standard_base@DV?$string_output_adapter@D@__crt_stdio_output@@@__crt_stdio_output@@IAE_NXZ 1007041e f i libucrt:output.obj
 0001:0006f432       ?update_field_width@?$standard_base@_WV?$stream_output_adapter@_W@__crt_stdio_output@@@__crt_stdio_output@@IAE_NXZ 10070432 f i libucrt:output.obj
 0001:0006f446       ?update_field_width@?$standard_base@_WV?$string_output_adapter@_W@__crt_stdio_output@@@__crt_stdio_output@@IAE_NXZ 10070446 f i libucrt:output.obj
 0001:0006f45a       ?update_precision@?$positional_parameter_base@DV?$stream_output_adapter@D@__crt_stdio_output@@@__crt_stdio_output@@IAE_NXZ 1007045a f i libucrt:output.obj
 0001:0006f53d       ?update_precision@?$positional_parameter_base@DV?$string_output_adapter@D@__crt_stdio_output@@@__crt_stdio_output@@IAE_NXZ 1007053d f i libucrt:output.obj
 0001:0006f620       ?update_precision@?$positional_parameter_base@_WV?$stream_output_adapter@_W@__crt_stdio_output@@@__crt_stdio_output@@IAE_NXZ 10070620 f i libucrt:output.obj
 0001:0006f704       ?update_precision@?$positional_parameter_base@_WV?$string_output_adapter@_W@__crt_stdio_output@@@__crt_stdio_output@@IAE_NXZ 10070704 f i libucrt:output.obj
 0001:0006f7e8       ?update_precision@?$standard_base@DV?$stream_output_adapter@D@__crt_stdio_output@@@__crt_stdio_output@@IAE_NXZ 100707e8 f i libucrt:output.obj
 0001:0006f7fc       ?update_precision@?$standard_base@DV?$string_output_adapter@D@__crt_stdio_output@@@__crt_stdio_output@@IAE_NXZ 100707fc f i libucrt:output.obj
 0001:0006f810       ?update_precision@?$standard_base@_WV?$stream_output_adapter@_W@__crt_stdio_output@@@__crt_stdio_output@@IAE_NXZ 10070810 f i libucrt:output.obj
 0001:0006f824       ?update_precision@?$standard_base@_WV?$string_output_adapter@_W@__crt_stdio_output@@@__crt_stdio_output@@IAE_NXZ 10070824 f i libucrt:output.obj
 0001:0006f838       ?valid@__crt_stdio_stream@@QBE_NXZ 10070838 f i libucrt:output.obj
 0001:0006f83f       ?validate@?$stream_output_adapter@D@__crt_stdio_output@@QBE_NXZ 1007083f f i libucrt:output.obj
 0001:0006f868       ?validate@?$stream_output_adapter@_W@__crt_stdio_output@@QBE_NXZ 10070868 f i libucrt:output.obj
 0001:0006f889       ?validate@?$string_output_adapter@D@__crt_stdio_output@@QBE_NXZ 10070889 f i libucrt:output.obj
 0001:0006f8aa       ?validate@?$string_output_adapter@_W@__crt_stdio_output@@QBE_NXZ 100708aa f i libucrt:output.obj
 0001:0006f8cb       ?validate_and_store_parameter_data@?$positional_parameter_base@DV?$stream_output_adapter@D@__crt_stdio_output@@@__crt_stdio_output@@AAE_NAAUparameter_data@12@W4parameter_type@12@DW4length_modifier@2@@Z 100708cb f i libucrt:output.obj
 0001:0006f928       ?validate_and_store_parameter_data@?$positional_parameter_base@DV?$string_output_adapter@D@__crt_stdio_output@@@__crt_stdio_output@@AAE_NAAUparameter_data@12@W4parameter_type@12@DW4length_modifier@2@@Z 10070928 f i libucrt:output.obj
 0001:0006f985       ?validate_and_store_parameter_data@?$positional_parameter_base@_WV?$stream_output_adapter@_W@__crt_stdio_output@@@__crt_stdio_output@@AAE_NAAUparameter_data@12@W4parameter_type@12@_WW4length_modifier@2@@Z 10070985 f i libucrt:output.obj
 0001:0006f9e5       ?validate_and_store_parameter_data@?$positional_parameter_base@_WV?$string_output_adapter@_W@__crt_stdio_output@@@__crt_stdio_output@@AAE_NAAUparameter_data@12@W4parameter_type@12@_WW4length_modifier@2@@Z 100709e5 f i libucrt:output.obj
 0001:0006fa45       ?validate_and_update_state_at_beginning_of_format_character@?$positional_parameter_base@DV?$stream_output_adapter@D@__crt_stdio_output@@@__crt_stdio_output@@IAE_NXZ 10070a45 f i libucrt:output.obj
 0001:0006fb7d       ?validate_and_update_state_at_beginning_of_format_character@?$positional_parameter_base@DV?$string_output_adapter@D@__crt_stdio_output@@@__crt_stdio_output@@IAE_NXZ 10070b7d f i libucrt:output.obj
 0001:0006fcb5       ?validate_and_update_state_at_beginning_of_format_character@?$positional_parameter_base@_WV?$stream_output_adapter@_W@__crt_stdio_output@@@__crt_stdio_output@@IAE_NXZ 10070cb5 f i libucrt:output.obj
 0001:0006fdf8       ?validate_and_update_state_at_beginning_of_format_character@?$positional_parameter_base@_WV?$string_output_adapter@_W@__crt_stdio_output@@@__crt_stdio_output@@IAE_NXZ 10070df8 f i libucrt:output.obj
 0001:0006ff3b       ?validate_and_update_state_at_beginning_of_format_character@?$standard_base@DV?$stream_output_adapter@D@__crt_stdio_output@@@__crt_stdio_output@@IAE_NXZ 10070f3b f i libucrt:output.obj
 0001:0006ff3e       ?validate_and_update_state_at_beginning_of_format_character@?$standard_base@DV?$string_output_adapter@D@__crt_stdio_output@@@__crt_stdio_output@@IAE_NXZ 10070f3e f i libucrt:output.obj
 0001:0006ff41       ?validate_and_update_state_at_beginning_of_format_character@?$standard_base@_WV?$stream_output_adapter@_W@__crt_stdio_output@@@__crt_stdio_output@@IAE_NXZ 10070f41 f i libucrt:output.obj
 0001:0006ff44       ?validate_and_update_state_at_beginning_of_format_character@?$standard_base@_WV?$string_output_adapter@_W@__crt_stdio_output@@@__crt_stdio_output@@IAE_NXZ 10070f44 f i libucrt:output.obj
 0001:0006ff47       ?validate_and_update_state_at_end_of_format_string@?$format_validation_base@DV?$stream_output_adapter@D@__crt_stdio_output@@@__crt_stdio_output@@IBE_NXZ 10070f47 f i libucrt:output.obj
 0001:0006ff71       ?validate_and_update_state_at_end_of_format_string@?$format_validation_base@DV?$string_output_adapter@D@__crt_stdio_output@@@__crt_stdio_output@@IBE_NXZ 10070f71 f i libucrt:output.obj
 0001:0006ff9b       ?validate_and_update_state_at_end_of_format_string@?$format_validation_base@_WV?$stream_output_adapter@_W@__crt_stdio_output@@@__crt_stdio_output@@IBE_NXZ 10070f9b f i libucrt:output.obj
 0001:0006ffc5       ?validate_and_update_state_at_end_of_format_string@?$format_validation_base@_WV?$string_output_adapter@_W@__crt_stdio_output@@@__crt_stdio_output@@IBE_NXZ 10070fc5 f i libucrt:output.obj
 0001:0006ffef       ?validate_and_update_state_at_end_of_format_string@?$positional_parameter_base@DV?$stream_output_adapter@D@__crt_stdio_output@@@__crt_stdio_output@@IAE_NXZ 10070fef f i libucrt:output.obj
 0001:000700a3       ?validate_and_update_state_at_end_of_format_string@?$positional_parameter_base@DV?$string_output_adapter@D@__crt_stdio_output@@@__crt_stdio_output@@IAE_NXZ 100710a3 f i libucrt:output.obj
 0001:00070157       ?validate_and_update_state_at_end_of_format_string@?$positional_parameter_base@_WV?$stream_output_adapter@_W@__crt_stdio_output@@@__crt_stdio_output@@IAE_NXZ 10071157 f i libucrt:output.obj
 0001:0007020b       ?validate_and_update_state_at_end_of_format_string@?$positional_parameter_base@_WV?$string_output_adapter@_W@__crt_stdio_output@@@__crt_stdio_output@@IAE_NXZ 1007120b f i libucrt:output.obj
 0001:000702bf       ?validate_and_update_state_at_end_of_format_string@?$standard_base@DV?$stream_output_adapter@D@__crt_stdio_output@@@__crt_stdio_output@@IBE_NXZ 100712bf f i libucrt:output.obj
 0001:000702c2       ?validate_and_update_state_at_end_of_format_string@?$standard_base@DV?$string_output_adapter@D@__crt_stdio_output@@@__crt_stdio_output@@IBE_NXZ 100712c2 f i libucrt:output.obj
 0001:000702c5       ?validate_and_update_state_at_end_of_format_string@?$standard_base@_WV?$stream_output_adapter@_W@__crt_stdio_output@@@__crt_stdio_output@@IBE_NXZ 100712c5 f i libucrt:output.obj
 0001:000702c8       ?validate_and_update_state_at_end_of_format_string@?$standard_base@_WV?$string_output_adapter@_W@__crt_stdio_output@@@__crt_stdio_output@@IBE_NXZ 100712c8 f i libucrt:output.obj
 0001:000702cb       ?validate_state_for_type_case_a@?$positional_parameter_base@DV?$stream_output_adapter@D@__crt_stdio_output@@@__crt_stdio_output@@IAE_NXZ 100712cb f i libucrt:output.obj
 0001:0007032d       ?validate_state_for_type_case_a@?$positional_parameter_base@DV?$string_output_adapter@D@__crt_stdio_output@@@__crt_stdio_output@@IAE_NXZ 1007132d f i libucrt:output.obj
 0001:0007038f       ?validate_state_for_type_case_a@?$positional_parameter_base@_WV?$stream_output_adapter@_W@__crt_stdio_output@@@__crt_stdio_output@@IAE_NXZ 1007138f f i libucrt:output.obj
 0001:000703f1       ?validate_state_for_type_case_a@?$positional_parameter_base@_WV?$string_output_adapter@_W@__crt_stdio_output@@@__crt_stdio_output@@IAE_NXZ 100713f1 f i libucrt:output.obj
 0001:00070453       ?validate_state_for_type_case_a@?$standard_base@DV?$stream_output_adapter@D@__crt_stdio_output@@@__crt_stdio_output@@IBE_NXZ 10071453 f i libucrt:output.obj
 0001:00070456       ?validate_state_for_type_case_a@?$standard_base@DV?$string_output_adapter@D@__crt_stdio_output@@@__crt_stdio_output@@IBE_NXZ 10071456 f i libucrt:output.obj
 0001:00070459       ?validate_state_for_type_case_a@?$standard_base@_WV?$stream_output_adapter@_W@__crt_stdio_output@@@__crt_stdio_output@@IBE_NXZ 10071459 f i libucrt:output.obj
 0001:0007045c       ?validate_state_for_type_case_a@?$standard_base@_WV?$string_output_adapter@_W@__crt_stdio_output@@@__crt_stdio_output@@IBE_NXZ 1007145c f i libucrt:output.obj
 0001:0007045f       ?validate_stream_is_ansi_if_required@?$__acrt_stdio_char_traits@D@@SA_NQAU_iobuf@@@Z 1007145f f i libucrt:output.obj
 0001:00070507       ?validate_stream_is_ansi_if_required@?$__acrt_stdio_char_traits@_W@@SA_NQAU_iobuf@@@Z 10071507 f i libucrt:output.obj
 0001:0007050a       ?wide_null_string@?$output_processor@DV?$stream_output_adapter@D@__crt_stdio_output@@V?$format_validation_base@DV?$stream_output_adapter@D@__crt_stdio_output@@@2@@__crt_stdio_output@@CAPA_WXZ 1007150a f i libucrt:output.obj
 0001:00070510       ?wide_null_string@?$output_processor@DV?$stream_output_adapter@D@__crt_stdio_output@@V?$positional_parameter_base@DV?$stream_output_adapter@D@__crt_stdio_output@@@2@@__crt_stdio_output@@CAPA_WXZ 10071510 f i libucrt:output.obj
 0001:00070516       ?wide_null_string@?$output_processor@DV?$stream_output_adapter@D@__crt_stdio_output@@V?$standard_base@DV?$stream_output_adapter@D@__crt_stdio_output@@@2@@__crt_stdio_output@@CAPA_WXZ 10071516 f i libucrt:output.obj
 0001:0007051c       ?wide_null_string@?$output_processor@DV?$string_output_adapter@D@__crt_stdio_output@@V?$format_validation_base@DV?$string_output_adapter@D@__crt_stdio_output@@@2@@__crt_stdio_output@@CAPA_WXZ 1007151c f i libucrt:output.obj
 0001:00070522       ?wide_null_string@?$output_processor@DV?$string_output_adapter@D@__crt_stdio_output@@V?$positional_parameter_base@DV?$string_output_adapter@D@__crt_stdio_output@@@2@@__crt_stdio_output@@CAPA_WXZ 10071522 f i libucrt:output.obj
 0001:00070528       ?wide_null_string@?$output_processor@DV?$string_output_adapter@D@__crt_stdio_output@@V?$standard_base@DV?$string_output_adapter@D@__crt_stdio_output@@@2@@__crt_stdio_output@@CAPA_WXZ 10071528 f i libucrt:output.obj
 0001:0007052e       ?wide_null_string@?$output_processor@_WV?$stream_output_adapter@_W@__crt_stdio_output@@V?$format_validation_base@_WV?$stream_output_adapter@_W@__crt_stdio_output@@@2@@__crt_stdio_output@@CAPA_WXZ 1007152e f i libucrt:output.obj
 0001:00070534       ?wide_null_string@?$output_processor@_WV?$stream_output_adapter@_W@__crt_stdio_output@@V?$positional_parameter_base@_WV?$stream_output_adapter@_W@__crt_stdio_output@@@2@@__crt_stdio_output@@CAPA_WXZ 10071534 f i libucrt:output.obj
 0001:0007053a       ?wide_null_string@?$output_processor@_WV?$stream_output_adapter@_W@__crt_stdio_output@@V?$standard_base@_WV?$stream_output_adapter@_W@__crt_stdio_output@@@2@@__crt_stdio_output@@CAPA_WXZ 1007153a f i libucrt:output.obj
 0001:00070540       ?wide_null_string@?$output_processor@_WV?$string_output_adapter@_W@__crt_stdio_output@@V?$format_validation_base@_WV?$string_output_adapter@_W@__crt_stdio_output@@@2@@__crt_stdio_output@@CAPA_WXZ 10071540 f i libucrt:output.obj
 0001:00070546       ?wide_null_string@?$output_processor@_WV?$string_output_adapter@_W@__crt_stdio_output@@V?$positional_parameter_base@_WV?$string_output_adapter@_W@__crt_stdio_output@@@2@@__crt_stdio_output@@CAPA_WXZ 10071546 f i libucrt:output.obj
 0001:0007054c       ?wide_null_string@?$output_processor@_WV?$string_output_adapter@_W@__crt_stdio_output@@V?$standard_base@_WV?$string_output_adapter@_W@__crt_stdio_output@@@2@@__crt_stdio_output@@CAPA_WXZ 1007154c f i libucrt:output.obj
 0001:00070552       ?write_character@?$output_adapter_common@DV?$stream_output_adapter@D@__crt_stdio_output@@@__crt_stdio_output@@QBEXDQAH@Z 10071552 f i libucrt:output.obj
 0001:00070578       ?write_character@?$output_adapter_common@_WV?$stream_output_adapter@_W@__crt_stdio_output@@@__crt_stdio_output@@QBEX_WQAH@Z 10071578 f i libucrt:output.obj
 0001:0007059e       ?write_character@?$string_output_adapter@D@__crt_stdio_output@@QBE_NDQAH@Z 1007159e f i libucrt:output.obj
 0001:000705f0       ?write_character@?$string_output_adapter@_W@__crt_stdio_output@@QBE_N_WQAH@Z 100715f0 f i libucrt:output.obj
 0001:00070646       ?write_character_without_count_update@?$stream_output_adapter@D@__crt_stdio_output@@QBE_ND@Z 10071646 f i libucrt:output.obj
 0001:00070689       ?write_character_without_count_update@?$stream_output_adapter@_W@__crt_stdio_output@@QBE_N_W@Z 10071689 f i libucrt:output.obj
 0001:000706d0       ?write_stored_string_tchar@?$output_processor@DV?$stream_output_adapter@D@__crt_stdio_output@@V?$format_validation_base@DV?$stream_output_adapter@D@__crt_stdio_output@@@2@@__crt_stdio_output@@AAE_ND@Z 100716d0 f i libucrt:output.obj
 0001:000707a3       ?write_stored_string_tchar@?$output_processor@DV?$stream_output_adapter@D@__crt_stdio_output@@V?$positional_parameter_base@DV?$stream_output_adapter@D@__crt_stdio_output@@@2@@__crt_stdio_output@@AAE_ND@Z 100717a3 f i libucrt:output.obj
 0001:00070876       ?write_stored_string_tchar@?$output_processor@DV?$stream_output_adapter@D@__crt_stdio_output@@V?$standard_base@DV?$stream_output_adapter@D@__crt_stdio_output@@@2@@__crt_stdio_output@@AAE_ND@Z 10071876 f i libucrt:output.obj
 0001:00070949       ?write_stored_string_tchar@?$output_processor@DV?$string_output_adapter@D@__crt_stdio_output@@V?$format_validation_base@DV?$string_output_adapter@D@__crt_stdio_output@@@2@@__crt_stdio_output@@AAE_ND@Z 10071949 f i libucrt:output.obj
 0001:00070a1c       ?write_stored_string_tchar@?$output_processor@DV?$string_output_adapter@D@__crt_stdio_output@@V?$positional_parameter_base@DV?$string_output_adapter@D@__crt_stdio_output@@@2@@__crt_stdio_output@@AAE_ND@Z 10071a1c f i libucrt:output.obj
 0001:00070aef       ?write_stored_string_tchar@?$output_processor@DV?$string_output_adapter@D@__crt_stdio_output@@V?$standard_base@DV?$string_output_adapter@D@__crt_stdio_output@@@2@@__crt_stdio_output@@AAE_ND@Z 10071aef f i libucrt:output.obj
 0001:00070bc2       ?write_stored_string_tchar@?$output_processor@_WV?$stream_output_adapter@_W@__crt_stdio_output@@V?$format_validation_base@_WV?$stream_output_adapter@_W@__crt_stdio_output@@@2@@__crt_stdio_output@@AAE_N_W@Z 10071bc2 f i libucrt:output.obj
 0001:00070c7c       ?write_stored_string_tchar@?$output_processor@_WV?$stream_output_adapter@_W@__crt_stdio_output@@V?$positional_parameter_base@_WV?$stream_output_adapter@_W@__crt_stdio_output@@@2@@__crt_stdio_output@@AAE_N_W@Z 10071c7c f i libucrt:output.obj
 0001:00070d36       ?write_stored_string_tchar@?$output_processor@_WV?$stream_output_adapter@_W@__crt_stdio_output@@V?$standard_base@_WV?$stream_output_adapter@_W@__crt_stdio_output@@@2@@__crt_stdio_output@@AAE_N_W@Z 10071d36 f i libucrt:output.obj
 0001:00070df0       ?write_stored_string_tchar@?$output_processor@_WV?$string_output_adapter@_W@__crt_stdio_output@@V?$format_validation_base@_WV?$string_output_adapter@_W@__crt_stdio_output@@@2@@__crt_stdio_output@@AAE_N_W@Z 10071df0 f i libucrt:output.obj
 0001:00070eaa       ?write_stored_string_tchar@?$output_processor@_WV?$string_output_adapter@_W@__crt_stdio_output@@V?$positional_parameter_base@_WV?$string_output_adapter@_W@__crt_stdio_output@@@2@@__crt_stdio_output@@AAE_N_W@Z 10071eaa f i libucrt:output.obj
 0001:00070f64       ?write_stored_string_tchar@?$output_processor@_WV?$string_output_adapter@_W@__crt_stdio_output@@V?$standard_base@_WV?$string_output_adapter@_W@__crt_stdio_output@@@2@@__crt_stdio_output@@AAE_N_W@Z 10071f64 f i libucrt:output.obj
 0001:0007101e       ?write_string@?$stream_output_adapter@D@__crt_stdio_output@@QBEXQBDHQAHAAV__crt_deferred_errno_cache@@@Z 1007201e f i libucrt:output.obj
 0001:00071055       ?write_string@?$stream_output_adapter@_W@__crt_stdio_output@@QBEXQB_WHQAHAAV__crt_deferred_errno_cache@@@Z 10072055 f i libucrt:output.obj
 0001:0007108c       ?write_string@?$string_output_adapter@D@__crt_stdio_output@@QBEXQBDHQAHAAV__crt_deferred_errno_cache@@@Z 1007208c f i libucrt:output.obj
 0001:0007110c       ?write_string@?$string_output_adapter@_W@__crt_stdio_output@@QBEXQB_WHQAHAAV__crt_deferred_errno_cache@@@Z 1007210c f i libucrt:output.obj
 0001:0007119b       ?write_string_impl@?$output_adapter_common@DV?$stream_output_adapter@D@__crt_stdio_output@@@__crt_stdio_output@@IBEXQBDHQAHAAV__crt_deferred_errno_cache@@@Z 1007219b f i libucrt:output.obj
 0001:00071263       ?write_string_impl@?$output_adapter_common@_WV?$stream_output_adapter@_W@__crt_stdio_output@@@__crt_stdio_output@@IBEXQB_WHQAHAAV__crt_deferred_errno_cache@@@Z 10072263 f i libucrt:output.obj
 0001:0007132e       ___acrt_isleadbyte_l_noupdate 1007232e f i libucrt:output.obj
 0001:00071353       ___acrt_locale_changed     10072353 f i libucrt:output.obj
 0001:00071360       ___acrt_locale_get_ctype_array_value 10072360 f i libucrt:output.obj
 0001:0007138a       ___stdio_common_vfprintf   1007238a f   libucrt:output.obj
 0001:00071430       ___stdio_common_vfprintf_p 10072430 f   libucrt:output.obj
 0001:000714d6       ___stdio_common_vfprintf_s 100724d6 f   libucrt:output.obj
 0001:0007157c       ___stdio_common_vfwprintf  1007257c f   libucrt:output.obj
 0001:00071622       ___stdio_common_vfwprintf_p 10072622 f   libucrt:output.obj
 0001:000716c8       ___stdio_common_vfwprintf_s 100726c8 f   libucrt:output.obj
 0001:0007176e       ___stdio_common_vsnprintf_s 1007276e f   libucrt:output.obj
 0001:0007179e       ___stdio_common_vsnwprintf_s 1007279e f   libucrt:output.obj
 0001:000717ce       ___stdio_common_vsprintf   100727ce f   libucrt:output.obj
 0001:000717fb       ___stdio_common_vsprintf_p 100727fb f   libucrt:output.obj
 0001:00071828       ___stdio_common_vsprintf_s 10072828 f   libucrt:output.obj
 0001:00071855       ___stdio_common_vswprintf  10072855 f   libucrt:output.obj
 0001:00071882       ___stdio_common_vswprintf_p 10072882 f   libucrt:output.obj
 0001:000718af       ___stdio_common_vswprintf_s 100728af f   libucrt:output.obj
 0001:000718dc       _calloc                    100728dc f   libucrt:calloc.obj
 0001:000718e9       _realloc                   100728e9 f   libucrt:realloc.obj
 0001:000718f6       ??$?B$$A6GXPAXK0@Z@__crt_fast_encoded_nullptr_t@@QBEP6GXPAXK0@ZXZ 100728f6 f i libucrt:exit.obj
 0001:00071981       ??$__crt_fast_decode_pointer@P6GXPAXK0@Z@@YAP6GXPAXK0@ZQ6GX0K0@Z@Z 10072981 f i libucrt:exit.obj
 0001:0007199c       ??$__crt_fast_encode_pointer@P6GXPAXK0@Z@@YAP6GXPAXK0@ZQ6GX0K0@Z@Z 1007299c f i libucrt:exit.obj
 0001:000719c2       ??$__crt_get_proc_address@P6GXI@Z@@YAP6GXI@ZQAUHINSTANCE__@@QBD@Z 100729c2 f i libucrt:exit.obj
 0001:00071a28       ??0?$__crt_unique_handle_t@U__crt_hmodule_traits@@@@QAE@QAUHINSTANCE__@@@Z 10072a28 f i libucrt:exit.obj
 0001:00071a3c       ??1?$__crt_unique_handle_t@U__crt_hmodule_traits@@@@QAE@XZ 10072a3c f i libucrt:exit.obj
 0001:00071b72       ?__acrt_select_exit_lock@@YA?AW4__acrt_lock_id@@XZ 10072b72 f i libucrt:exit.obj
 0001:00071b8d       ?close@?$__crt_unique_handle_t@U__crt_hmodule_traits@@@@QAEXXZ 10072b8d f i libucrt:exit.obj
 0001:00071ba9       ?close@__crt_hmodule_traits@@SA_NPAUHINSTANCE__@@@Z 10072ba9 f i libucrt:exit.obj
 0001:00071c94       ?get@?$__crt_unique_handle_t@U__crt_hmodule_traits@@@@QBEPAUHINSTANCE__@@XZ 10072c94 f i libucrt:exit.obj
 0001:00071c97       ?get_address_of@?$__crt_unique_handle_t@U__crt_hmodule_traits@@@@QAEPAPAUHINSTANCE__@@XZ 10072c97 f i libucrt:exit.obj
 0001:00071c9a       ?get_invalid_value@__crt_hmodule_traits@@SAPAUHINSTANCE__@@XZ 10072c9a f i libucrt:exit.obj
 0001:00071d84       __Exit                     10072d84 f   libucrt:exit.obj
 0001:00071d9f       ___acrt_initialize_thread_local_exit_callback 10072d9f f   libucrt:exit.obj
 0001:00071db1       __c_exit                   10072db1 f   libucrt:exit.obj
 0001:00071dc3       __cexit                    10072dc3 f   libucrt:exit.obj
 0001:00071dd5       __exit                     10072dd5 f   libucrt:exit.obj
 0001:00071df0       __is_c_termination_complete 10072df0 f   libucrt:exit.obj
 0001:00071df7       __register_thread_local_exe_atexit_callback 10072df7 f   libucrt:exit.obj
 0001:00071e26       _exit                      10072e26 f   libucrt:exit.obj
 0001:00071e41       _quick_exit                10072e41 f   libucrt:exit.obj
 0001:00071e60       _strncat                   10072e60 f   libucrt:strncat.obj
 0001:00071ff0       _strncpy                   10072ff0 f   libucrt:strncpy.obj
 0001:0007215d       ?is_in_use@__crt_stdio_stream@@QBE_NXZ 1007315d f i libucrt:fclose.obj
 0001:0007216c       __fclose_nolock            1007316c f   libucrt:fclose.obj
 0001:00072200       _fclose                    10073200 f   libucrt:fclose.obj
 0001:000724f7       ??$open_file@ABQBDABQBDABHPAU_iobuf@@@?$__crt_char_traits@D@@SAPAU_iobuf@@ABQBD0ABH$$QAPAU1@@Z 100734f7 f i libucrt:fopen.obj
 0001:00072522       ??$open_file@ABQB_WABQB_WABHPAU_iobuf@@@?$__crt_char_traits@_W@@SAPAU_iobuf@@ABQB_W0ABH$$QAPAU1@@Z 10073522 f i libucrt:fopen.obj
 0001:0007254d       ?unlock@__crt_stdio_stream@@QBEXXZ 1007354d f i libucrt:fopen.obj
 0001:00072558       __fsopen                   10073558 f   libucrt:fopen.obj
 0001:00072565       __wfopen                   10073565 f   libucrt:fopen.obj
 0001:00072581       __wfopen_s                 10073581 f   libucrt:fopen.obj
 0001:000725d9       __wfsopen                  100735d9 f   libucrt:fopen.obj
 0001:000725e6       _fopen                     100735e6 f   libucrt:fopen.obj
 0001:00072602       _fopen_s                   10073602 f   libucrt:fopen.obj
 0001:0007265a       ?__acrt_stdio_reset_buffer@@YAXV__crt_stdio_stream@@@Z 1007365a f i libucrt:fread.obj
 0001:00072675       ?has_any_buffer@__crt_stdio_stream@@QBE_NXZ 10073675 f i libucrt:fread.obj
 0001:00072687       ?has_any_of@__crt_stdio_stream@@QBE_NJ@Z 10073687 f i libucrt:fread.obj
 0001:000726a1       ?set_flags@__crt_stdio_stream@@QBE_NJ@Z 100736a1 f i libucrt:fread.obj
 0001:000726ce       __fread_nolock             100736ce f   libucrt:fread.obj
 0001:000726f2       __fread_nolock_s           100736f2 f   libucrt:fread.obj
 0001:00072954       _fread                     10073954 f   libucrt:fread.obj
 0001:00072978       _fread_s                   10073978 f   libucrt:fread.obj
 0001:00072c29       ?has_big_buffer@__crt_stdio_stream@@QBE_NXZ 10073c29 f i libucrt:fwrite.obj
 0001:00072c38       __fwrite_nolock            10073c38 f   libucrt:fwrite.obj
 0001:00072e1b       _fwrite                    10073e1b f   libucrt:fwrite.obj
 0001:00072f77       ??$__acrt_mbs_to_wcs_cp@U__crt_win32_buffer_internal_dynamic_resizing@@@@YAHQBDAAV?$__crt_win32_buffer@_WU__crt_win32_buffer_internal_dynamic_resizing@@@@I@Z 10073f77 f i libucrt:unlink.obj
 0001:00072f9d       ??0?$__crt_win32_buffer@_WU__crt_win32_buffer_internal_dynamic_resizing@@@@QAE@XZ 10073f9d f i libucrt:unlink.obj
 0001:00072fb8       ??1?$__crt_win32_buffer@_WU__crt_win32_buffer_internal_dynamic_resizing@@@@QAE@XZ 10073fb8 f i libucrt:unlink.obj
 0001:00072fe6       ?__acrt_get_utf8_acp_compatibility_codepage@@YAIXZ 10073fe6 f i libucrt:unlink.obj
 0001:00073037       ?_deallocate@?$__crt_win32_buffer@_WU__crt_win32_buffer_internal_dynamic_resizing@@@@AAEXXZ 10074037 f i libucrt:unlink.obj
 0001:00073057       ?allocate@?$__crt_win32_buffer@_WU__crt_win32_buffer_internal_dynamic_resizing@@@@QAEHI@Z 10074057 f i libucrt:unlink.obj
 0001:000730a5       ?allocate@__crt_win32_buffer_internal_dynamic_resizing@@SAHQAPAXIABV__crt_win32_buffer_empty_debug_info@@@Z 100740a5 f i libucrt:unlink.obj
 0001:000730cb       ?capacity@?$__crt_win32_buffer@_WU__crt_win32_buffer_internal_dynamic_resizing@@@@QBEIXZ 100740cb f i libucrt:unlink.obj
 0001:000730cf       ?data@?$__crt_win32_buffer@_WU__crt_win32_buffer_internal_dynamic_resizing@@@@QAEPA_WXZ 100740cf f i libucrt:unlink.obj
 0001:000730d3       ?deallocate@__crt_win32_buffer_internal_dynamic_resizing@@SAXQAXABV__crt_win32_buffer_empty_debug_info@@@Z 100740d3 f i libucrt:unlink.obj
 0001:000730e7       ?debug_info@?$__crt_win32_buffer@_WU__crt_win32_buffer_internal_dynamic_resizing@@@@QBEABV__crt_win32_buffer_empty_debug_info@@XZ 100740e7 f i libucrt:unlink.obj
 0001:000730ea       ?set_to_nullptr@?$__crt_win32_buffer@_WU__crt_win32_buffer_internal_dynamic_resizing@@@@QAEXXZ 100740ea f i libucrt:unlink.obj
 0001:00073106       ?size@?$__crt_win32_buffer@_WU__crt_win32_buffer_internal_dynamic_resizing@@@@QAEXI@Z 10074106 f i libucrt:unlink.obj
 0001:00073118       __unlink                   10074118 f   libucrt:unlink.obj
 0001:00073125       _remove                    10074125 f   libucrt:unlink.obj
 0001:000731ac       ?has_all_of@__crt_stdio_stream@@QBE_NJ@Z 100741ac f i libucrt:rewind.obj
 0001:000731ca       ?unset_flags@__crt_stdio_stream@@QBE_NJ@Z 100741ca f i libucrt:rewind.obj
 0001:000731fd       _rewind                    100741fd f   libucrt:rewind.obj
 0001:000732f0       _ldexp                     100742f0 f   libucrt:ldexp.obj
 0001:00073570       __CIfmod                   10074570 f   libucrt:87fmod_impl.obj
 0001:00073580       __fFMOD                    10074580 f   libucrt:87fmod_impl.obj
 0001:00073595       ?eof@__crt_stdio_stream@@QBE_NXZ 10074595 f i libucrt:feoferr.obj
 0001:000735a4       ?error@__crt_stdio_stream@@QBE_NXZ 100745a4 f i libucrt:feoferr.obj
 0001:000735b3       _feof                      100745b3 f   libucrt:feoferr.obj
 0001:000735ea       _ferror                    100745ea f   libucrt:feoferr.obj
 0001:000737eb       ??$getc_nolock@PAU_iobuf@@@?$__crt_char_traits@D@@SAH$$QAPAU_iobuf@@@Z 100747eb f i libucrt:fgets.obj
 0001:00073801       ??$getc_nolock@PAU_iobuf@@@?$__crt_char_traits@_W@@SAG$$QAPAU_iobuf@@@Z 10074801 f i libucrt:fgets.obj
 0001:00073817       _fgets                     10074817 f   libucrt:fgets.obj
 0001:00073824       _fgetws                    10074824 f   libucrt:fgets.obj
 0001:00073831       ?LongLongSub@@YAJ_J0PA_J@Z 10074831 f i libucrt:fseek.obj
 0001:00073b8e       ?lowio_handle@__crt_stdio_stream@@QBEHXZ 10074b8e f i libucrt:fseek.obj
 0001:00073b95       __fseek_nolock             10074b95 f   libucrt:fseek.obj
 0001:00073bb6       __fseeki64                 10074bb6 f   libucrt:fseek.obj
 0001:00073bd7       __fseeki64_nolock          10074bd7 f   libucrt:fseek.obj
 0001:00073bf8       _fseek                     10074bf8 f   libucrt:fseek.obj
 0001:000744ee       ?ctrl_z@__crt_stdio_stream@@QBE_NXZ 100754ee f i libucrt:ftell.obj
 0001:000744fd       ?has_crt_buffer@__crt_stdio_stream@@QBE_NXZ 100754fd f i libucrt:ftell.obj
 0001:0007450c       ?has_setvbuf_buffer@__crt_stdio_stream@@QBE_NXZ 1007550c f i libucrt:ftell.obj
 0001:0007451b       __ftell_nolock             1007551b f   libucrt:ftell.obj
 0001:00074528       __ftelli64                 10075528 f   libucrt:ftell.obj
 0001:00074535       __ftelli64_nolock          10075535 f   libucrt:ftell.obj
 0001:00074542       __utf8_no_of_trailbytes    10075542 f i libucrt:ftell.obj
 0001:00074557       _ftell                     10075557 f   libucrt:ftell.obj
 0001:00074585       ___acrt_get_locale_data_prefix 10075585 f i libucrt:_ctype.obj
 0001:00074594       ___isascii                 10075594 f i libucrt:_ctype.obj
 0001:000745aa       ___iscsym                  100755aa f i libucrt:_ctype.obj
 0001:000745d4       ___iscsymf                 100755d4 f i libucrt:_ctype.obj
 0001:000745fa       ___toascii                 100755fa f i libucrt:_ctype.obj
 0001:0007460a       __chvalidchk_l             1007560a f i libucrt:_ctype.obj
 0001:0007463c       __isalnum_l                1007563c f i libucrt:_ctype.obj
 0001:00074685       __isalpha_l                10075685 f i libucrt:_ctype.obj
 0001:000746ce       __isblank_l                100756ce f i libucrt:_ctype.obj
 0001:00074721       __ischartype_l             10075721 f i libucrt:_ctype.obj
 0001:00074760       __iscntrl_l                10075760 f i libucrt:_ctype.obj
 0001:000747a6       __iscsym_l                 100757a6 f i libucrt:_ctype.obj
 0001:000747d1       __iscsymf_l                100757d1 f i libucrt:_ctype.obj
 0001:000747fc       __isdigit_l                100757fc f i libucrt:_ctype.obj
 0001:00074842       __isgraph_l                10075842 f i libucrt:_ctype.obj
 0001:0007488b       __islower_l                1007588b f i libucrt:_ctype.obj
 0001:000748d1       __isprint_l                100758d1 f i libucrt:_ctype.obj
 0001:0007491a       __ispunct_l                1007591a f i libucrt:_ctype.obj
 0001:00074960       __isspace_l                10075960 f i libucrt:_ctype.obj
 0001:000749a6       __isupper_l                100759a6 f i libucrt:_ctype.obj
 0001:000749ec       __isxdigit_l               100759ec f i libucrt:_ctype.obj
 0001:00074a35       _isalnum                   10075a35 f i libucrt:_ctype.obj
 0001:00074a76       _isalpha                   10075a76 f i libucrt:_ctype.obj
 0001:00074ab7       _isblank                   10075ab7 f i libucrt:_ctype.obj
 0001:00074aff       _iscntrl                   10075aff f i libucrt:_ctype.obj
 0001:00074b3c       _isdigit                   10075b3c f i libucrt:_ctype.obj
 0001:00074b79       _isgraph                   10075b79 f i libucrt:_ctype.obj
 0001:00074bba       _islower                   10075bba f i libucrt:_ctype.obj
 0001:00074bf7       _isprint                   10075bf7 f i libucrt:_ctype.obj
 0001:00074c38       _ispunct                   10075c38 f i libucrt:_ctype.obj
 0001:00074c75       _isspace                   10075c75 f i libucrt:_ctype.obj
 0001:00074cb2       _isupper                   10075cb2 f i libucrt:_ctype.obj
 0001:00074cef       _isxdigit                  10075cef f i libucrt:_ctype.obj
 0001:00074d30       ??$__crt_fast_decode_pointer@P6AXPB_W00II@Z@@YAP6AXPB_W00II@ZQ6AX000II@Z@Z 10075d30 f i libucrt:invalid_parameter.obj
 0001:00074d4b       ??$__crt_fast_encode_pointer@P6AXPB_W00II@Z@@YAP6AXPB_W00II@ZQ6AX000II@Z@Z 10075d4b f i libucrt:invalid_parameter.obj
 0001:00074d71       ??$initialize_from_array@$$BY00Q6AXPB_W00II@Z@?$dual_state_global@P6AXPB_W00II@Z@__crt_state_management@@QAAXAAY00Q6AXPB_W00II@Z@Z 10075d71 f i libucrt:invalid_parameter.obj
 0001:00074d86       ?dangerous_get_state_array@?$dual_state_global@P6AXPB_W00II@Z@__crt_state_management@@QAEPAP6AXPB_W00II@ZXZ 10075d86 f i libucrt:invalid_parameter.obj
 0001:00074d89       ?get_current_state_index@__crt_state_management@@YAIXZ 10075d89 f i libucrt:invalid_parameter.obj
 0001:00074d8c       ?value@?$dual_state_global@P6AXPB_W00II@Z@__crt_state_management@@QAEAAP6AXPB_W00II@ZXZ 10075d8c f i libucrt:invalid_parameter.obj
 0001:00074d8f       ___acrt_call_reportfault   10075d8f f   libucrt:invalid_parameter.obj
 0001:00074f18       ___acrt_initialize_invalid_parameter_handler 10075f18 f   libucrt:invalid_parameter.obj
 0001:00074f2a       __get_invalid_parameter_handler 10075f2a f   libucrt:invalid_parameter.obj
 0001:00074f41       __get_thread_local_invalid_parameter_handler 10075f41 f   libucrt:invalid_parameter.obj
 0001:00074f56       __invalid_parameter        10075f56 f   libucrt:invalid_parameter.obj
 0001:00074fd3       __invalid_parameter_noinfo 10075fd3 f   libucrt:invalid_parameter.obj
 0001:00074fe7       __invalid_parameter_noinfo_noreturn 10075fe7 f   libucrt:invalid_parameter.obj
 0001:0007500b       __invoke_watson            1007600b f   libucrt:invalid_parameter.obj
 0001:0007504c       __set_invalid_parameter_handler 1007604c f   libucrt:invalid_parameter.obj
 0001:00075088       __set_thread_local_invalid_parameter_handler 10076088 f   libucrt:invalid_parameter.obj
 0001:000750ac       ___acrt_errno_from_os_error 100760ac f   libucrt:errno.obj
 0001:000750ff       ___acrt_errno_map_os_error 100760ff f   libucrt:errno.obj
 0001:0007512a       ___doserrno                1007612a f   libucrt:errno.obj
 0001:00075141       __errno                    10076141 f   libucrt:errno.obj
 0001:00075158       __get_doserrno             10076158 f   libucrt:errno.obj
 0001:00075186       __get_errno                10076186 f   libucrt:errno.obj
 0001:000751b4       __set_doserrno             100761b4 f   libucrt:errno.obj
 0001:000751dd       __set_errno                100761dd f   libucrt:errno.obj
 0001:00075210       _strcspn                   10076210 f   libucrt:strcspn.obj
 0001:00075267       ??$is_overflow_condition@K@__crt_strtox@@YA_NIK@Z 10076267 f i libucrt:strtox.obj
 0001:000752a4       ??$is_overflow_condition@_K@__crt_strtox@@YA_NI_K@Z 100762a4 f i libucrt:strtox.obj
 0001:000752f5       ??$make_c_string_character_source@DPAPAD@__crt_strtox@@YA?AV?$c_string_character_source@D@0@QBDQAPAD@Z 100762f5 f i libucrt:strtox.obj
 0001:00075316       ??$make_c_string_character_source@_WPAPA_W@__crt_strtox@@YA?AV?$c_string_character_source@_W@0@QB_WQAPA_W@Z 10076316 f i libucrt:strtox.obj
 0001:00075337       ??$parse_integer@KV?$c_string_character_source@D@__crt_strtox@@@__crt_strtox@@YAKQAU__crt_locale_pointers@@V?$c_string_character_source@D@0@H_N@Z 10076337 f i libucrt:strtox.obj
 0001:000755e7       ??$parse_integer@KV?$c_string_character_source@_W@__crt_strtox@@@__crt_strtox@@YAKQAU__crt_locale_pointers@@V?$c_string_character_source@_W@0@H_N@Z 100765e7 f i libucrt:strtox.obj
 0001:00075db9       ??$parse_integer@_KV?$c_string_character_source@D@__crt_strtox@@@__crt_strtox@@YA_KQAU__crt_locale_pointers@@V?$c_string_character_source@D@0@H_N@Z 10076db9 f i libucrt:strtox.obj
 0001:0007610b       ??$parse_integer@_KV?$c_string_character_source@_W@__crt_strtox@@@__crt_strtox@@YA_KQAU__crt_locale_pointers@@V?$c_string_character_source@_W@0@H_N@Z 1007710b f i libucrt:strtox.obj
 0001:000769da       ??$parse_integer_from_string@JDPAPAD@__crt_strtox@@YAJQBDQAPADHQAU__crt_locale_pointers@@@Z 100779da f i libucrt:strtox.obj
 0001:00076a12       ??$parse_integer_from_string@J_WPAPA_W@__crt_strtox@@YAJQB_WQAPA_WHQAU__crt_locale_pointers@@@Z 10077a12 f i libucrt:strtox.obj
 0001:00076a4a       ??$parse_integer_from_string@KDPAPAD@__crt_strtox@@YAKQBDQAPADHQAU__crt_locale_pointers@@@Z 10077a4a f i libucrt:strtox.obj
 0001:00076a82       ??$parse_integer_from_string@K_WPAPA_W@__crt_strtox@@YAKQB_WQAPA_WHQAU__crt_locale_pointers@@@Z 10077a82 f i libucrt:strtox.obj
 0001:00076aba       ??$parse_integer_from_string@_JDPAPAD@__crt_strtox@@YA_JQBDQAPADHQAU__crt_locale_pointers@@@Z 10077aba f i libucrt:strtox.obj
 0001:00076af2       ??$parse_integer_from_string@_J_WPAPA_W@__crt_strtox@@YA_JQB_WQAPA_WHQAU__crt_locale_pointers@@@Z 10077af2 f i libucrt:strtox.obj
 0001:00076b2a       ??$parse_integer_from_string@_KDPAPAD@__crt_strtox@@YA_KQBDQAPADHQAU__crt_locale_pointers@@@Z 10077b2a f i libucrt:strtox.obj
 0001:00076b62       ??$parse_integer_from_string@_K_WPAPA_W@__crt_strtox@@YA_KQB_WQAPA_WHQAU__crt_locale_pointers@@@Z 10077b62 f i libucrt:strtox.obj
 0001:00076b9a       ??0?$c_string_character_source@D@__crt_strtox@@QAE@QBDQAPBD@Z 10077b9a f i libucrt:strtox.obj
 0001:00076bbd       ??0?$c_string_character_source@_W@__crt_strtox@@QAE@QB_WQAPB_W@Z 10077bbd f i libucrt:strtox.obj
 0001:00076be0       ??1?$c_string_character_source@D@__crt_strtox@@QAE@XZ 10077be0 f i libucrt:strtox.obj
 0001:00076bef       ??1?$c_string_character_source@_W@__crt_strtox@@QAE@XZ 10077bef f i libucrt:strtox.obj
 0001:00076bfe       ?get@?$c_string_character_source@D@__crt_strtox@@QAEDXZ 10077bfe f i libucrt:strtox.obj
 0001:00076c08       ?get@?$c_string_character_source@_W@__crt_strtox@@QAE_WXZ 10077c08 f i libucrt:strtox.obj
 0001:00076c15       ?is_space@__crt_strtox@@YA_NDQAU__crt_locale_pointers@@@Z 10077c15 f i libucrt:strtox.obj
 0001:00076c3a       ?is_space@__crt_strtox@@YA_N_WPAU__crt_locale_pointers@@@Z 10077c3a f i libucrt:strtox.obj
 0001:00076c58       ?maximum_signed_value@__crt_strtox@@YAJK@Z 10077c58 f i libucrt:strtox.obj
 0001:00076c5e       ?maximum_signed_value@__crt_strtox@@YA_J_K@Z 10077c5e f i libucrt:strtox.obj
 0001:00076c69       ?minimum_signed_value@__crt_strtox@@YAJK@Z 10077c69 f i libucrt:strtox.obj
 0001:00076c6f       ?minimum_signed_value@__crt_strtox@@YA_J_K@Z 10077c6f f i libucrt:strtox.obj
 0001:00076c79       ?parse_digit@__crt_strtox@@YAID@Z 10077c79 f i libucrt:strtox.obj
 0001:00076cc1       ?parse_digit@__crt_strtox@@YAI_W@Z 10077cc1 f i libucrt:strtox.obj
 0001:00076f2b       ?restore_state@?$c_string_character_source@D@__crt_strtox@@QAE_NQBD@Z 10077f2b f i libucrt:strtox.obj
 0001:00076f3f       ?restore_state@?$c_string_character_source@_W@__crt_strtox@@QAE_NQB_W@Z 10077f3f f i libucrt:strtox.obj
 0001:00076f53       ?save_state@?$c_string_character_source@D@__crt_strtox@@QBEPBDXZ 10077f53 f i libucrt:strtox.obj
 0001:00076f56       ?save_state@?$c_string_character_source@_W@__crt_strtox@@QBEPB_WXZ 10077f56 f i libucrt:strtox.obj
 0001:00076f59       ?unget@?$c_string_character_source@D@__crt_strtox@@QAEXD@Z 10077f59 f i libucrt:strtox.obj
 0001:00076f8c       ?unget@?$c_string_character_source@_W@__crt_strtox@@QAEX_W@Z 10077f8c f i libucrt:strtox.obj
 0001:00076fc5       ?validate@?$c_string_character_source@D@__crt_strtox@@QBE_NXZ 10077fc5 f i libucrt:strtox.obj
 0001:00076fe6       ?validate@?$c_string_character_source@_W@__crt_strtox@@QBE_NXZ 10077fe6 f i libucrt:strtox.obj
 0001:00077007       ?wide_character_to_digit@__crt_strtox@@YAH_W@Z 10078007 f i libucrt:strtox.obj
 0001:00077210       __strtoi64                 10078210 f   libucrt:strtox.obj
 0001:00077247       __strtoi64_l               10078247 f   libucrt:strtox.obj
 0001:0007727f       __strtoimax_l              1007827f f   libucrt:strtox.obj
 0001:000772b7       __strtol_l                 100782b7 f   libucrt:strtox.obj
 0001:000772ef       __strtoll_l                100782ef f   libucrt:strtox.obj
 0001:00077327       __strtoui64                10078327 f   libucrt:strtox.obj
 0001:0007735e       __strtoui64_l              1007835e f   libucrt:strtox.obj
 0001:00077396       __strtoul_l                10078396 f   libucrt:strtox.obj
 0001:000773ce       __strtoull_l               100783ce f   libucrt:strtox.obj
 0001:00077406       __strtoumax_l              10078406 f   libucrt:strtox.obj
 0001:0007743e       __wcstoi64                 1007843e f   libucrt:strtox.obj
 0001:00077475       __wcstoi64_l               10078475 f   libucrt:strtox.obj
 0001:000774ad       __wcstoimax_l              100784ad f   libucrt:strtox.obj
 0001:000774e5       __wcstol_l                 100784e5 f   libucrt:strtox.obj
 0001:0007751d       __wcstoll_l                1007851d f   libucrt:strtox.obj
 0001:00077555       __wcstoui64                10078555 f   libucrt:strtox.obj
 0001:0007758c       __wcstoui64_l              1007858c f   libucrt:strtox.obj
 0001:000775c4       __wcstoul_l                100785c4 f   libucrt:strtox.obj
 0001:000775fc       __wcstoull_l               100785fc f   libucrt:strtox.obj
 0001:00077634       __wcstoumax_l              10078634 f   libucrt:strtox.obj
 0001:0007766c       _strtoimax                 1007866c f   libucrt:strtox.obj
 0001:000776a3       _strtol                    100786a3 f   libucrt:strtox.obj
 0001:000776da       _strtoll                   100786da f   libucrt:strtox.obj
 0001:00077711       _strtoul                   10078711 f   libucrt:strtox.obj
 0001:00077748       _strtoull                  10078748 f   libucrt:strtox.obj
 0001:0007777f       _strtoumax                 1007877f f   libucrt:strtox.obj
 0001:000777b6       _wcstoimax                 100787b6 f   libucrt:strtox.obj
 0001:000777ed       _wcstol                    100787ed f   libucrt:strtox.obj
 0001:00077824       _wcstoll                   10078824 f   libucrt:strtox.obj
 0001:0007785b       _wcstoul                   1007885b f   libucrt:strtox.obj
 0001:00077892       _wcstoull                  10078892 f   libucrt:strtox.obj
 0001:000778c9       _wcstoumax                 100788c9 f   libucrt:strtox.obj
 0001:00077900       _frexp                     10078900 f   libucrt:frexp.obj
 0001:00077a56       __get_terminate            10078a56 f   libucrt:terminate.obj
 0001:00077a6c       _set_terminate             10078a6c f   libucrt:terminate.obj
 0001:00077a94       _terminate                 10078a94 f   libucrt:terminate.obj
 0001:00077adf       _localeconv                10078adf f   libucrt:localeconv.obj
 0001:00077c1a       __access                   10078c1a f   libucrt:access.obj
 0001:00077c38       __access_s                 10078c38 f   libucrt:access.obj
 0001:00077cd0       __libm_sse2_pow_precise    10078cd0 f   libucrt:pow_sse2_precise.obj
 0001:00078af4       __errcode                  10079af4 f   libucrt:fpexcept.obj
 0001:00078b35       __except1                  10079b35 f   libucrt:fpexcept.obj
 0001:00078c36       __except2                  10079c36 f   libucrt:fpexcept.obj
 0001:00078d7f       __handle_exc               10079d7f f   libucrt:fpexcept.obj
 0001:00078fe7       __handle_qnan2             10079fe7 f   libucrt:fpexcept.obj
 0001:00078ff7       __raise_exc                10079ff7 f   libucrt:fpexcept.obj
 0001:00079022       __raise_exc_ex             1007a022 f   libucrt:fpexcept.obj
 0001:000793d5       __raise_excf               1007a3d5 f   libucrt:fpexcept.obj
 0001:00079400       __set_errno_from_matherr   1007a400 f   libucrt:fpexcept.obj
 0001:0007943a       __umatherr                 1007a43a f   libucrt:fpexcept.obj
 0001:00079504       __initterm                 1007a504 f   libucrt:initterm.obj
 0001:0007955c       __initterm_e               1007a55c f   libucrt:initterm.obj
 0001:00079595       ??$?B$$A6AHI@Z@__crt_fast_encoded_nullptr_t@@QBEP6AHI@ZXZ 1007a595 f i libucrt:new_handler.obj
 0001:0007959b       ??$__crt_fast_decode_pointer@P6AHI@Z@@YAP6AHI@ZQ6AHI@Z@Z 1007a59b f i libucrt:new_handler.obj
 0001:000795b6       ??$__crt_fast_encode_pointer@P6AHI@Z@@YAP6AHI@ZQ6AHI@Z@Z 1007a5b6 f i libucrt:new_handler.obj
 0001:000795dc       ?_set_new_handler@@YAP6AHI@ZH@Z 1007a5dc f   libucrt:new_handler.obj
 0001:000795ec       ?initialize@?$dual_state_global@P6AHI@Z@__crt_state_management@@QAEXQ6AHI@Z@Z 1007a5ec f i libucrt:new_handler.obj
 0001:0007961b       ?value@?$dual_state_global@P6AHI@Z@__crt_state_management@@QAEAAP6AHI@ZXZ 1007a61b f i libucrt:new_handler.obj
 0001:0007961e       ___acrt_initialize_new_handler 1007a61e f   libucrt:new_handler.obj
 0001:00079630       __callnewh                 1007a630 f   libucrt:new_handler.obj
 0001:00079668       __query_new_handler        1007a668 f   libucrt:new_handler.obj
 0001:000796ce       __set_new_handler          1007a6ce f   libucrt:new_handler.obj
 0001:00079773       __seh_filter_dll           1007a773 f   libucrt:exception_filter.obj
 0001:0007979b       __seh_filter_exe           1007a79b f   libucrt:exception_filter.obj
 0001:0007994b       ??$?RE@__crt_internal_free_policy@@QBEXQBE@Z 1007a94b f i libucrt:argv_parsing.obj
 0001:00079961       ??$?RPAD@__crt_internal_free_policy@@QBEXQBQAD@Z 1007a961 f i libucrt:argv_parsing.obj
 0001:00079977       ??$?RPA_W@__crt_internal_free_policy@@QBEXQBQA_W@Z 1007a977 f i libucrt:argv_parsing.obj
 0001:00079c90       ??$get_module_file_name@$$TAAY0BAF@DH@?$__crt_char_traits@D@@SAK$$QA$$TAAY0BAF@D$$QAH@Z 1007ac90 f i libucrt:argv_parsing.obj
 0001:00079cb3       ??$get_module_file_name@$$TAAY0BAF@_WH@?$__crt_char_traits@_W@@SAK$$QA$$TAAY0BAF@_W$$QAH@Z 1007acb3 f i libucrt:argv_parsing.obj
 0001:0007a0a6       ??$set_program_name@PAD@?$__crt_char_traits@D@@SAX$$QAPAD@Z 1007b0a6 f i libucrt:argv_parsing.obj
 0001:0007a0bb       ??$set_program_name@PA_W@?$__crt_char_traits@_W@@SAX$$QAPA_W@Z 1007b0bb f i libucrt:argv_parsing.obj
 0001:0007a0f8       ??0?$__crt_unique_heap_ptr@EU__crt_internal_free_policy@@@@QAE@QAE@Z 1007b0f8 f i libucrt:argv_parsing.obj
 0001:0007a10c       ??0?$__crt_unique_heap_ptr@PADU__crt_internal_free_policy@@@@QAE@QAPAD@Z 1007b10c f i libucrt:argv_parsing.obj
 0001:0007a120       ??0?$__crt_unique_heap_ptr@PA_WU__crt_internal_free_policy@@@@QAE@QAPA_W@Z 1007b120 f i libucrt:argv_parsing.obj
 0001:0007a134       ??1?$__crt_unique_heap_ptr@EU__crt_internal_free_policy@@@@QAE@XZ 1007b134 f i libucrt:argv_parsing.obj
 0001:0007a14a       ??1?$__crt_unique_heap_ptr@PADU__crt_internal_free_policy@@@@QAE@XZ 1007b14a f i libucrt:argv_parsing.obj
 0001:0007a160       ??1?$__crt_unique_heap_ptr@PA_WU__crt_internal_free_policy@@@@QAE@XZ 1007b160 f i libucrt:argv_parsing.obj
 0001:0007a176       ??B?$__crt_unique_heap_ptr@EU__crt_internal_free_policy@@@@QBE_NXZ 1007b176 f i libucrt:argv_parsing.obj
 0001:0007a1b3       ?detach@?$__crt_unique_heap_ptr@EU__crt_internal_free_policy@@@@QAEPAEXZ 1007b1b3 f i libucrt:argv_parsing.obj
 0001:0007a1b9       ?detach@?$__crt_unique_heap_ptr@PADU__crt_internal_free_policy@@@@QAEPAPADXZ 1007b1b9 f i libucrt:argv_parsing.obj
 0001:0007a1bf       ?detach@?$__crt_unique_heap_ptr@PA_WU__crt_internal_free_policy@@@@QAEPAPA_WXZ 1007b1bf f i libucrt:argv_parsing.obj
 0001:0007a1e7       ?get@?$__crt_unique_heap_ptr@EU__crt_internal_free_policy@@@@QBEPAEXZ 1007b1e7 f i libucrt:argv_parsing.obj
 0001:0007a1ea       ?get@?$__crt_unique_heap_ptr@PADU__crt_internal_free_policy@@@@QBEPAPADXZ 1007b1ea f i libucrt:argv_parsing.obj
 0001:0007a1ed       ?get@?$__crt_unique_heap_ptr@PA_WU__crt_internal_free_policy@@@@QBEPAPA_WXZ 1007b1ed f i libucrt:argv_parsing.obj
 0001:0007a1f0       ?get_address_of@?$__crt_unique_heap_ptr@PADU__crt_internal_free_policy@@@@QAEPAPAPADXZ 1007b1f0 f i libucrt:argv_parsing.obj
 0001:0007a1f3       ?get_address_of@?$__crt_unique_heap_ptr@PA_WU__crt_internal_free_policy@@@@QAEPAPAPA_WXZ 1007b1f3 f i libucrt:argv_parsing.obj
 0001:0007a20e       ?is_valid@?$__crt_unique_heap_ptr@EU__crt_internal_free_policy@@@@QBE_NXZ 1007b20e f i libucrt:argv_parsing.obj
 0001:0007a215       ?release@?$__crt_unique_heap_ptr@EU__crt_internal_free_policy@@@@QAEXXZ 1007b215 f i libucrt:argv_parsing.obj
 0001:0007a22b       ?release@?$__crt_unique_heap_ptr@PADU__crt_internal_free_policy@@@@QAEXXZ 1007b22b f i libucrt:argv_parsing.obj
 0001:0007a241       ?release@?$__crt_unique_heap_ptr@PA_WU__crt_internal_free_policy@@@@QAEXXZ 1007b241 f i libucrt:argv_parsing.obj
 0001:0007a276       ___acrt_allocate_buffer_for_argv 1007b276 f   libucrt:argv_parsing.obj
 0001:0007a2d8       __configure_narrow_argv    1007b2d8 f   libucrt:argv_parsing.obj
 0001:0007a2e5       __configure_wide_argv      1007b2e5 f   libucrt:argv_parsing.obj
 0001:0007a2f2       __set_pgmptr               1007b2f2 f i libucrt:argv_parsing.obj
 0001:0007a304       __set_wpgmptr              1007b304 f i libucrt:argv_parsing.obj
 0001:0007a316       ??$?R_W@__crt_internal_free_policy@@QBEXQB_W@Z 1007b316 f i libucrt:environment_initialization.obj
 0001:0007a7fc       ??$get_environment_from_os@$$V@?$__crt_char_traits@D@@SAPADXZ 1007b7fc f i libucrt:environment_initialization.obj
 0001:0007a801       ??$get_environment_from_os@$$V@?$__crt_char_traits@_W@@SAPA_WXZ 1007b801 f i libucrt:environment_initialization.obj
 0001:0007a945       ??$set_variable_in_environment_nolock@PADH@?$__crt_char_traits@D@@SAH$$QAPAD$$QAH@Z 1007b945 f i libucrt:environment_initialization.obj
 0001:0007a963       ??$set_variable_in_environment_nolock@PA_WH@?$__crt_char_traits@_W@@SAH$$QAPA_W$$QAH@Z 1007b963 f i libucrt:environment_initialization.obj
 0001:0007a981       ??$tcscpy_s@PADABIAAPAD@?$__crt_char_traits@D@@SAH$$QAPADABIAAPAD@Z 1007b981 f i libucrt:environment_initialization.obj
 0001:0007a9a6       ??$tcscpy_s@PA_WABIAAPA_W@?$__crt_char_traits@_W@@SAH$$QAPA_WABIAAPA_W@Z 1007b9a6 f i libucrt:environment_initialization.obj
 0001:0007a9cb       ??$tcslen@AAPAD@?$__crt_char_traits@D@@SAIAAPAD@Z 1007b9cb f i libucrt:environment_initialization.obj
 0001:0007a9e9       ??$tcslen@AAPA_W@?$__crt_char_traits@_W@@SAIAAPA_W@Z 1007b9e9 f i libucrt:environment_initialization.obj
 0001:0007aa0e       ??$uninitialize@A6AXAAPAPAD@Z@?$dual_state_global@PAPAD@__crt_state_management@@QAEXA6AXAAPAPAD@Z@Z 1007ba0e f i libucrt:environment_initialization.obj
 0001:0007aa41       ??$uninitialize@A6AXAAPAPA_W@Z@?$dual_state_global@PAPA_W@__crt_state_management@@QAEXA6AXAAPAPA_W@Z@Z 1007ba41 f i libucrt:environment_initialization.obj
 0001:0007aab6       ??0?$__crt_unique_heap_ptr@_WU__crt_internal_free_policy@@@@QAE@QA_W@Z 1007bab6 f i libucrt:environment_initialization.obj
 0001:0007aaca       ??1?$__crt_unique_heap_ptr@_WU__crt_internal_free_policy@@@@QAE@XZ 1007baca f i libucrt:environment_initialization.obj
 0001:0007aae0       ??B?$__crt_unique_heap_ptr@PADU__crt_internal_free_policy@@@@QBE_NXZ 1007bae0 f i libucrt:environment_initialization.obj
 0001:0007aae7       ??B?$__crt_unique_heap_ptr@PA_WU__crt_internal_free_policy@@@@QBE_NXZ 1007bae7 f i libucrt:environment_initialization.obj
 0001:0007aaee       ??B?$__crt_unique_heap_ptr@_WU__crt_internal_free_policy@@@@QBE_NXZ 1007baee f i libucrt:environment_initialization.obj
 0001:0007aaf5       ?__crt_compute_required_transform_buffer_count@@YAIIQBD@Z 1007baf5 f i libucrt:environment_initialization.obj
 0001:0007ab18       ?__crt_compute_required_transform_buffer_count@@YAIIQB_W@Z 1007bb18 f i libucrt:environment_initialization.obj
 0001:0007ab3d       ?__crt_transform_string@@YAIIQBDQA_WI@Z 1007bb3d f i libucrt:environment_initialization.obj
 0001:0007ab63       ?__crt_transform_string@@YAIIQB_WQADI@Z 1007bb63 f i libucrt:environment_initialization.obj
 0001:0007ab8d       ?detach@?$__crt_unique_heap_ptr@DU__crt_internal_free_policy@@@@QAEPADXZ 1007bb8d f i libucrt:environment_initialization.obj
 0001:0007ab93       ?detach@?$__crt_unique_heap_ptr@_WU__crt_internal_free_policy@@@@QAEPA_WXZ 1007bb93 f i libucrt:environment_initialization.obj
 0001:0007ab99       ?get@?$__crt_unique_heap_ptr@_WU__crt_internal_free_policy@@@@QBEPA_WXZ 1007bb99 f i libucrt:environment_initialization.obj
 0001:0007abc0       ?initialize@?$dual_state_global@PAPAD@__crt_state_management@@QAEXQAPAD@Z 1007bbc0 f i libucrt:environment_initialization.obj
 0001:0007abef       ?initialize@?$dual_state_global@PAPA_W@__crt_state_management@@QAEXQAPA_W@Z 1007bbef f i libucrt:environment_initialization.obj
 0001:0007ac1e       ?is_valid@?$__crt_unique_heap_ptr@PADU__crt_internal_free_policy@@@@QBE_NXZ 1007bc1e f i libucrt:environment_initialization.obj
 0001:0007ac25       ?is_valid@?$__crt_unique_heap_ptr@PA_WU__crt_internal_free_policy@@@@QBE_NXZ 1007bc25 f i libucrt:environment_initialization.obj
 0001:0007ac2c       ?is_valid@?$__crt_unique_heap_ptr@_WU__crt_internal_free_policy@@@@QBE_NXZ 1007bc2c f i libucrt:environment_initialization.obj
 0001:0007ac3b       ?release@?$__crt_unique_heap_ptr@_WU__crt_internal_free_policy@@@@QAEXXZ 1007bc3b f i libucrt:environment_initialization.obj
 0001:0007ac51       ?value@?$dual_state_global@PAPAD@__crt_state_management@@QAEAAPAPADXZ 1007bc51 f i libucrt:environment_initialization.obj
 0001:0007ac54       ?value@?$dual_state_global@PAPA_W@__crt_state_management@@QAEAAPAPA_WXZ 1007bc54 f i libucrt:environment_initialization.obj
 0001:0007ac57       ___dcrt_get_or_create_narrow_environment_nolock 1007bc57 f   libucrt:environment_initialization.obj
 0001:0007ac5c       ___dcrt_get_or_create_wide_environment_nolock 1007bc5c f   libucrt:environment_initialization.obj
 0001:0007ac61       ___dcrt_uninitialize_environments_nolock 1007bc61 f   libucrt:environment_initialization.obj
 0001:0007aca5       ___p__environ              1007bca5 f   libucrt:environment_initialization.obj
 0001:0007acab       ___p__wenviron             1007bcab f   libucrt:environment_initialization.obj
 0001:0007acb1       __get_initial_narrow_environment 1007bcb1 f   libucrt:environment_initialization.obj
 0001:0007acca       __get_initial_wide_environment 1007bcca f   libucrt:environment_initialization.obj
 0001:0007ace3       __initialize_narrow_environment 1007bce3 f   libucrt:environment_initialization.obj
 0001:0007ace8       __initialize_wide_environment 1007bce8 f   libucrt:environment_initialization.obj
 0001:0007aced       __invoke_watson_if_error   1007bced f i libucrt:environment_initialization.obj
 0001:0007ad17       ??$?BP6AXXZ@__crt_fast_encoded_nullptr_t@@QBEPAP6AXXZXZ 1007bd17 f i libucrt:onexit.obj
 0001:0007ad1d       ??$?RP6AXXZ@__crt_internal_free_policy@@QBEXQBQ6AXXZ@Z 1007bd1d f i libucrt:onexit.obj
 0001:0007ae61       ??$__crt_fast_encode_pointer@P6AHXZ@@YAP6AHXZQ6AHXZ@Z 1007be61 f i libucrt:onexit.obj
 0001:0007af0e       ??0?$__crt_unique_heap_ptr@P6AXXZU__crt_internal_free_policy@@@@QAE@QAP6AXXZ@Z 1007bf0e f i libucrt:onexit.obj
 0001:0007af22       ??1?$__crt_unique_heap_ptr@P6AXXZU__crt_internal_free_policy@@@@QAE@XZ 1007bf22 f i libucrt:onexit.obj
 0001:0007af38       ??1scoped_global_state_reset@__crt_state_management@@QAE@XZ 1007bf38 f i libucrt:onexit.obj
 0001:0007b1ef       ?detach@?$__crt_unique_heap_ptr@P6AXXZU__crt_internal_free_policy@@@@QAEPAP6AXXZXZ 1007c1ef f i libucrt:onexit.obj
 0001:0007b1f5       ?release@?$__crt_unique_heap_ptr@P6AXXZU__crt_internal_free_policy@@@@QAEXXZ 1007c1f5 f i libucrt:onexit.obj
 0001:0007b20b       __crt_at_quick_exit        1007c20b f   libucrt:onexit.obj
 0001:0007b226       __crt_atexit               1007c226 f   libucrt:onexit.obj
 0001:0007b241       __execute_onexit_table     1007c241 f   libucrt:onexit.obj
 0001:0007b27b       __initialize_onexit_table  1007c27b f   libucrt:onexit.obj
 0001:0007b2ae       __register_onexit_function 1007c2ae f   libucrt:onexit.obj
 0001:0007b466       ?__acrt_stdio_is_initialized@@YA_NXZ 1007c466 f i libucrt:initialization.obj
 0001:0007b473       ?initialize@?$dual_state_global@PAU__crt_locale_data@@@__crt_state_management@@QAEXQAU__crt_locale_data@@@Z 1007c473 f i libucrt:initialization.obj
 0001:0007b4a2       ___acrt_initialize         1007c4a2 f   libucrt:initialization.obj
 0001:0007b4b8       ___acrt_thread_attach      1007c4b8 f   libucrt:initialization.obj
 0001:0007b4c5       ___acrt_thread_detach      1007c4c5 f   libucrt:initialization.obj
 0001:0007b4cf       ___acrt_uninitialize       1007c4cf f   libucrt:initialization.obj
 0001:0007b50b       ___acrt_uninitialize_critical 1007c50b f   libucrt:initialization.obj
 0001:0007b521       ___acrt_initialize_locks   1007c521 f   libucrt:locks.obj
 0001:0007b572       ___acrt_lock               1007c572 f   libucrt:locks.obj
 0001:0007b58e       ___acrt_uninitialize_locks 1007c58e f   libucrt:locks.obj
 0001:0007b5cb       ___acrt_unlock             1007c5cb f   libucrt:locks.obj
 0001:0007b5e7       __lock_locales             1007c5e7 f   libucrt:locks.obj
 0001:0007b5f8       __unlock_locales           1007c5f8 f   libucrt:locks.obj
 0001:0007b603       ___pctype_func             1007c603 f   libucrt:ctype.obj
 0001:0007b632       ___pwctype_func            1007c632 f   libucrt:ctype.obj
 0001:0007b638       __wcsdup                   1007c638 f   libucrt:wcsdup.obj
 0001:0007b6ae       ??$?RG@__crt_internal_free_policy@@QBEXQBG@Z 1007c6ae f i libucrt:initctype.obj
 0001:0007b6c4       ??$?RJ@__crt_internal_free_policy@@QBEXQBJ@Z 1007c6c4 f i libucrt:initctype.obj
 0001:0007b6da       ??0?$__crt_unique_heap_ptr@GU__crt_internal_free_policy@@@@QAE@QAG@Z 1007c6da f i libucrt:initctype.obj
 0001:0007b6ee       ??0?$__crt_unique_heap_ptr@JU__crt_internal_free_policy@@@@QAE@QAJ@Z 1007c6ee f i libucrt:initctype.obj
 0001:0007b702       ??1?$__crt_unique_heap_ptr@GU__crt_internal_free_policy@@@@QAE@XZ 1007c702 f i libucrt:initctype.obj
 0001:0007b718       ??1?$__crt_unique_heap_ptr@JU__crt_internal_free_policy@@@@QAE@XZ 1007c718 f i libucrt:initctype.obj
 0001:0007b72e       ?detach@?$__crt_unique_heap_ptr@GU__crt_internal_free_policy@@@@QAEPAGXZ 1007c72e f i libucrt:initctype.obj
 0001:0007b734       ?detach@?$__crt_unique_heap_ptr@JU__crt_internal_free_policy@@@@QAEPAJXZ 1007c734 f i libucrt:initctype.obj
 0001:0007b73a       ?release@?$__crt_unique_heap_ptr@GU__crt_internal_free_policy@@@@QAEXXZ 1007c73a f i libucrt:initctype.obj
 0001:0007b750       ?release@?$__crt_unique_heap_ptr@JU__crt_internal_free_policy@@@@QAEXXZ 1007c750 f i libucrt:initctype.obj
 0001:0007b766       ____lc_codepage_func       1007c766 f   libucrt:initctype.obj
 0001:0007b796       ____lc_collate_cp_func     1007c796 f   libucrt:initctype.obj
 0001:0007b7c6       ____lc_locale_name_func    1007c7c6 f   libucrt:initctype.obj
 0001:0007b7f9       ____mb_cur_max_func        1007c7f9 f   libucrt:initctype.obj
 0001:0007b829       ____mb_cur_max_l_func      1007c829 f   libucrt:initctype.obj
 0001:0007b848       ___acrt_locale_initialize_ctype 1007c848 f   libucrt:initctype.obj
 0001:0007c047       __invoke_watson_if_oneof   1007d047 f i libucrt:setlocale.obj
 0001:0007c143       _setlocale                 1007d143 f   libucrt:setlocale.obj
 0001:0007c18b       ___strncnt                 1007d18b f   libucrt:strncnt.obj
 0001:0007c1ae       ??$assemble_floating_point_ind@M@__crt_strtox@@YAXAAM@Z 1007d1ae f i libucrt:strtod.obj
 0001:0007c1c2       ??$assemble_floating_point_ind@N@__crt_strtox@@YAXAAN@Z 1007d1c2 f i libucrt:strtod.obj
 0001:0007c1db       ??$assemble_floating_point_infinity@M@__crt_strtox@@YAX_NAAM@Z 1007d1db f i libucrt:strtod.obj
 0001:0007c1fa       ??$assemble_floating_point_infinity@N@__crt_strtox@@YAX_NAAN@Z 1007d1fa f i libucrt:strtod.obj
 0001:0007c21e       ??$assemble_floating_point_qnan@M@__crt_strtox@@YAX_NAAM@Z 1007d21e f i libucrt:strtod.obj
 0001:0007c23d       ??$assemble_floating_point_qnan@N@__crt_strtox@@YAX_NAAN@Z 1007d23d f i libucrt:strtod.obj
 0001:0007c261       ??$assemble_floating_point_snan@M@__crt_strtox@@YAX_NAAM@Z 1007d261 f i libucrt:strtod.obj
 0001:0007c280       ??$assemble_floating_point_snan@N@__crt_strtox@@YAX_NAAN@Z 1007d280 f i libucrt:strtod.obj
 0001:0007c2a9       ??$assemble_floating_point_value_t@M@__crt_strtox@@YA?AW4SLD_STATUS@@_NH_KAAM@Z 1007d2a9 f i libucrt:strtod.obj
 0001:0007c2e5       ??$assemble_floating_point_value_t@N@__crt_strtox@@YA?AW4SLD_STATUS@@_NH_KAAN@Z 1007d2e5 f i libucrt:strtod.obj
 0001:0007c337       ??$assemble_floating_point_zero@M@__crt_strtox@@YAX_NAAM@Z 1007d337 f i libucrt:strtod.obj
 0001:0007c34e       ??$assemble_floating_point_zero@N@__crt_strtox@@YAX_NAAN@Z 1007d34e f i libucrt:strtod.obj
 0001:0007c630       ??$convert_decimal_string_to_floating_type@M@__crt_strtox@@YA?AW4SLD_STATUS@@ABUfloating_point_string@0@AAM@Z 1007d630 f i libucrt:strtod.obj
 0001:0007c65b       ??$convert_decimal_string_to_floating_type@N@__crt_strtox@@YA?AW4SLD_STATUS@@ABUfloating_point_string@0@AAN@Z 1007d65b f i libucrt:strtod.obj
 0001:0007c686       ??$convert_hexadecimal_string_to_floating_type@M@__crt_strtox@@YA?AW4SLD_STATUS@@ABUfloating_point_string@0@AAM@Z 1007d686 f i libucrt:strtod.obj
 0001:0007c6b1       ??$convert_hexadecimal_string_to_floating_type@N@__crt_strtox@@YA?AW4SLD_STATUS@@ABUfloating_point_string@0@AAN@Z 1007d6b1 f i libucrt:strtod.obj
 0001:0007c6dc       ??$parse_floating_point@V?$c_string_character_source@D@__crt_strtox@@M@__crt_strtox@@YA?AW4SLD_STATUS@@QAU__crt_locale_pointers@@V?$c_string_character_source@D@0@QAM@Z 1007d6dc f i libucrt:strtod.obj
 0001:0007c76f       ??$parse_floating_point@V?$c_string_character_source@D@__crt_strtox@@N@__crt_strtox@@YA?AW4SLD_STATUS@@QAU__crt_locale_pointers@@V?$c_string_character_source@D@0@QAN@Z 1007d76f f i libucrt:strtod.obj
 0001:0007c802       ??$parse_floating_point@V?$c_string_character_source@_W@__crt_strtox@@M@__crt_strtox@@YA?AW4SLD_STATUS@@QAU__crt_locale_pointers@@V?$c_string_character_source@_W@0@QAM@Z 1007d802 f i libucrt:strtod.obj
 0001:0007c895       ??$parse_floating_point@V?$c_string_character_source@_W@__crt_strtox@@N@__crt_strtox@@YA?AW4SLD_STATUS@@QAU__crt_locale_pointers@@V?$c_string_character_source@_W@0@QAN@Z 1007d895 f i libucrt:strtod.obj
 0001:0007c928       ??$parse_floating_point_from_source@V?$c_string_character_source@D@__crt_strtox@@@__crt_strtox@@YA?AW4floating_point_parse_result@0@QAU__crt_locale_pointers@@AAV?$c_string_character_source@D@0@AAUfloating_point_string@0@@Z 1007d928 f i libucrt:strtod.obj
 0001:0007ce1c       ??$parse_floating_point_from_source@V?$c_string_character_source@_W@__crt_strtox@@@__crt_strtox@@YA?AW4floating_point_parse_result@0@QAU__crt_locale_pointers@@AAV?$c_string_character_source@_W@0@AAUfloating_point_string@0@@Z 1007de1c f i libucrt:strtod.obj
 0001:0007de66       ??$parse_floating_point_possible_infinity@DV?$c_string_character_source@D@__crt_strtox@@PBD@__crt_strtox@@YA?AW4floating_point_parse_result@0@AADAAV?$c_string_character_source@D@0@PBD@Z 1007ee66 f i libucrt:strtod.obj
 0001:0007df33       ??$parse_floating_point_possible_infinity@_WV?$c_string_character_source@_W@__crt_strtox@@PB_W@__crt_strtox@@YA?AW4floating_point_parse_result@0@AA_WAAV?$c_string_character_source@_W@0@PB_W@Z 1007ef33 f i libucrt:strtod.obj
 0001:0007e042       ??$parse_floating_point_possible_nan@DV?$c_string_character_source@D@__crt_strtox@@PBD@__crt_strtox@@YA?AW4floating_point_parse_result@0@AADAAV?$c_string_character_source@D@0@PBD@Z 1007f042 f i libucrt:strtod.obj
 0001:0007e197       ??$parse_floating_point_possible_nan@_WV?$c_string_character_source@_W@__crt_strtox@@PB_W@__crt_strtox@@YA?AW4floating_point_parse_result@0@AA_WAAV?$c_string_character_source@_W@0@PB_W@Z 1007f197 f i libucrt:strtod.obj
 0001:0007e33b       ??$parse_floating_point_possible_nan_is_ind@DV?$c_string_character_source@D@__crt_strtox@@@__crt_strtox@@YA_NAADAAV?$c_string_character_source@D@0@@Z 1007f33b f i libucrt:strtod.obj
 0001:0007e386       ??$parse_floating_point_possible_nan_is_ind@_WV?$c_string_character_source@_W@__crt_strtox@@@__crt_strtox@@YA_NAA_WAAV?$c_string_character_source@_W@0@@Z 1007f386 f i libucrt:strtod.obj
 0001:0007e3de       ??$parse_floating_point_possible_nan_is_snan@DV?$c_string_character_source@D@__crt_strtox@@@__crt_strtox@@YA_NAADAAV?$c_string_character_source@D@0@@Z 1007f3de f i libucrt:strtod.obj
 0001:0007e429       ??$parse_floating_point_possible_nan_is_snan@_WV?$c_string_character_source@_W@__crt_strtox@@@__crt_strtox@@YA_NAA_WAAV?$c_string_character_source@_W@0@@Z 1007f429 f i libucrt:strtod.obj
 0001:0007e481       ??$parse_floating_point_write_result@M@__crt_strtox@@YA?AW4SLD_STATUS@@W4floating_point_parse_result@0@ABUfloating_point_string@0@QAM@Z 1007f481 f i libucrt:strtod.obj
 0001:0007e648       ??$parse_floating_point_write_result@N@__crt_strtox@@YA?AW4SLD_STATUS@@W4floating_point_parse_result@0@ABUfloating_point_string@0@QAN@Z 1007f648 f i libucrt:strtod.obj
 0001:0007e7b5       ??$parse_next_characters_from_source@DV?$c_string_character_source@D@__crt_strtox@@@__crt_strtox@@YA_NQBD0IAADAAV?$c_string_character_source@D@0@@Z 1007f7b5 f i libucrt:strtod.obj
 0001:0007e810       ??$parse_next_characters_from_source@_WV?$c_string_character_source@_W@__crt_strtox@@@__crt_strtox@@YA_NQB_W0IAA_WAAV?$c_string_character_source@_W@0@@Z 1007f810 f i libucrt:strtod.obj
 0001:0007e950       ??0big_integer@__crt_strtox@@QAE@ABU01@@Z 1007f950 f i libucrt:strtod.obj
 0001:0007e990       ??0big_integer@__crt_strtox@@QAE@XZ 1007f990 f i libucrt:strtod.obj
 0001:0007e99b       ??0floating_point_value@__crt_strtox@@QAE@QAM@Z 1007f99b f i libucrt:strtod.obj
 0001:0007e9b4       ??0floating_point_value@__crt_strtox@@QAE@QAN@Z 1007f9b4 f i libucrt:strtod.obj
 0001:0007e9d0       ??4big_integer@__crt_strtox@@QAEAAU01@ABU01@@Z 1007f9d0 f i libucrt:strtod.obj
 0001:0007ea10       ??M__crt_strtox@@YA_NABUbig_integer@0@0@Z 1007fa10 f i libucrt:strtod.obj
 0001:0007eb9d       ?accumulate_decimal_digits_into_big_integer@__crt_strtox@@YAXQBE0AAUbig_integer@1@@Z 1007fb9d f i libucrt:strtod.obj
 0001:0007f350       ?add@__crt_strtox@@YA_NAAUbig_integer@1@I@Z 10080350 f i libucrt:strtod.obj
 0001:0007f3f0       ?add_carry@__crt_strtox@@YAIAAIII@Z 100803f0 f i libucrt:strtod.obj
 0001:0007f420       ?add_multiply_carry@__crt_strtox@@YAIAAIIII@Z 10080420 f i libucrt:strtod.obj
 0001:0007f44d       ?as_double@floating_point_value@__crt_strtox@@QBEAANXZ 1008044d f i libucrt:strtod.obj
 0001:0007f47b       ?as_float@floating_point_value@__crt_strtox@@QBEAAMXZ 1008047b f i libucrt:strtod.obj
 0001:0007f4a9       ?assemble_floating_point_infinity@__crt_strtox@@YAX_NABVfloating_point_value@1@@Z 100804a9 f i libucrt:strtod.obj
 0001:0007f4f9       ?assemble_floating_point_value@__crt_strtox@@YA?AW4SLD_STATUS@@_KH_N1ABVfloating_point_value@1@@Z 100804f9 f i libucrt:strtod.obj
 0001:0007f907       ?assemble_floating_point_value_from_big_integer@__crt_strtox@@YA?AW4SLD_STATUS@@ABUbig_integer@1@I_N1ABVfloating_point_value@1@@Z 10080907 f i libucrt:strtod.obj
 0001:0007fb02       ?assemble_floating_point_zero@__crt_strtox@@YAX_NABVfloating_point_value@1@@Z 10080b02 f i libucrt:strtod.obj
 0001:0007fb50       ?bit_scan_reverse@__crt_strtox@@YAIABUbig_integer@1@@Z 10080b50 f i libucrt:strtod.obj
 0001:0007fba0       ?bit_scan_reverse@__crt_strtox@@YAII@Z 10080ba0 f i libucrt:strtod.obj
 0001:0007fbd0       ?bit_scan_reverse@__crt_strtox@@YAI_K@Z 10080bd0 f i libucrt:strtod.obj
 0001:0007fc28       ?convert_decimal_string_to_floating_type_common@__crt_strtox@@YA?AW4SLD_STATUS@@ABUfloating_point_string@1@ABVfloating_point_value@1@@Z 10080c28 f i libucrt:strtod.obj
 0001:000820ec       ?convert_hexadecimal_string_to_floating_type_common@__crt_strtox@@YA?AW4SLD_STATUS@@ABUfloating_point_string@1@ABVfloating_point_value@1@@Z 100830ec f i libucrt:strtod.obj
 0001:000821c0       ?count_sequential_high_zeroes@__crt_strtox@@YAII@Z 100831c0 f i libucrt:strtod.obj
 0001:000821e1       ?denormal_mantissa_mask@floating_point_value@__crt_strtox@@QBE_KXZ 100831e1 f i libucrt:strtod.obj
 0001:00082200       ?divide@__crt_strtox@@YA_KAAUbig_integer@1@ABU21@@Z 10083200 f i libucrt:strtod.obj
 0001:000827be       ?exponent_bias@floating_point_value@__crt_strtox@@QBEHXZ 100837be f i libucrt:strtod.obj
 0001:000827d4       ?is_digit_or_nondigit@__crt_strtox@@YA_NH@Z 100837d4 f i libucrt:strtod.obj
 0001:0008280c       ?is_double@floating_point_value@__crt_strtox@@QBE_NXZ 1008380c f i libucrt:strtod.obj
 0001:00082810       ?make_big_integer@__crt_strtox@@YA?AUbig_integer@1@_K@Z 10083810 f i libucrt:strtod.obj
 0001:00082838       ?mantissa_bits@floating_point_value@__crt_strtox@@QBEHXZ 10083838 f i libucrt:strtod.obj
 0001:0008284c       ?maximum_binary_exponent@floating_point_value@__crt_strtox@@QBEHXZ 1008384c f i libucrt:strtod.obj
 0001:00082862       ?minimum_binary_exponent@floating_point_value@__crt_strtox@@QBEHXZ 10083862 f i libucrt:strtod.obj
 0001:00082880       ?multiply@__crt_strtox@@YA_NAAUbig_integer@1@ABU21@@Z 10083880 f i libucrt:strtod.obj
 0001:00082c90       ?multiply@__crt_strtox@@YA_NAAUbig_integer@1@I@Z 10083c90 f i libucrt:strtod.obj
 0001:00082d90       ?multiply_64_32@__crt_strtox@@YA_K_KI@Z 10083d90 f i libucrt:strtod.obj
 0001:00082db0       ?multiply_by_power_of_ten@__crt_strtox@@YA_NAAUbig_integer@1@I@Z 10083db0 f i libucrt:strtod.obj
 0001:00083420       ?multiply_core@__crt_strtox@@YAIQAIII@Z 10084420 f i libucrt:strtod.obj
 0001:0008346d       ?normal_mantissa_mask@floating_point_value@__crt_strtox@@QBE_KXZ 1008446d f i libucrt:strtod.obj
 0001:00083489       ?right_shift_with_rounding@__crt_strtox@@YA_K_N_KI0@Z 10084489 f i libucrt:strtod.obj
 0001:000835b0       ?shift_left@__crt_strtox@@YA_NAAUbig_integer@1@I@Z 100845b0 f i libucrt:strtod.obj
 0001:0008375b       ?should_round_up@__crt_strtox@@YA_N_N000@Z 1008475b f i libucrt:strtod.obj
 0001:000837bb       __strtod_l                 100847bb f   libucrt:strtod.obj
 0001:000837c8       __strtof_l                 100847c8 f   libucrt:strtod.obj
 0001:000837d5       __strtold_l                100847d5 f   libucrt:strtod.obj
 0001:000837e2       __wcstod_l                 100847e2 f   libucrt:strtod.obj
 0001:000837ef       __wcstof_l                 100847ef f   libucrt:strtod.obj
 0001:000837fc       __wcstold_l                100847fc f   libucrt:strtod.obj
 0001:000838aa       _strtod                    100848aa f   libucrt:strtod.obj
 0001:000838c6       _strtof                    100848c6 f   libucrt:strtod.obj
 0001:000838e2       _strtold                   100848e2 f   libucrt:strtod.obj
 0001:000838fe       _wcstod                    100848fe f   libucrt:strtod.obj
 0001:0008391a       _wcstof                    1008491a f   libucrt:strtod.obj
 0001:00083936       _wcstold                   10084936 f   libucrt:strtod.obj
 0001:00083960       __CIpow                    10084960 f   libucrt:pow_impl.obj
 0001:0008399b       __CIpow_default            1008499b f   libucrt:pow_impl.obj
 0001:000839b4       __pow_default              100849b4     libucrt:pow_impl.obj
 0001:00083c3b       __set_abort_behavior       10084c3b f   libucrt:abort.obj
 0001:00083c64       _abort                     10084c64 f   libucrt:abort.obj
 0001:00083d31       _wcscpy_s                  10084d31 f   libucrt:wcscpy_s.obj
 0001:000847a7       ??1?$__crt_simd_cleanup_guard@$00@@QAE@XZ 100857a7 f i libucrt:strnlen.obj
 0001:000847ab       ??1?$__crt_simd_cleanup_guard@$0A@@@QAE@XZ 100857ab f i libucrt:strnlen.obj
 0001:000847ae       ?compare_equals@?$__crt_simd_traits@$00E@@SA?AT__m256i@@T2@0@Z 100857ae f i libucrt:strnlen.obj
 0001:000847b3       ?compare_equals@?$__crt_simd_traits@$00G@@SA?AT__m256i@@T2@0@Z 100857b3 f i libucrt:strnlen.obj
 0001:000847b8       ?compare_equals@?$__crt_simd_traits@$0A@E@@SA?AT__m128i@@T2@0@Z 100857b8 f i libucrt:strnlen.obj
 0001:000847bd       ?compare_equals@?$__crt_simd_traits@$0A@G@@SA?AT__m128i@@T2@0@Z 100857bd f i libucrt:strnlen.obj
 0001:000847c2       ?compute_byte_mask@?$__crt_simd_pack_traits@$00@@SAHT__m256i@@@Z 100857c2 f i libucrt:strnlen.obj
 0001:000847c7       ?compute_byte_mask@?$__crt_simd_pack_traits@$0A@@@SAHT__m128i@@@Z 100857c7 f i libucrt:strnlen.obj
 0001:000847cc       ?get_zero_pack@?$__crt_simd_pack_traits@$00@@SA?AT__m256i@@XZ 100857cc f i libucrt:strnlen.obj
 0001:000847d1       ?get_zero_pack@?$__crt_simd_pack_traits@$0A@@@SA?AT__m128i@@XZ 100857d1 f i libucrt:strnlen.obj
