 ms_param_SG_slrt

 Timestamp is 615d980f (Wed Oct  6 14:35:27 2021)

 Preferred load address is 10000000

 Start         Length     Name                   Class
 0001:00000000 0000e350H .text$di                CODE
 0001:0000e350 000a0160H .text$mn                CODE
 0001:000ae4b0 00004861H .text$x                 CODE
 0001:000b2d11 0000103eH .text$yd                CODE
 0002:00000000 00000104H .CRT$XCA                DATA
 0002:00000104 00000110H .CRT$XCC                DATA
 0002:00000214 0000010cH .CRT$XCL                DATA
 0002:00000320 00000104H .CRT$XCZ                DATA
 0002:00000424 00000104H .CRT$XIA                DATA
 0002:00000528 00000118H .CRT$XIC                DATA
 0002:00000640 00000104H .CRT$XIZ                DATA
 0002:00000744 00000104H .CRT$XPA                DATA
 0002:00000848 0000010cH .CRT$XPX                DATA
 0002:00000954 00000104H .CRT$XPXA               DATA
 0002:00000a58 00000104H .CRT$XPZ                DATA
 0002:00000b5c 00000104H .CRT$XTA                DATA
 0002:00000c60 00000110H .CRT$XTZ                DATA
 0002:00000d70 00033e78H .rdata                  DATA
 0002:00034be8 00002018H .rdata$r                DATA
 0002:00036c00 00000548H .rdata$sxdata           DATA
 0002:00037148 000001ccH .rdata$zzzdbg           DATA
 0002:00037314 00000104H .rtc$IAA                DATA
 0002:00037418 00000104H .rtc$IZZ                DATA
 0002:0003751c 00000104H .rtc$TAA                DATA
 0002:00037620 00000108H .rtc$TZZ                DATA
 0002:00037728 00005038H .xdata$x                DATA
 0002:0003c760 00000204H .edata                  DATA
 0003:00000000 000eb6b0H .data                   DATA
 0003:000eb6b0 000011d0H .data$r                 DATA
 0003:000ec880 000161acH .bss                    DATA
 0004:00000000 00000200H .idata$5                DATA
 0004:00000200 00000014H .idata$2                DATA
 0004:00000214 00000014H .idata$3                DATA
 0004:00000228 00000200H .idata$4                DATA
 0004:00000428 000008e8H .idata$6                DATA
 0005:00000000 00000104H .00cfg                  DATA

  Address         Publics by Value              Rva+Base       Lib:Object

 0000:00000000       ___dynamic_value_reloc_table 00000000     <absolute>
 0000:00000000       ___guard_fids_table        00000000     <absolute>
 0000:00000000       ___hybrid_code_map         00000000     <absolute>
 0000:00000000       ___guard_longjmp_count     00000000     <absolute>
 0000:00000000       ___enclave_config          00000000     <absolute>
 0000:00000000       ___hybrid_auxiliary_iat    00000000     <absolute>
 0000:00000000       ___guard_fids_count        00000000     <absolute>
 0000:00000000       ___volatile_metadata       00000000     <absolute>
 0000:00000000       ___guard_longjmp_table     00000000     <absolute>
 0000:00000000       ___guard_iat_table         00000000     <absolute>
 0000:00000000       ___hybrid_code_map_count   00000000     <absolute>
 0000:00000000       ___guard_iat_count         00000000     <absolute>
 0000:00000000       __except_list              00000000     <absolute>
 0000:000000e4       ___safe_se_handler_count   000000e4     <absolute>
 0000:00000100       ___guard_flags             00000100     <absolute>
 0000:00000000       ___ImageBase               10000000     <linker-defined>
 0001:0000e350       _DllMain@12                1000f350 f   xpctarget.obj
 0001:0000e360       _SLRTSetErrorStatus        1000f360 f   xpctarget.obj
 0001:0000e380       _changeStepSize            1000f380 f   xpctarget.obj
 0001:0000e3d0       _getDLMVersion             1000f3d0 f   xpctarget.obj
 0001:0000e3e0       _getFullPathToRefMdl       1000f3e0 f   xpctarget.obj
 0001:0000e490       _getRefMdlPath             1000f490 f   xpctarget.obj
 0001:0000e510       _getRefMdlSignalNumber     1000f510 f   xpctarget.obj
 0001:0000e5c0       _getrlmdlinfo              1000f5c0 f   xpctarget.obj
 0001:0000e720       _ms_param_SG_ChangeStepSize 1000f720 f   xpctarget.obj
 0001:0000e770       _slrtRegisterSignalToLoggingService 1000f770 f   xpctarget.obj
 0001:0000e8d0       _updateDiscreteEvents      1000f8d0 f   xpctarget.obj
 0001:0000e8e0       _getNumRef                 1000f8e0 f   appmappingData.obj
 0001:0000e8f0       ___local_stdio_printf_options 1000f8f0 f i legacy_stdio.obj
 0001:0000e900       __vfprintf_l               1000f900 f i legacy_stdio.obj
 0001:0000e930       _vprintf                   1000f930 f i legacy_stdio.obj
 0001:0000e970       _rt_mxCreateCharMatrixFromStrings 1000f970 f   rt_matrx.obj
 0001:0000ead0       _rt_mxCreateDoubleMatrix   1000fad0 f   rt_matrx.obj
 0001:0000eb30       _rt_mxCreateNumericArray   1000fb30 f   rt_matrx.obj
 0001:0000eba0       _rt_mxCreateString         1000fba0 f   rt_matrx.obj
 0001:0000ec30       _rt_mxDuplicateArray       1000fc30 f   rt_matrx.obj
 0001:0000ec90       _rt_mxGetDimensions        1000fc90 f   rt_matrx.obj
 0001:0000ecd0       _rt_mxGetEps               1000fcd0 f   rt_matrx.obj
 0001:0000ece0       _rt_mxGetString            1000fce0 f   rt_matrx.obj
 0001:0000ed60       _rtPrintfNoOp              1000fd60 f   rt_printf.obj
 0001:0000ed70       __vsnprintf_l              1000fd70 f i rt_logging.obj
 0001:0000edb0       __vsprintf_l               1000fdb0 f i rt_logging.obj
 0001:0000edf0       _fprintf                   1000fdf0 f i rt_logging.obj
 0001:0000f2f0       _printf                    100102f0 f i rt_logging.obj
 0001:0000f330       _rt_CreateLogVar           10010330 f   rt_logging.obj
 0001:0000f3c0       _rt_CreateLogVarWithConvert 100103c0 f   rt_logging.obj
 0001:0000fcf0       _rt_CreateStructLogVar     10010cf0 f   rt_logging.obj
 0001:00010a90       _rt_GetMxIdFromDTypeId     10011a90 f   rt_logging.obj
 0001:00010ac0       _rt_GetMxIdFromDTypeIdForRSim 10011ac0 f   rt_logging.obj
 0001:00013660       _rt_StartDataLogging       10014660 f   rt_logging.obj
 0001:00013b20       _rt_StartDataLoggingWithStartTime 10014b20 f   rt_logging.obj
 0001:00013fa0       _rt_StopDataLogging        10014fa0 f   rt_logging.obj
 0001:00013fc0       _rt_StopDataLoggingImpl    10014fc0 f   rt_logging.obj
 0001:00014400       _rt_UpdateLogVar           10015400 f   rt_logging.obj
 0001:000153f0       _rt_UpdateLogVarWithDiscontiguousData 100163f0 f   rt_logging.obj
 0001:000156b0       _rt_UpdateStructLogVar     100166b0 f   rt_logging.obj
 0001:00015740       _rt_UpdateTXXFYLogVars     10016740 f   rt_logging.obj
 0001:00015b90       _rt_UpdateTXYLogVars       10016b90 f   rt_logging.obj
 0001:00015dd0       _rt_getTempMemory          10016dd0 f   rt_logging.obj
 0001:00015e20       _rt_preProcessAndLogData   10016e20 f   rt_logging.obj
 0001:00015ec0       _rt_preProcessAndLogDataWithIndex 10016ec0 f   rt_logging.obj
 0001:00015f70       _sprintf                   10016f70 f i rt_logging.obj
 0001:00015fb0       _MdlInitialize             10016fb0 f   ms_param_SG.obj
 0001:00015fc0       _MdlInitializeSampleTimes  10016fc0 f   ms_param_SG.obj
 0001:00015fd0       _MdlInitializeSizes        10016fd0 f   ms_param_SG.obj
 0001:00015fe0       _MdlOutputs                10016fe0 f   ms_param_SG.obj
 0001:00015ff0       _MdlStart                  10016ff0 f   ms_param_SG.obj
 0001:00016000       _MdlTerminate              10017000 f   ms_param_SG.obj
 0001:00016130       _MdlUpdate                 10017130 f   ms_param_SG.obj
 0001:00016660       _ms_param_SG               10017660 f   ms_param_SG.obj
 0001:00016c90       _ms_param_SG_HighpassFilter2 10017c90 f   ms_param_SG.obj
 0001:00018800       _ms_param_S_HighpassFilter2_Init 10019800 f   ms_param_SG.obj
 0001:00018890       _ms_param_S_HighpassFilter2_Term 10019890 f   ms_param_SG.obj
 0001:000189d0       _ms_param__HighpassFilter2_Start 100199d0 f   ms_param_SG.obj
 0001:00018b10       _ms_param_SG_GetCAPIStaticMap 10019b10 f   ms_param_SG_capi.obj
 0001:00018b20       _ms_param_SG_InitializeDataMapInfo 10019b20 f   ms_param_SG_capi.obj
 0001:00018bf0       _mdlXcp_GetMdlXcpInfo      10019bf0 f   ms_param_SG_xcp.obj
 0001:00018c00       _SLRT_update_TET           10019c00 f   ms_param_SG_xcp_TET.obj
 0001:00018cd0       _rtGetInf                  10019cd0 f   rtGetInf.obj
 0001:00018d00       _rtGetInfF                 10019d00 f   rtGetInf.obj
 0001:00018d20       _rtGetMinusInf             10019d20 f   rtGetInf.obj
 0001:00018d50       _rtGetMinusInfF            10019d50 f   rtGetInf.obj
 0001:00018d70       _rtGetNaN                  10019d70 f   rtGetNaN.obj
 0001:00018da0       _rtGetNaNF                 10019da0 f   rtGetNaN.obj
 0001:00018dc0       _rtIsInf                   10019dc0 f   rt_nonfinite.obj
 0001:00018e00       _rtIsInfF                  10019e00 f   rt_nonfinite.obj
 0001:00018e40       _rtIsNaN                   10019e40 f   rt_nonfinite.obj
 0001:00018e90       _rtIsNaNF                  10019e90 f   rt_nonfinite.obj
 0001:00018ed0       _rt_InitInfAndNaN          10019ed0 f   rt_nonfinite.obj
 0001:00018f30       _rt_CleanUpForStateLogWithMMI 10019f30 f   rt_logging_mmi.obj
 0001:00019040       _rt_FillStateSigInfoFromMMI 1001a040 f   rt_logging_mmi.obj
 0001:00019490       _rtwCAPI_CountSysRan       1001a490 f   rtw_modelmap_utils.obj
 0001:00019530       _rtwCAPI_EncodePath        1001a530 f   rtw_modelmap_utils.obj
 0001:000195d0       _rtwCAPI_FillSysRan        1001a5d0 f   rtw_modelmap_utils.obj
 0001:000196c0       _rtwCAPI_FreeFullPaths     1001a6c0 f   rtw_modelmap_utils.obj
 0001:00019720       _rtwCAPI_GetFullStateBlockPath 1001a720 f   rtw_modelmap_utils.obj
 0001:000198a0       _rtwCAPI_GetNumContStateRecords 1001a8a0 f   rtw_modelmap_utils.obj
 0001:00019920       _rtwCAPI_GetNumSigLogRecords 1001a920 f   rtw_modelmap_utils.obj
 0001:00019970       _rtwCAPI_GetNumSigLogRecordsForRTWLogging 1001a970 f   rtw_modelmap_utils.obj
 0001:00019a10       _rtwCAPI_GetNumStateRecords 1001aa10 f   rtw_modelmap_utils.obj
 0001:00019a60       _rtwCAPI_GetNumStateRecordsForRTWLogging 1001aa60 f   rtw_modelmap_utils.obj
 0001:00019b00       _rtwCAPI_GetSigAddrFromMap 1001ab00 f   rtw_modelmap_utils.obj
 0001:00019b90       _rtwCAPI_GetSigLogRecordInfo 1001ab90 f   rtw_modelmap_utils.obj
 0001:00019f90       _rtwCAPI_GetStateRecordInfo 1001af90 f   rtw_modelmap_utils.obj
 0001:0001a420       _rtwCAPI_GetStateWidth     1001b420 f   rtw_modelmap_utils.obj
 0001:0001a470       _rtwCAPI_HasStates         1001b470 f   rtw_modelmap_utils.obj
 0001:0001a4d0       _rtwCAPI_UpdateFullPaths   1001b4d0 f   rtw_modelmap_utils.obj
 0001:0001a610       _timestamp_x86             1001b610 f   host_timer_x86.obj
 0001:0001a620       _taskTimeEnd               1001b620 f   xpc_code_profiling_utility_functions.obj
 0001:0001a630       _taskTimeEnd_              1001b630 f   xpc_code_profiling_utility_functions.obj
 0001:0001a640       _taskTimeStart             1001b640 f   xpc_code_profiling_utility_functions.obj
 0001:0001a650       _taskTimeStart_            1001b650 f   xpc_code_profiling_utility_functions.obj
 0001:0001a660       _xilProfilingTimerFreeze   1001b660 f   xpc_code_profiling_utility_functions.obj
 0001:0001a670       _xilProfilingTimerFreezeInternal 1001b670 f   xpc_code_profiling_utility_functions.obj
 0001:0001a680       _xilProfilingTimerUnFreeze 1001b680 f   xpc_code_profiling_utility_functions.obj
 0001:0001a690       _xilProfilingTimerUnFreezeInternal 1001b690 f   xpc_code_profiling_utility_functions.obj
 0001:0001a6a0       _xilUploadProfilingData    1001b6a0 f   xpc_code_profiling_utility_functions.obj
 0001:0001a6b0       _getAutoDACRanges          1001b6b0 f   sg_fpga_HDLCoder_io334_dac_sf_1.obj
 0001:0001aa10       _sg_fpga_HDLCoder_io334_dac_sf_1 1001ba10 f   sg_fpga_HDLCoder_io334_dac_sf_1.obj
 0001:0001ae40       _sg_fpga_HDLCoder_io334_i2c_sf_1 1001be40 f   sg_fpga_HDLCoder_io334_i2c_sf_1.obj
 0001:0001aea0       _GetPCIDeviceFull          1001bea0 f   xpcruntime:xpcimports.obj
 0001:0001b010       _GetPCIDeviceFunction      1001c010 f   xpcruntime:xpcimports.obj
 0001:0001b180       _ShowPCIDevice             1001c180 f   xpcruntime:xpcimports.obj
 0001:0001b7b0       _slrtGetPciConfigAtFunction 1001c7b0 f   xpcruntime:xpcimports.obj
 0001:0001bb20       _xpcGetPciConfigAtSlot     1001cb20 f   xpcruntime:xpcimports.obj
 0001:0001bb40       _xpcInitProcs              1001cb40 f   xpcruntime:xpcimports.obj
 0001:0001d570       _xpceuploadevent           1001e570 f   xpcruntime:xpcimports.obj
 0001:0001d580       ??$__vcrt_va_start_verify_argument_type@QBD@@YAXXZ 1001e580 f i libsghdlcutils_MSVC150_vc:sg_fpga_HDLCoder_io3xx.obj
 0001:0001d590       _bitswap                   1001e590 f   libsghdlcutils_MSVC150_vc:sg_fpga_HDLCoder_io3xx.obj
 0001:0001d5d0       _createDMAMemoryPool       1001e5d0 f   libsghdlcutils_MSVC150_vc:sg_fpga_HDLCoder_io3xx.obj
 0001:0001d730       _freeDMAMemoryPool         1001e730 f   libsghdlcutils_MSVC150_vc:sg_fpga_HDLCoder_io3xx.obj
 0001:0001d830       _freeFPGAModule            1001e830 f   libsghdlcutils_MSVC150_vc:sg_fpga_HDLCoder_io3xx.obj
 0001:0001d980       _i2c_checkEEprom           1001e980 f   libsghdlcutils_MSVC150_vc:sg_fpga_HDLCoder_io3xx.obj
 0001:0001dba0       _i2c_dummy_read            1001eba0 f   libsghdlcutils_MSVC150_vc:sg_fpga_HDLCoder_io3xx.obj
 0001:0001dd80       _i2c_dyn_eeprom_read       1001ed80 f   libsghdlcutils_MSVC150_vc:sg_fpga_HDLCoder_io3xx.obj
 0001:0001dfe0       _i2c_dyn_eeprom_write      1001efe0 f   libsghdlcutils_MSVC150_vc:sg_fpga_HDLCoder_io3xx.obj
 0001:0001e2b0       _i2c_dyn_read              1001f2b0 f   libsghdlcutils_MSVC150_vc:sg_fpga_HDLCoder_io3xx.obj
 0001:0001e490       _i2c_dyn_reset             1001f490 f   libsghdlcutils_MSVC150_vc:sg_fpga_HDLCoder_io3xx.obj
 0001:0001e4c0       _i2c_dyn_start             1001f4c0 f   libsghdlcutils_MSVC150_vc:sg_fpga_HDLCoder_io3xx.obj
 0001:0001e5e0       _i2c_dyn_write             1001f5e0 f   libsghdlcutils_MSVC150_vc:sg_fpga_HDLCoder_io3xx.obj
 0001:0001e840       _i2c_fprintfReg            1001f840 f   libsghdlcutils_MSVC150_vc:sg_fpga_HDLCoder_io3xx.obj
 0001:0001e8b0       _i2c_init                  1001f8b0 f   libsghdlcutils_MSVC150_vc:sg_fpga_HDLCoder_io3xx.obj
 0001:0001e9b0       _i2c_read                  1001f9b0 f   libsghdlcutils_MSVC150_vc:sg_fpga_HDLCoder_io3xx.obj
 0001:0001ebc0       _i2c_readEEPROM            1001fbc0 f   libsghdlcutils_MSVC150_vc:sg_fpga_HDLCoder_io3xx.obj
 0001:0001ee70       _i2c_write                 1001fe70 f   libsghdlcutils_MSVC150_vc:sg_fpga_HDLCoder_io3xx.obj
 0001:0001ef60       _i2c_writeEEPROM           1001ff60 f   libsghdlcutils_MSVC150_vc:sg_fpga_HDLCoder_io3xx.obj
 0001:0001f160       _io3xxGetAddress           10020160 f   libsghdlcutils_MSVC150_vc:sg_fpga_HDLCoder_io3xx.obj
 0001:0001f1f0       _io3xxGetBCCPointer        100201f0 f   libsghdlcutils_MSVC150_vc:sg_fpga_HDLCoder_io3xx.obj
 0001:0001f250       _io3xxGetBoardName         10020250 f   libsghdlcutils_MSVC150_vc:sg_fpga_HDLCoder_io3xx.obj
 0001:0001f290       _io3xxGetBoardType         10020290 f   libsghdlcutils_MSVC150_vc:sg_fpga_HDLCoder_io3xx.obj
 0001:0001f2e0       _io3xxGetRamBaseAddr       100202e0 f   libsghdlcutils_MSVC150_vc:sg_fpga_HDLCoder_io3xx.obj
 0001:0001f330       _io3xxGetRamMaxOffset      10020330 f   libsghdlcutils_MSVC150_vc:sg_fpga_HDLCoder_io3xx.obj
 0001:0001f380       _io3xxGetSerialNumber      10020380 f   libsghdlcutils_MSVC150_vc:sg_fpga_HDLCoder_io3xx.obj
 0001:0001f3d0       _io3xxSetBoardType         100203d0 f   libsghdlcutils_MSVC150_vc:sg_fpga_HDLCoder_io3xx.obj
 0001:0001f410       _io3xxSetSerialNumber      10020410 f   libsghdlcutils_MSVC150_vc:sg_fpga_HDLCoder_io3xx.obj
 0001:0001f450       _io3xxStart                10020450 f   libsghdlcutils_MSVC150_vc:sg_fpga_HDLCoder_io3xx.obj
 0001:0001f4e0       _io3xx_SPI_flashReconfiguration 100204e0 f   libsghdlcutils_MSVC150_vc:sg_fpga_HDLCoder_io3xx.obj
 0001:0001f6a0       _io3xx_decode_Timestamp    100206a0 f   libsghdlcutils_MSVC150_vc:sg_fpga_HDLCoder_io3xx.obj
 0001:0001f700       _io3xx_reprogram_ICAP      10020700 f   libsghdlcutils_MSVC150_vc:sg_fpga_HDLCoder_io3xx.obj
 0001:0001f910       _io3xx_search_Timestamp    10020910 f   libsghdlcutils_MSVC150_vc:sg_fpga_HDLCoder_io3xx.obj
 0001:0001fbf0       _io3xx_slaveSelectMapConfiguration 10020bf0 f   libsghdlcutils_MSVC150_vc:sg_fpga_HDLCoder_io3xx.obj
 0001:0001ff30       _printCDMAEngineRegisters  10020f30 f   libsghdlcutils_MSVC150_vc:sg_fpga_HDLCoder_io3xx.obj
 0001:000200e0       _printDMADescStatus        100210e0 f   libsghdlcutils_MSVC150_vc:sg_fpga_HDLCoder_io3xx.obj
 0001:00020450       _printDMAEngineRegisters   10021450 f   libsghdlcutils_MSVC150_vc:sg_fpga_HDLCoder_io3xx.obj
 0001:00020530       _printPCIHeader            10021530 f   libsghdlcutils_MSVC150_vc:sg_fpga_HDLCoder_io3xx.obj
 0001:000205a0       _printPCIStorage           100215a0 f   libsghdlcutils_MSVC150_vc:sg_fpga_HDLCoder_io3xx.obj
 0001:000205e0       _printSingleDescriptor     100215e0 f   libsghdlcutils_MSVC150_vc:sg_fpga_HDLCoder_io3xx.obj
 0001:000206f0       _readPCIHeader             100216f0 f   libsghdlcutils_MSVC150_vc:sg_fpga_HDLCoder_io3xx.obj
 0001:00020760       _registerBCC               10021760 f   libsghdlcutils_MSVC150_vc:sg_fpga_HDLCoder_io3xx.obj
 0001:000207d0       _registerFPGAModule        100217d0 f   libsghdlcutils_MSVC150_vc:sg_fpga_HDLCoder_io3xx.obj
 0001:00020a80       _resetDMAEngine            10021a80 f   libsghdlcutils_MSVC150_vc:sg_fpga_HDLCoder_io3xx.obj
 0001:00020cc0       _sg_fpga_mcs2bin           10021cc0 f   libsghdlcutils_MSVC150_vc:sg_fpga_HDLCoder_io3xx.obj
 0001:00021060       _sg_initializeHexValues    10022060 f   libsghdlcutils_MSVC150_vc:sg_fpga_HDLCoder_io3xx.obj
 0001:00021100       _sg_line2Bytes             10022100 f   libsghdlcutils_MSVC150_vc:sg_fpga_HDLCoder_io3xx.obj
 0001:000211f0       _waitForDMAResetComplete   100221f0 f   libsghdlcutils_MSVC150_vc:sg_fpga_HDLCoder_io3xx.obj
 0001:00021340       _writePCIHeader            10022340 f   libsghdlcutils_MSVC150_vc:sg_fpga_HDLCoder_io3xx.obj
 0001:00021420       _io334GetADCRange          10022420 f   libsghdlcutils_MSVC150_vc:sg_fpga_HDLCoder_io334util.obj
 0001:00021600       _io334Init                 10022600 f   libsghdlcutils_MSVC150_vc:sg_fpga_HDLCoder_io334util.obj
 0001:00021ba0       _io334SetDACRange          10022ba0 f   libsghdlcutils_MSVC150_vc:sg_fpga_HDLCoder_io334util.obj
 0001:00021cd0       _sg_hdlc_allocPhysicalMemory_v19b 10022cd0 f   libsg_MSVC150_vc:sg_hdlc_api.obj
 0001:00021ce0       _sg_hdlc_findPciDevice_v19b 10022ce0 f   libsg_MSVC150_vc:sg_hdlc_api.obj
 0001:00021cf0       _sg_hdlc_freePhysicalMemory_v19b 10022cf0 f   libsg_MSVC150_vc:sg_hdlc_api.obj
 0001:00021d00       _sg_hdlc_getElapsedTime_v19b 10022d00 f   libsg_MSVC150_vc:sg_hdlc_api.obj
 0001:00021d10       _sg_hdlc_inpDW_v19b        10022d10 f   libsg_MSVC150_vc:sg_hdlc_api.obj
 0001:00021d20       _sg_hdlc_isModelInit_v19b  10022d20 f   libsg_MSVC150_vc:sg_hdlc_api.obj
 0001:00021d30       _sg_hdlc_mapMemory_v19b    10022d30 f   libsg_MSVC150_vc:sg_hdlc_api.obj
 0001:00021d40       _sg_hdlc_module_get_v19b   10022d40 f   libsg_MSVC150_vc:sg_hdlc_api.obj
 0001:00021d50       _sg_hdlc_module_register_v19b 10022d50 f   libsg_MSVC150_vc:sg_hdlc_api.obj
 0001:00021d60       _sg_hdlc_module_unregister_v19b 10022d60 f   libsg_MSVC150_vc:sg_hdlc_api.obj
 0001:00021d70       _sg_hdlc_outpDW_v19b       10022d70 f   libsg_MSVC150_vc:sg_hdlc_api.obj
 0001:00021d80       _sg_hdlc_setAbilities_v19b 10022d80 f   libsg_MSVC150_vc:sg_hdlc_api.obj
 0001:00021d90       _sg_hdlc_showPciDevice_v19b 10022d90 f   libsg_MSVC150_vc:sg_hdlc_api.obj
 0001:00021da0       _sg_hdlc_wait_s_v19b       10022da0 f   libsg_MSVC150_vc:sg_hdlc_api.obj
 0001:00021dc0       ??$_Destroy_range@V?$allocator@V?$basic_string@DU?$char_traits@D@std@@V?$allocator@D@2@@std@@@std@@@std@@YAXPAV?$basic_string@DU?$char_traits@D@std@@V?$allocator@D@2@@0@0AAV?$allocator@V?$basic_string@DU?$char_traits@D@std@@V?$allocator@D@2@@std@@@0@@Z 10022dc0 f i libsg_MSVC150_vc:sg_common.obj
 0001:00021e40       ??$_Emplace_reallocate@V?$basic_string@DU?$char_traits@D@std@@V?$allocator@D@2@@std@@@?$vector@V?$basic_string@DU?$char_traits@D@std@@V?$allocator@D@2@@std@@V?$allocator@V?$basic_string@DU?$char_traits@D@std@@V?$allocator@D@2@@std@@@2@@std@@QAEPAV?$basic_string@DU?$char_traits@D@std@@V?$allocator@D@2@@1@QAV21@$$QAV21@@Z 10022e40 f i libsg_MSVC150_vc:sg_common.obj
 0001:00022090       ??$_Immortalize_impl@V_Iostream_error_category@std@@@std@@YGHPAX0PAPAX@Z 10023090 f i libsg_MSVC150_vc:sg_common.obj
 0001:000220c0       ??$_UIntegral_to_buff@D_K@std@@YAPADPAD_K@Z 100230c0 f i libsg_MSVC150_vc:sg_common.obj
 0001:000221a0       ??$_Uninitialized_move@PAV?$basic_string@DU?$char_traits@D@std@@V?$allocator@D@2@@std@@PAV12@V?$allocator@V?$basic_string@DU?$char_traits@D@std@@V?$allocator@D@2@@std@@@2@@std@@YAPAV?$basic_string@DU?$char_traits@D@std@@V?$allocator@D@2@@0@QAV10@0PAV10@AAV?$allocator@V?$basic_string@DU?$char_traits@D@std@@V?$allocator@D@2@@std@@@0@@Z 100231a0 f i libsg_MSVC150_vc:sg_common.obj
 0001:00022230       ??$endl@DU?$char_traits@D@std@@@std@@YAAAV?$basic_ostream@DU?$char_traits@D@std@@@0@AAV10@@Z 10023230 f i libsg_MSVC150_vc:sg_common.obj
 0001:00022310       ??$use_facet@V?$ctype@D@std@@@std@@YAABV?$ctype@D@0@ABVlocale@0@@Z 10023310 f i libsg_MSVC150_vc:sg_common.obj
 0001:000224f0       ??$use_facet@V?$numpunct@D@std@@@std@@YAABV?$numpunct@D@0@ABVlocale@0@@Z 100234f0 f i libsg_MSVC150_vc:sg_common.obj
 0001:000226d0       ??0?$basic_string@DU?$char_traits@D@std@@V?$allocator@D@2@@std@@QAE@ID@Z 100236d0 f i libsg_MSVC150_vc:sg_common.obj
 0001:00022820       ??0_Locinfo@std@@QAE@PBD@Z 10023820 f i libsg_MSVC150_vc:sg_common.obj
 0001:00022910       ??0_System_error@std@@IAE@Verror_code@1@ABV?$basic_string@DU?$char_traits@D@std@@V?$allocator@D@2@@1@@Z 10023910 f i libsg_MSVC150_vc:sg_common.obj
 0001:00022b60       ??0_System_error@std@@QAE@ABV01@@Z 10023b60 f i libsg_MSVC150_vc:sg_common.obj
 0001:00022bc0       ??0bad_cast@std@@QAE@ABV01@@Z 10023bc0 f i libsg_MSVC150_vc:sg_common.obj
 0001:00022c00       ??0exception@std@@QAE@ABV01@@Z 10023c00 f i libsg_MSVC150_vc:sg_common.obj
 0001:00022c40       ??0failure@ios_base@std@@QAE@ABV012@@Z 10023c40 f i libsg_MSVC150_vc:sg_common.obj
 0001:00022ca0       ??0failure@ios_base@std@@QAE@PBDABVerror_code@2@@Z 10023ca0 f i libsg_MSVC150_vc:sg_common.obj
 0001:00022dc0       ??0runtime_error@std@@QAE@ABV01@@Z 10023dc0 f i libsg_MSVC150_vc:sg_common.obj
 0001:00022e00       ??0runtime_error@std@@QAE@PBD@Z 10023e00 f i libsg_MSVC150_vc:sg_common.obj
 0001:00022e60       ??0sentry@?$basic_ostream@DU?$char_traits@D@std@@@std@@QAE@AAV12@@Z 10023e60 f i libsg_MSVC150_vc:sg_common.obj
 0001:00022f10       ??0system_error@std@@QAE@ABV01@@Z 10023f10 f i libsg_MSVC150_vc:sg_common.obj
 0001:00022f70       ??1?$_Yarn@D@std@@QAE@XZ   10023f70 f i libsg_MSVC150_vc:sg_common.obj
 0001:00022f90       ??1?$_Yarn@_W@std@@QAE@XZ  10023f90 f i libsg_MSVC150_vc:sg_common.obj
 0001:00022fb0       ??1?$basic_string@DU?$char_traits@D@std@@V?$allocator@D@2@@std@@QAE@XZ 10023fb0 f i libsg_MSVC150_vc:sg_common.obj
 0001:00023010       ??1?$ctype@D@std@@MAE@XZ   10024010 f i libsg_MSVC150_vc:sg_common.obj
 0001:00023060       ??1?$num_put@DV?$ostreambuf_iterator@DU?$char_traits@D@std@@@std@@@std@@MAE@XZ 10024060 f i libsg_MSVC150_vc:sg_common.obj
 0001:00023070       ??1?$numpunct@D@std@@MAE@XZ 10024070 f i libsg_MSVC150_vc:sg_common.obj
 0001:000230b0       ??1?$unique_ptr@V_Facet_base@std@@U?$default_delete@V_Facet_base@std@@@2@@std@@QAE@XZ 100240b0 f i libsg_MSVC150_vc:sg_common.obj
 0001:000230c0       ??1?$vector@V?$basic_string@DU?$char_traits@D@std@@V?$allocator@D@2@@std@@V?$allocator@V?$basic_string@DU?$char_traits@D@std@@V?$allocator@D@2@@std@@@2@@std@@QAE@XZ 100240c0 f i libsg_MSVC150_vc:sg_common.obj
 0001:00023160       ??1_Facet_base@std@@UAE@XZ 10024160 f i libsg_MSVC150_vc:sg_common.obj
 0001:00023170       ??1_Locinfo@std@@QAE@XZ    10024170 f i libsg_MSVC150_vc:sg_common.obj
 0001:00023280       ??1_Sentry_base@?$basic_ostream@DU?$char_traits@D@std@@@std@@QAE@XZ 10024280 f i libsg_MSVC150_vc:sg_common.obj
 0001:000232e0       ??1bad_cast@std@@UAE@XZ    100242e0 f i libsg_MSVC150_vc:sg_common.obj
 0001:00023300       ??1error_category@std@@UAE@XZ 10024300 f i libsg_MSVC150_vc:sg_common.obj
 0001:00023310       ??1exception@std@@UAE@XZ   10024310 f i libsg_MSVC150_vc:sg_common.obj
 0001:00023330       ??1facet@locale@std@@MAE@XZ 10024330 f i libsg_MSVC150_vc:sg_common.obj
 0001:00023340       ??1failure@ios_base@std@@UAE@XZ 10024340 f i libsg_MSVC150_vc:sg_common.obj
 0001:00023360       ??1locale@std@@QAE@XZ      10024360 f i libsg_MSVC150_vc:sg_common.obj
 0001:000233c0       ??1runtime_error@std@@UAE@XZ 100243c0 f i libsg_MSVC150_vc:sg_common.obj
 0001:000233e0       ??1sentry@?$basic_ostream@DU?$char_traits@D@std@@@std@@QAE@XZ 100243e0 f i libsg_MSVC150_vc:sg_common.obj
 0001:00023460       ??_G?$ctype@D@std@@MAEPAXI@Z 10024460 f i libsg_MSVC150_vc:sg_common.obj
 0001:00023460       ??_E?$ctype@D@std@@MAEPAXI@Z 10024460 f i libsg_MSVC150_vc:sg_common.obj
 0001:000234d0       ??_E?$num_put@DV?$ostreambuf_iterator@DU?$char_traits@D@std@@@std@@@std@@MAEPAXI@Z 100244d0 f i libsg_MSVC150_vc:sg_common.obj
 0001:000234d0       ??_G?$num_put@DV?$ostreambuf_iterator@DU?$char_traits@D@std@@@std@@@std@@MAEPAXI@Z 100244d0 f i libsg_MSVC150_vc:sg_common.obj
 0001:00023500       ??_E?$numpunct@D@std@@MAEPAXI@Z 10024500 f i libsg_MSVC150_vc:sg_common.obj
 0001:00023500       ??_G?$numpunct@D@std@@MAEPAXI@Z 10024500 f i libsg_MSVC150_vc:sg_common.obj
 0001:00023560       ??_E_Facet_base@std@@UAEPAXI@Z 10024560 f i libsg_MSVC150_vc:sg_common.obj
 0001:00023560       ??_G_Facet_base@std@@UAEPAXI@Z 10024560 f i libsg_MSVC150_vc:sg_common.obj
 0001:00023590       ??_G_Generic_error_category@std@@UAEPAXI@Z 10024590 f i libsg_MSVC150_vc:sg_common.obj
 0001:00023590       ??_E_Generic_error_category@std@@UAEPAXI@Z 10024590 f i libsg_MSVC150_vc:sg_common.obj
 0001:000235c0       ??_G_Iostream_error_category@std@@UAEPAXI@Z 100245c0 f i libsg_MSVC150_vc:sg_common.obj
 0001:000235c0       ??_E_Iostream_error_category@std@@UAEPAXI@Z 100245c0 f i libsg_MSVC150_vc:sg_common.obj
 0001:000235f0       ??_E_System_error@std@@UAEPAXI@Z 100245f0 f i libsg_MSVC150_vc:sg_common.obj
 0001:000235f0       ??_G_System_error@std@@UAEPAXI@Z 100245f0 f i libsg_MSVC150_vc:sg_common.obj
 0001:00023630       ??_Ebad_cast@std@@UAEPAXI@Z 10024630 f i libsg_MSVC150_vc:sg_common.obj
 0001:00023630       ??_Gbad_cast@std@@UAEPAXI@Z 10024630 f i libsg_MSVC150_vc:sg_common.obj
 0001:00023670       ??_Ectype_base@std@@UAEPAXI@Z 10024670 f i libsg_MSVC150_vc:sg_common.obj
 0001:00023670       ??_Gctype_base@std@@UAEPAXI@Z 10024670 f i libsg_MSVC150_vc:sg_common.obj
 0001:000236a0       ??_Eexception@std@@UAEPAXI@Z 100246a0 f i libsg_MSVC150_vc:sg_common.obj
 0001:000236a0       ??_Gexception@std@@UAEPAXI@Z 100246a0 f i libsg_MSVC150_vc:sg_common.obj
 0001:000236e0       ??_Efacet@locale@std@@MAEPAXI@Z 100246e0 f i libsg_MSVC150_vc:sg_common.obj
 0001:000236e0       ??_Gfacet@locale@std@@MAEPAXI@Z 100246e0 f i libsg_MSVC150_vc:sg_common.obj
 0001:00023710       ??_Efailure@ios_base@std@@UAEPAXI@Z 10024710 f i libsg_MSVC150_vc:sg_common.obj
 0001:00023710       ??_Gfailure@ios_base@std@@UAEPAXI@Z 10024710 f i libsg_MSVC150_vc:sg_common.obj
 0001:00023750       ??_Eruntime_error@std@@UAEPAXI@Z 10024750 f i libsg_MSVC150_vc:sg_common.obj
 0001:00023750       ??_Gruntime_error@std@@UAEPAXI@Z 10024750 f i libsg_MSVC150_vc:sg_common.obj
 0001:00023790       ??_Gsystem_error@std@@UAEPAXI@Z 10024790 f i libsg_MSVC150_vc:sg_common.obj
 0001:00023790       ??_Esystem_error@std@@UAEPAXI@Z 10024790 f i libsg_MSVC150_vc:sg_common.obj
 0001:000237d0       ?_Decref@facet@locale@std@@UAEPAV_Facet_base@3@XZ 100247d0 f i libsg_MSVC150_vc:sg_common.obj
 0001:000237f0       ?_Ffmt@?$num_put@DV?$ostreambuf_iterator@DU?$char_traits@D@std@@@std@@@std@@ABAPADPADDH@Z 100247f0 f i libsg_MSVC150_vc:sg_common.obj
 0001:000238e0       ?_Fput@?$num_put@DV?$ostreambuf_iterator@DU?$char_traits@D@std@@@std@@@std@@ABA?AV?$ostreambuf_iterator@DU?$char_traits@D@std@@@2@V32@AAVios_base@2@DPBDI@Z 100248e0 f i libsg_MSVC150_vc:sg_common.obj
 0001:00024010       ?_Ifmt@?$num_put@DV?$ostreambuf_iterator@DU?$char_traits@D@std@@@std@@@std@@ABAPADPADPBDH@Z 10025010 f i libsg_MSVC150_vc:sg_common.obj
 0001:000240c0       ?_Incref@facet@locale@std@@UAEXXZ 100250c0 f i libsg_MSVC150_vc:sg_common.obj
 0001:000240d0       ?_Init@?$numpunct@D@std@@IAEXABV_Locinfo@2@_N@Z 100250d0 f i libsg_MSVC150_vc:sg_common.obj
 0001:000242d0       ?_Iput@?$num_put@DV?$ostreambuf_iterator@DU?$char_traits@D@std@@@std@@@std@@ABA?AV?$ostreambuf_iterator@DU?$char_traits@D@std@@@2@V32@AAVios_base@2@DPADI@Z 100252d0 f i libsg_MSVC150_vc:sg_common.obj
 0001:00024930       ?_Osfx@?$basic_ostream@DU?$char_traits@D@std@@@std@@QAEXXZ 10025930 f i libsg_MSVC150_vc:sg_common.obj
 0001:00024a30       ?_Put@?$num_put@DV?$ostreambuf_iterator@DU?$char_traits@D@std@@@std@@@std@@ABA?AV?$ostreambuf_iterator@DU?$char_traits@D@std@@@2@V32@PBDI@Z 10025a30 f i libsg_MSVC150_vc:sg_common.obj
 0001:00024ac0       ?_Rep@?$num_put@DV?$ostreambuf_iterator@DU?$char_traits@D@std@@@std@@@std@@ABA?AV?$ostreambuf_iterator@DU?$char_traits@D@std@@@2@V32@DI@Z 10025ac0 f i libsg_MSVC150_vc:sg_common.obj
 0001:00024b50       ?_Tidy@?$numpunct@D@std@@AAEXXZ 10025b50 f i libsg_MSVC150_vc:sg_common.obj
 0001:00024b80       ?_Tidy_deallocate@?$basic_string@DU?$char_traits@D@std@@V?$allocator@D@2@@std@@QAEXXZ 10025b80 f i libsg_MSVC150_vc:sg_common.obj
 0001:00024be0       ?_Xlen@?$basic_string@DU?$char_traits@D@std@@V?$allocator@D@2@@std@@SAXXZ 10025be0 f i libsg_MSVC150_vc:sg_common.obj
 0001:00024bf0       ?_Xlength@?$vector@V?$basic_string@DU?$char_traits@D@std@@V?$allocator@D@2@@std@@V?$allocator@V?$basic_string@DU?$char_traits@D@std@@V?$allocator@D@2@@std@@@2@@std@@CAXXZ 10025bf0 f i libsg_MSVC150_vc:sg_common.obj
 0001:00024c00       ?_Xran@?$_String_val@U?$_Simple_types@D@std@@@std@@SAXXZ 10025c00 f i libsg_MSVC150_vc:sg_common.obj
 0001:00024c10       ?allocate@?$allocator@D@std@@QAEPADI@Z 10025c10 f i libsg_MSVC150_vc:sg_common.obj
 0001:00024c80       ?append@?$basic_string@DU?$char_traits@D@std@@V?$allocator@D@2@@std@@QAEAAV12@ID@Z 10025c80 f i libsg_MSVC150_vc:sg_common.obj
 0001:00024e40       ?append@?$basic_string@DU?$char_traits@D@std@@V?$allocator@D@2@@std@@QAEAAV12@QBDI@Z 10025e40 f i libsg_MSVC150_vc:sg_common.obj
 0001:00024ff0       ?assign@?$basic_string@DU?$char_traits@D@std@@V?$allocator@D@2@@std@@QAEAAV12@QBDI@Z 10025ff0 f i libsg_MSVC150_vc:sg_common.obj
 0001:00025120       ?clear@ios_base@std@@QAEXH_N@Z 10026120 f i libsg_MSVC150_vc:sg_common.obj
 0001:000251b0       ?deallocate@?$allocator@V?$basic_string@DU?$char_traits@D@std@@V?$allocator@D@2@@std@@@std@@QAEXQAV?$basic_string@DU?$char_traits@D@std@@V?$allocator@D@2@@2@I@Z 100261b0 f i libsg_MSVC150_vc:sg_common.obj
 0001:00025200       ?dec@std@@YAAAVios_base@1@AAV21@@Z 10026200 f i libsg_MSVC150_vc:sg_common.obj
 0001:00025220       ?default_error_condition@error_category@std@@UBE?AVerror_condition@2@H@Z 10026220 f i libsg_MSVC150_vc:sg_common.obj
 0001:00025240       ?do_decimal_point@?$numpunct@D@std@@MBEDXZ 10026240 f i libsg_MSVC150_vc:sg_common.obj
 0001:00025250       ?do_falsename@?$numpunct@D@std@@MBE?AV?$basic_string@DU?$char_traits@D@std@@V?$allocator@D@2@@2@XZ 10026250 f i libsg_MSVC150_vc:sg_common.obj
 0001:000252a0       ?do_grouping@?$numpunct@D@std@@MBE?AV?$basic_string@DU?$char_traits@D@std@@V?$allocator@D@2@@2@XZ 100262a0 f i libsg_MSVC150_vc:sg_common.obj
 0001:000252f0       ?do_narrow@?$ctype@D@std@@MBEDDD@Z 100262f0 f i libsg_MSVC150_vc:sg_common.obj
 0001:00025300       ?do_narrow@?$ctype@D@std@@MBEPBDPBD0DPAD@Z 10026300 f i libsg_MSVC150_vc:sg_common.obj
 0001:00025330       ?do_put@?$num_put@DV?$ostreambuf_iterator@DU?$char_traits@D@std@@@std@@@std@@MBE?AV?$ostreambuf_iterator@DU?$char_traits@D@std@@@2@V32@AAVios_base@2@DJ@Z 10026330 f i libsg_MSVC150_vc:sg_common.obj
 0001:000253c0       ?do_put@?$num_put@DV?$ostreambuf_iterator@DU?$char_traits@D@std@@@std@@@std@@MBE?AV?$ostreambuf_iterator@DU?$char_traits@D@std@@@2@V32@AAVios_base@2@DK@Z 100263c0 f i libsg_MSVC150_vc:sg_common.obj
 0001:00025450       ?do_put@?$num_put@DV?$ostreambuf_iterator@DU?$char_traits@D@std@@@std@@@std@@MBE?AV?$ostreambuf_iterator@DU?$char_traits@D@std@@@2@V32@AAVios_base@2@DN@Z 10026450 f i libsg_MSVC150_vc:sg_common.obj
 0001:00025680       ?do_put@?$num_put@DV?$ostreambuf_iterator@DU?$char_traits@D@std@@@std@@@std@@MBE?AV?$ostreambuf_iterator@DU?$char_traits@D@std@@@2@V32@AAVios_base@2@DO@Z 10026680 f i libsg_MSVC150_vc:sg_common.obj
 0001:000258b0       ?do_put@?$num_put@DV?$ostreambuf_iterator@DU?$char_traits@D@std@@@std@@@std@@MBE?AV?$ostreambuf_iterator@DU?$char_traits@D@std@@@2@V32@AAVios_base@2@DPBX@Z 100268b0 f i libsg_MSVC150_vc:sg_common.obj
 0001:00025930       ?do_put@?$num_put@DV?$ostreambuf_iterator@DU?$char_traits@D@std@@@std@@@std@@MBE?AV?$ostreambuf_iterator@DU?$char_traits@D@std@@@2@V32@AAVios_base@2@D_J@Z 10026930 f i libsg_MSVC150_vc:sg_common.obj
 0001:000259c0       ?do_put@?$num_put@DV?$ostreambuf_iterator@DU?$char_traits@D@std@@@std@@@std@@MBE?AV?$ostreambuf_iterator@DU?$char_traits@D@std@@@2@V32@AAVios_base@2@D_K@Z 100269c0 f i libsg_MSVC150_vc:sg_common.obj
 0001:00025a50       ?do_put@?$num_put@DV?$ostreambuf_iterator@DU?$char_traits@D@std@@@std@@@std@@MBE?AV?$ostreambuf_iterator@DU?$char_traits@D@std@@@2@V32@AAVios_base@2@D_N@Z 10026a50 f i libsg_MSVC150_vc:sg_common.obj
 0001:00025ce0       ?do_thousands_sep@?$numpunct@D@std@@MBEDXZ 10026ce0 f i libsg_MSVC150_vc:sg_common.obj
 0001:00025cf0       ?do_tolower@?$ctype@D@std@@MBEDD@Z 10026cf0 f i libsg_MSVC150_vc:sg_common.obj
 0001:00025d10       ?do_tolower@?$ctype@D@std@@MBEPBDPADPBD@Z 10026d10 f i libsg_MSVC150_vc:sg_common.obj
 0001:00025d70       ?do_toupper@?$ctype@D@std@@MBEDD@Z 10026d70 f i libsg_MSVC150_vc:sg_common.obj
 0001:00025d90       ?do_toupper@?$ctype@D@std@@MBEPBDPADPBD@Z 10026d90 f i libsg_MSVC150_vc:sg_common.obj
 0001:00025df0       ?do_truename@?$numpunct@D@std@@MBE?AV?$basic_string@DU?$char_traits@D@std@@V?$allocator@D@2@@2@XZ 10026df0 f i libsg_MSVC150_vc:sg_common.obj
 0001:00025e40       ?do_widen@?$ctype@D@std@@MBEDD@Z 10026e40 f i libsg_MSVC150_vc:sg_common.obj
 0001:00025e50       ?do_widen@?$ctype@D@std@@MBEPBDPBD0PAD@Z 10026e50 f i libsg_MSVC150_vc:sg_common.obj
 0001:00025e80       ?equivalent@error_category@std@@UBE_NABVerror_code@2@H@Z 10026e80 f i libsg_MSVC150_vc:sg_common.obj
 0001:00025eb0       ?equivalent@error_category@std@@UBE_NHABVerror_condition@2@@Z 10026eb0 f i libsg_MSVC150_vc:sg_common.obj
 0001:00025f00       ?flush@?$basic_ostream@DU?$char_traits@D@std@@@std@@QAEAAV12@XZ 10026f00 f i libsg_MSVC150_vc:sg_common.obj
 0001:00026040       ?hex@std@@YAAAVios_base@1@AAV21@@Z 10027040 f i libsg_MSVC150_vc:sg_common.obj
 0001:00026060       ?make_error_code@std@@YA?AVerror_code@1@W4io_errc@1@@Z 10027060 f i libsg_MSVC150_vc:sg_common.obj
 0001:000260a0       ?message@_Generic_error_category@std@@UBE?AV?$basic_string@DU?$char_traits@D@std@@V?$allocator@D@2@@2@H@Z 100270a0 f i libsg_MSVC150_vc:sg_common.obj
 0001:00026100       ?message@_Iostream_error_category@std@@UBE?AV?$basic_string@DU?$char_traits@D@std@@V?$allocator@D@2@@2@H@Z 10027100 f i libsg_MSVC150_vc:sg_common.obj
 0001:000261a0       ?name@_Generic_error_category@std@@UBEPBDXZ 100271a0 f i libsg_MSVC150_vc:sg_common.obj
 0001:000261b0       ?name@_Iostream_error_category@std@@UBEPBDXZ 100271b0 f i libsg_MSVC150_vc:sg_common.obj
 0001:000261c0       ?push_back@?$vector@V?$basic_string@DU?$char_traits@D@std@@V?$allocator@D@2@@std@@V?$allocator@V?$basic_string@DU?$char_traits@D@std@@V?$allocator@D@2@@std@@@2@@std@@QAEX$$QAV?$basic_string@DU?$char_traits@D@std@@V?$allocator@D@2@@2@@Z 100271c0 f i libsg_MSVC150_vc:sg_common.obj
 0001:00026230       ?put@?$basic_ostream@DU?$char_traits@D@std@@@std@@QAEAAV12@D@Z 10027230 f i libsg_MSVC150_vc:sg_common.obj
 0001:00026470       ?setstate@?$basic_ios@DU?$char_traits@D@std@@@std@@QAEXH_N@Z 10027470 f i libsg_MSVC150_vc:sg_common.obj
 0001:000264d0       ?to_string@std@@YA?AV?$basic_string@DU?$char_traits@D@std@@V?$allocator@D@2@@1@_J@Z 100274d0 f i libsg_MSVC150_vc:sg_common.obj
 0001:00026580       ?what@exception@std@@UBEPBDXZ 10027580 f i libsg_MSVC150_vc:sg_common.obj
 0001:000265a0       _createEncryptedMacFile    100275a0 f   libsg_MSVC150_vc:sg_common.obj
 0001:00026630       _createHashValue           10027630 f   libsg_MSVC150_vc:sg_common.obj
 0001:00026660       _getLowestBit              10027660 f   libsg_MSVC150_vc:sg_common.obj
 0001:00026690       _getPCIConfigData          10027690 f   libsg_MSVC150_vc:sg_common.obj
 0001:000266b0       _getTargetAuthentication   100276b0 f   libsg_MSVC150_vc:sg_common.obj
 0001:00027510       _printWarningMessage       10028510 f   libsg_MSVC150_vc:sg_common.obj
 0001:00027550       _readPciBar                10028550 f   libsg_MSVC150_vc:sg_common.obj
 0001:00027690       _setPCIConfigAddress       10028690 f   libsg_MSVC150_vc:sg_common.obj
 0001:000276e0       _setPCIConfigData          100286e0 f   libsg_MSVC150_vc:sg_common.obj
 0001:00027700       _sg_checkTargetAuthentication 10028700 f   libsg_MSVC150_vc:sg_common.obj
 0001:00027730       _sg_createMutex            10028730 f   libsg_MSVC150_vc:sg_common.obj
 0001:00027750       _sg_createSemaphore        10028750 f   libsg_MSVC150_vc:sg_common.obj
 0001:00027770       _sg_createThread           10028770 f   libsg_MSVC150_vc:sg_common.obj
 0001:000277b0       _sg_destroyMutex           100287b0 f   libsg_MSVC150_vc:sg_common.obj
 0001:000277d0       _sg_destroySemaphore       100287d0 f   libsg_MSVC150_vc:sg_common.obj
 0001:000277f0       _sg_destroyThread          100287f0 f   libsg_MSVC150_vc:sg_common.obj
 0001:00027820       _sg_detectPciDevice        10028820 f   libsg_MSVC150_vc:sg_common.obj
 0001:00027850       _sg_doesFsNodeExist        10028850 f   libsg_MSVC150_vc:sg_common.obj
 0001:00027870       _sg_findPciDevice          10028870 f   libsg_MSVC150_vc:sg_common.obj
 0001:00027ba0       _sg_fullFile               10028ba0 f   libsg_MSVC150_vc:sg_common.obj
 0001:00027c70       _sg_getElapsedTime         10028c70 f   libsg_MSVC150_vc:sg_common.obj
 0001:00027c90       _sg_lockMutex              10028c90 f   libsg_MSVC150_vc:sg_common.obj
 0001:00027cb0       _sg_mapIo                  10028cb0 f   libsg_MSVC150_vc:sg_common.obj
 0001:00027cd0       _sg_mapMemory              10028cd0 f   libsg_MSVC150_vc:sg_common.obj
 0001:00027d00       _sg_module_get             10028d00 f   libsg_MSVC150_vc:sg_common.obj
 0001:00027dc0       _sg_module_register        10028dc0 f   libsg_MSVC150_vc:sg_common.obj
 0001:00027e80       _sg_module_unregister      10028e80 f   libsg_MSVC150_vc:sg_common.obj
 0001:00027f90       _sg_releaseSemaphore       10028f90 f   libsg_MSVC150_vc:sg_common.obj
 0001:00027fb0       _sg_setAbilities           10028fb0 f   libsg_MSVC150_vc:sg_common.obj
 0001:00027fc0       _sg_showPciDevice          10028fc0 f   libsg_MSVC150_vc:sg_common.obj
 0001:000280a0       _sg_tryLockMutex           100290a0 f   libsg_MSVC150_vc:sg_common.obj
 0001:000280c0       _sg_unlockMutex            100290c0 f   libsg_MSVC150_vc:sg_common.obj
 0001:000280e0       _sg_waitForSemaphore       100290e0 f   libsg_MSVC150_vc:sg_common.obj
 0001:00028100       _sg_wait_ns                10029100 f   libsg_MSVC150_vc:sg_common.obj
 0001:00028160       _sg_wait_s                 10029160 f   libsg_MSVC150_vc:sg_common.obj
 0001:00028190       _sprintf_s                 10029190 f i libsg_MSVC150_vc:sg_common.obj
 0001:000281d0       _sg_getTargetMatlabVersion 100291d0 f   libsg_MSVC150_vc:sg_target.obj
 0001:00028470       _sg_target_getHostLinkMac  10029470 f   libsg_MSVC150_vc:sg_target.obj
 0001:000284b0       ?MurmurHash3_x64_128@@YAXPBXHIPAX@Z 100294b0 f   libsg_MSVC150_vc:MurmurHash3.obj
 0001:00028a10       ?MurmurHash3_x86_128@@YAXPBXHIPAX@Z 10029a10 f   libsg_MSVC150_vc:MurmurHash3.obj
 0001:00028df0       ?MurmurHash3_x86_32@@YAXPBXHIPAX@Z 10029df0 f   libsg_MSVC150_vc:MurmurHash3.obj
 0001:00028ee0       __ftoui3                   10029ee0 f   LIBCMT:ftol3.obj
 0001:00028eef       __ftoul3                   10029eef f   LIBCMT:ftol3.obj
 0001:00028efe       __ftol3                    10029efe f   LIBCMT:ftol3.obj
 0001:00028f0b       __ftol3_NaN                10029f0b f   LIBCMT:ftol3.obj
 0001:00028f23       __ftol3_work               10029f23 f   LIBCMT:ftol3.obj
 0001:00028fa9       __ftol3_common             10029fa9 f   LIBCMT:ftol3.obj
 0001:0002906b       __ftol3_arg_error          1002a06b f   LIBCMT:ftol3.obj
 0001:0002907d       __ftol3_except             1002a07d f   LIBCMT:ftol3.obj
 0001:000290c1       __dtoui3                   1002a0c1 f   LIBCMT:ftol3.obj
 0001:000290d0       __dtoul3                   1002a0d0 f   LIBCMT:ftol3.obj
 0001:000290df       __dtol3                    1002a0df f   LIBCMT:ftol3.obj
 0001:000290ec       __dtol3_NaN                1002a0ec f   LIBCMT:ftol3.obj
 0001:00029109       __dtol3_work               1002a109 f   LIBCMT:ftol3.obj
 0001:000291f0       __ultod3                   1002a1f0 f   LIBCMT:ftol3.obj
 0001:00029230       __ltod3                    1002a230 f   LIBCMT:ftol3.obj
 0001:00029334       ___raise_securityfailure   1002a334 f   LIBCMT:gs_report.obj
 0001:00029366       ___report_gsfailure        1002a366 f   LIBCMT:gs_report.obj
 0001:0002949d       ___report_rangecheckfailure 1002a49d f   LIBCMT:gs_report.obj
 0001:000294ac       ___report_securityfailure  1002a4ac f   LIBCMT:gs_report.obj
 0001:000295ad       ___report_securityfailureEx 1002a5ad f   LIBCMT:gs_report.obj
 0001:00029706       @__security_check_cookie@4 1002a706 f   LIBCMT:secchk.obj
 0001:0002971b       ___isa_available_init      1002a71b f   LIBCMT:cpu_disp.obj
 0001:00029cfc       __CRT_INIT@12              1002acfc f   LIBCMT:dll_dllmain.obj
 0001:00029d07       __DllMainCRTStartup@12     1002ad07 f   LIBCMT:dll_dllmain.obj
 0001:00029d32       ??2@YAPAXI@Z               1002ad32 f   LIBCMT:new_scalar.obj
 0001:00029d6e       ??3@YAXPAXI@Z              1002ad6e f   LIBCMT:delete_scalar_size.obj
 0001:00029d7f       ??_U@YAPAXI@Z              1002ad7f f   LIBCMT:new_array.obj
 0001:00029d8a       ??_V@YAXPAX@Z              1002ad8a f   LIBCMT:delete_array.obj
 0001:00029d90       __aulldiv                  1002ad90 f   LIBCMT:ulldiv.obj
 0001:00029e12       ??1type_info@@UAE@XZ       1002ae12 f   LIBCMT:std_type_info_static.obj
 0001:00029e19       ??_Gtype_info@@UAEPAXI@Z   1002ae19 f i LIBCMT:std_type_info_static.obj
 0001:00029e19       ??_Etype_info@@UAEPAXI@Z   1002ae19 f i LIBCMT:std_type_info_static.obj
 0001:00029e50       __allmul                   1002ae50 f   LIBCMT:llmul.obj
 0001:00029ef1       ___security_init_cookie    1002aef1 f   LIBCMT:gs_support.obj
 0001:00029f4e       ?__scrt_initialize_type_info@@YAXXZ 1002af4e f   LIBCMT:tncleanup.obj
 0001:00029f5d       ?__scrt_uninitialize_type_info@@YAXXZ 1002af5d f   LIBCMT:tncleanup.obj
 0001:00029f6c       ___local_stdio_scanf_options 1002af6c f i LIBCMT:default_local_stdio_options.obj
 0001:00029f72       ___scrt_initialize_default_local_stdio_options 1002af72 f   LIBCMT:default_local_stdio_options.obj
 0001:00029f96       ??$__crt_fast_decode_pointer@PAP6AXXZ@@YAPAP6AXXZQAP6AXXZ@Z 1002af96 f i LIBCMT:utility.obj
 0001:00029faf       ??$__crt_fast_encode_pointer@PAP6AXXZ@@YAPAP6AXXZQAP6AXXZ@Z 1002afaf f i LIBCMT:utility.obj
 0001:00029fd3       ?__crt_rotate_pointer_value@@YAIIH@Z 1002afd3 f i LIBCMT:utility.obj
 0001:00029fe3       ?configure_argv@__scrt_narrow_argv_policy@@SAHXZ 1002afe3 f i LIBCMT:utility.obj
 0001:0002a048       ?initialize_environment@__scrt_narrow_environment_policy@@SAHXZ 1002b048 f i LIBCMT:utility.obj
 0001:0002a08e       _NtCurrentTeb              1002b08e f i LIBCMT:utility.obj
 0001:0002a095       ___scrt_acquire_startup_lock 1002b095 f   LIBCMT:utility.obj
 0001:0002a0d3       ___scrt_dllmain_after_initialize_c 1002b0d3 f   LIBCMT:utility.obj
 0001:0002a108       ___scrt_dllmain_before_initialize_c 1002b108 f   LIBCMT:utility.obj
 0001:0002a119       ___scrt_dllmain_crt_thread_attach 1002b119 f   LIBCMT:utility.obj
 0001:0002a13f       ___scrt_dllmain_crt_thread_detach 1002b13f f   LIBCMT:utility.obj
 0001:0002a14f       ___scrt_dllmain_exception_filter 1002b14f f   LIBCMT:utility.obj
 0001:0002a190       ___scrt_dllmain_uninitialize_c 1002b190 f   LIBCMT:utility.obj
 0001:0002a1bb       ___scrt_dllmain_uninitialize_critical 1002b1bb f   LIBCMT:utility.obj
 0001:0002a1cb       ___scrt_initialize_crt     1002b1cb f   LIBCMT:utility.obj
 0001:0002a212       ___scrt_initialize_onexit_tables 1002b212 f   LIBCMT:utility.obj
 0001:0002a2e0       ___scrt_is_nonwritable_in_current_image 1002b2e0 f   LIBCMT:utility.obj
 0001:0002a399       ___scrt_release_startup_lock 1002b399 f   LIBCMT:utility.obj
 0001:0002a3bd       ___scrt_uninitialize_crt   1002b3bd f   LIBCMT:utility.obj
 0001:0002a3ef       __onexit                   1002b3ef f   LIBCMT:utility.obj
 0001:0002a438       _at_quick_exit             1002b438 f   LIBCMT:utility.obj
 0001:0002a475       _atexit                    1002b475 f   LIBCMT:utility.obj
 0001:0002a48f       ___scrt_get_dyn_tls_init_callback 1002b48f f   LIBCMT:dyn_tls_init.obj
 0001:0002a495       ___scrt_fastfail           1002b495 f   LIBCMT:utility_desktop.obj
 0001:0002a5f5       ___scrt_get_show_window_mode 1002b5f5 f   LIBCMT:utility_desktop.obj
 0001:0002a632       ___scrt_initialize_mta     1002b632 f   LIBCMT:utility_desktop.obj
 0001:0002a637       ___scrt_initialize_winrt   1002b637 f   LIBCMT:utility_desktop.obj
 0001:0002a63a       ___scrt_is_managed_app     1002b63a f   LIBCMT:utility_desktop.obj
 0001:0002a68d       ___scrt_set_unhandled_exception_filter 1002b68d f   LIBCMT:utility_desktop.obj
 0001:0002a69c       ___scrt_stub_for_initialize_mta 1002b69c f   LIBCMT:utility_desktop.obj
 0001:0002a69c       ___scrt_exe_initialize_mta 1002b69c f   LIBCMT:utility_desktop.obj
 0001:0002a69f       ___scrt_unhandled_exception_filter@4 1002b69f f   LIBCMT:utility_desktop.obj
 0001:0002a6f0       __crt_debugger_hook        1002b6f0 f   LIBCMT:utility_desktop.obj
 0001:0002a6fa       __RTC_Initialize           1002b6fa f   LIBCMT:initsect.obj
 0001:0002a731       __RTC_Terminate            1002b731 f   LIBCMT:initsect.obj
 0001:0002a770       __SEH_prolog4              1002b770 f   LIBCMT:sehprolg4.obj
 0001:0002a7b6       __SEH_epilog4              1002b7b6 f   LIBCMT:sehprolg4.obj
 0001:0002a7e1       @_guard_check_icall_nop@4  1002b7e1 f i LIBCMT:guard_support.obj
 0001:0002a7e2       _ReadNoFence               1002b7e2 f i LIBCMT:guard_support.obj
 0001:0002a7ee       _ReadPointerNoFence        1002b7ee f i LIBCMT:guard_support.obj
 0001:0002a7fa       __guard_icall_checks_enforced 1002b7fa f i LIBCMT:guard_support.obj
 0001:0002a810       ??0bad_alloc@std@@AAE@QBD@Z 1002b810 f i LIBCMT:throw_bad_alloc.obj
 0001:0002a834       ??0bad_alloc@std@@QAE@ABV01@@Z 1002b834 f i LIBCMT:throw_bad_alloc.obj
 0001:0002a855       ??0bad_alloc@std@@QAE@XZ   1002b855 f i LIBCMT:throw_bad_alloc.obj
 0001:0002a873       ??0bad_array_new_length@std@@QAE@ABV01@@Z 1002b873 f i LIBCMT:throw_bad_alloc.obj
 0001:0002a894       ??0bad_array_new_length@std@@QAE@XZ 1002b894 f i LIBCMT:throw_bad_alloc.obj
 0001:0002a8b2       ??0exception@std@@QAE@QBDH@Z 1002b8b2 f i LIBCMT:throw_bad_alloc.obj
 0001:0002a8d6       ??1bad_alloc@std@@UAE@XZ   1002b8d6 f i LIBCMT:throw_bad_alloc.obj
 0001:0002a8eb       ??1bad_array_new_length@std@@UAE@XZ 1002b8eb f i LIBCMT:throw_bad_alloc.obj
 0001:0002a900       ??_Gbad_alloc@std@@UAEPAXI@Z 1002b900 f i LIBCMT:throw_bad_alloc.obj
 0001:0002a900       ??_Ebad_alloc@std@@UAEPAXI@Z 1002b900 f i LIBCMT:throw_bad_alloc.obj
 0001:0002a938       ??_Ebad_array_new_length@std@@UAEPAXI@Z 1002b938 f i LIBCMT:throw_bad_alloc.obj
 0001:0002a938       ??_Gbad_array_new_length@std@@UAEPAXI@Z 1002b938 f i LIBCMT:throw_bad_alloc.obj
 0001:0002a970       ?__scrt_throw_std_bad_alloc@@YAXXZ 1002b970 f   LIBCMT:throw_bad_alloc.obj
 0001:0002a994       ?__scrt_throw_std_bad_array_new_length@@YAXXZ 1002b994 f   LIBCMT:throw_bad_alloc.obj
 0001:0002a9b8       ??3@YAXPAX@Z               1002b9b8 f   LIBCMT:delete_scalar.obj
 0001:0002a9bd       __get_startup_argv_mode    1002b9bd f   LIBCMT:argv_mode.obj
 0001:0002a9c1       ___scrt_is_ucrt_dll_in_use 1002b9c1 f   LIBCMT:ucrt_detection.obj
 0001:0002a9d0       ??0_Init_locks@std@@QAE@XZ 1002b9d0 f   libcpmt:xlock.obj
 0001:0002aa08       ??0_Lockit@std@@QAE@H@Z    1002ba08 f   libcpmt:xlock.obj
 0001:0002aa45       ??0_Lockit@std@@QAE@XZ     1002ba45 f   libcpmt:xlock.obj
 0001:0002aa57       ??1_Init_locks@std@@QAE@XZ 1002ba57 f   libcpmt:xlock.obj
 0001:0002aa87       ??1_Lockit@std@@QAE@XZ     1002ba87 f   libcpmt:xlock.obj
 0001:0002aaad       ?_Init_locks_ctor@_Init_locks@std@@CAXPAV12@@Z 1002baad f   libcpmt:xlock.obj
 0001:0002aadd       ?_Init_locks_dtor@_Init_locks@std@@CAXPAV12@@Z 1002badd f   libcpmt:xlock.obj
 0001:0002ab0d       ?_Lockit_ctor@_Lockit@std@@CAXPAV12@@Z 1002bb0d f   libcpmt:xlock.obj
 0001:0002ab1c       ?_Lockit_ctor@_Lockit@std@@CAXPAV12@H@Z 1002bb1c f   libcpmt:xlock.obj
 0001:0002ab4f       ?_Lockit_ctor@_Lockit@std@@SAXH@Z 1002bb4f f   libcpmt:xlock.obj
 0001:0002ab7c       ?_Lockit_dtor@_Lockit@std@@CAXPAV12@@Z 1002bb7c f   libcpmt:xlock.obj
 0001:0002ab98       ?_Lockit_dtor@_Lockit@std@@SAXH@Z 1002bb98 f   libcpmt:xlock.obj
 0001:0002abc5       __Lock_at_thread_exit_mutex 1002bbc5 f   libcpmt:xlock.obj
 0001:0002abd4       __Unlock_at_thread_exit_mutex 1002bbd4 f   libcpmt:xlock.obj
 0001:0002abe3       ?uncaught_exception@std@@YA_NXZ 1002bbe3 f   libcpmt:uncaught_exception.obj
 0001:0002abe8       ??0bad_function_call@std@@QAE@ABV01@@Z 1002bbe8 f i libcpmt:xthrow.obj
 0001:0002ac09       ??0bad_function_call@std@@QAE@XZ 1002bc09 f i libcpmt:xthrow.obj
 0001:0002ac1e       ??0exception@std@@QAE@QBD@Z 1002bc1e f i libcpmt:xthrow.obj
 0001:0002ac60       ??0exception@std@@QAE@XZ   1002bc60 f i libcpmt:xthrow.obj
 0001:0002ac75       ??0invalid_argument@std@@QAE@ABV01@@Z 1002bc75 f i libcpmt:xthrow.obj
 0001:0002ac96       ??0invalid_argument@std@@QAE@PBD@Z 1002bc96 f i libcpmt:xthrow.obj
 0001:0002acbc       ??0length_error@std@@QAE@ABV01@@Z 1002bcbc f i libcpmt:xthrow.obj
 0001:0002acdd       ??0length_error@std@@QAE@PBD@Z 1002bcdd f i libcpmt:xthrow.obj
 0001:0002ad03       ??0logic_error@std@@QAE@ABV01@@Z 1002bd03 f i libcpmt:xthrow.obj
 0001:0002ad24       ??0logic_error@std@@QAE@PBD@Z 1002bd24 f i libcpmt:xthrow.obj
 0001:0002ad4a       ??0out_of_range@std@@QAE@ABV01@@Z 1002bd4a f i libcpmt:xthrow.obj
 0001:0002ad6b       ??0out_of_range@std@@QAE@PBD@Z 1002bd6b f i libcpmt:xthrow.obj
 0001:0002ad91       ??0overflow_error@std@@QAE@ABV01@@Z 1002bd91 f i libcpmt:xthrow.obj
 0001:0002adb2       ??0overflow_error@std@@QAE@PBD@Z 1002bdb2 f i libcpmt:xthrow.obj
 0001:0002add8       ??0regex_error@std@@QAE@ABV01@@Z 1002bdd8 f i libcpmt:xthrow.obj
 0001:0002ae05       ??0regex_error@std@@QAE@W4error_type@regex_constants@1@@Z 1002be05 f i libcpmt:xthrow.obj
 0001:0002ae3e       ??1bad_function_call@std@@UAE@XZ 1002be3e f i libcpmt:xthrow.obj
 0001:0002ae53       ??1invalid_argument@std@@UAE@XZ 1002be53 f i libcpmt:xthrow.obj
 0001:0002ae68       ??1length_error@std@@UAE@XZ 1002be68 f i libcpmt:xthrow.obj
 0001:0002ae7d       ??1logic_error@std@@UAE@XZ 1002be7d f i libcpmt:xthrow.obj
 0001:0002ae92       ??1out_of_range@std@@UAE@XZ 1002be92 f i libcpmt:xthrow.obj
 0001:0002aea7       ??1overflow_error@std@@UAE@XZ 1002bea7 f i libcpmt:xthrow.obj
 0001:0002aebc       ??1regex_error@std@@UAE@XZ 1002bebc f i libcpmt:xthrow.obj
 0001:0002aed1       ??_Ebad_function_call@std@@UAEPAXI@Z 1002bed1 f i libcpmt:xthrow.obj
 0001:0002aed1       ??_Gbad_function_call@std@@UAEPAXI@Z 1002bed1 f i libcpmt:xthrow.obj
 0001:0002af09       ??_Ginvalid_argument@std@@UAEPAXI@Z 1002bf09 f i libcpmt:xthrow.obj
 0001:0002af09       ??_Einvalid_argument@std@@UAEPAXI@Z 1002bf09 f i libcpmt:xthrow.obj
 0001:0002af41       ??_Glength_error@std@@UAEPAXI@Z 1002bf41 f i libcpmt:xthrow.obj
 0001:0002af41       ??_Elength_error@std@@UAEPAXI@Z 1002bf41 f i libcpmt:xthrow.obj
 0001:0002af79       ??_Glogic_error@std@@UAEPAXI@Z 1002bf79 f i libcpmt:xthrow.obj
 0001:0002af79       ??_Elogic_error@std@@UAEPAXI@Z 1002bf79 f i libcpmt:xthrow.obj
 0001:0002afb1       ??_Eout_of_range@std@@UAEPAXI@Z 1002bfb1 f i libcpmt:xthrow.obj
 0001:0002afb1       ??_Gout_of_range@std@@UAEPAXI@Z 1002bfb1 f i libcpmt:xthrow.obj
 0001:0002afe9       ??_Goverflow_error@std@@UAEPAXI@Z 1002bfe9 f i libcpmt:xthrow.obj
 0001:0002afe9       ??_Eoverflow_error@std@@UAEPAXI@Z 1002bfe9 f i libcpmt:xthrow.obj
 0001:0002b021       ??_Gregex_error@std@@UAEPAXI@Z 1002c021 f i libcpmt:xthrow.obj
 0001:0002b021       ??_Eregex_error@std@@UAEPAXI@Z 1002c021 f i libcpmt:xthrow.obj
 0001:0002b059       ?_Stringify@regex_error@std@@CAPBDW4error_type@regex_constants@2@@Z 1002c059 f i libcpmt:xthrow.obj
 0001:0002b149       ?_Xbad_alloc@std@@YAXXZ    1002c149 f   libcpmt:xthrow.obj
 0001:0002b16d       ?_Xbad_function_call@std@@YAXXZ 1002c16d f   libcpmt:xthrow.obj
 0001:0002b191       ?_Xinvalid_argument@std@@YAXPBD@Z 1002c191 f   libcpmt:xthrow.obj
 0001:0002b1b9       ?_Xlength_error@std@@YAXPBD@Z 1002c1b9 f   libcpmt:xthrow.obj
 0001:0002b1e1       ?_Xout_of_range@std@@YAXPBD@Z 1002c1e1 f   libcpmt:xthrow.obj
 0001:0002b209       ?_Xoverflow_error@std@@YAXPBD@Z 1002c209 f   libcpmt:xthrow.obj
 0001:0002b231       ?_Xregex_error@std@@YAXW4error_type@regex_constants@1@@Z 1002c231 f   libcpmt:xthrow.obj
 0001:0002b259       ?_Xruntime_error@std@@YAXPBD@Z 1002c259 f   libcpmt:xthrow.obj
 0001:0002b281       ?what@bad_function_call@std@@UBEPBDXZ 1002c281 f i libcpmt:xthrow.obj
 0001:0002b287       __Getctype                 1002c287 f   libcpmt:_tolower.obj
 0001:0002b309       __Tolower                  1002c309 f   libcpmt:_tolower.obj
 0001:0002b446       __Getcvt                   1002c446 f   libcpmt:xwctomb.obj
 0001:0002b4d5       __Wcrtomb                  1002c4d5 f   libcpmt:xwctomb.obj
 0001:0002b548       ___Wcrtomb_lk              1002c548 f   libcpmt:xwctomb.obj
 0001:0002b553       __Toupper                  1002c553 f   libcpmt:_toupper.obj
 0001:0002b690       ??0?$_Yarn@D@std@@QAE@PBD@Z 1002c690 f i libcpmt:locale0.obj
 0001:0002b6b3       ??0_Fac_node@std@@QAE@PAU01@PAV_Facet_base@1@@Z 1002c6b3 f i libcpmt:locale0.obj
 0001:0002b6cc       ??0_Facet_base@std@@QAE@XZ 1002c6cc f i libcpmt:locale0.obj
 0001:0002b6d7       ??0_Locimp@locale@std@@AAE@ABV012@@Z 1002c6d7 f i libcpmt:locale0.obj
 0001:0002b75b       ??0_Locimp@locale@std@@AAE@_N@Z 1002c75b f i libcpmt:locale0.obj
 0001:0002b7ac       ??0facet@locale@std@@IAE@I@Z 1002c7ac f i libcpmt:locale0.obj
 0001:0002b7cb       ??0id@locale@std@@QAE@I@Z  1002c7cb f i libcpmt:locale0.obj
 0001:0002b7dc       ??0locale@std@@AAE@PAV_Locimp@01@@Z 1002c7dc f i libcpmt:locale0.obj
 0001:0002b7ee       ??0locale@std@@QAE@W4_Uninitialized@1@@Z 1002c7ee f i libcpmt:locale0.obj
 0001:0002b7f3       ??1_Fac_node@std@@QAE@XZ   1002c7f3 f i libcpmt:locale0.obj
 0001:0002b869       ??1_Fac_tidy_reg_t@std@@QAE@XZ 1002c869 f i libcpmt:locale0.obj
 0001:0002b899       ??1_Locimp@locale@std@@MAE@XZ 1002c899 f i libcpmt:locale0.obj
 0001:0002b908       ??2@YAPAXIPAX@Z            1002c908 f i libcpmt:locale0.obj
 0001:0002b912       ??4?$_Yarn@D@std@@QAEAAV01@PBD@Z 1002c912 f i libcpmt:locale0.obj
 0001:0002b97b       ??_G_Fac_node@std@@QAEPAXI@Z 1002c97b f i libcpmt:locale0.obj
 0001:0002b9a5       ??_G_Locimp@locale@std@@MAEPAXI@Z 1002c9a5 f i libcpmt:locale0.obj
 0001:0002b9a5       ??_E_Locimp@locale@std@@MAEPAXI@Z 1002c9a5 f i libcpmt:locale0.obj
 0001:0002b9cf       ?_C_str@?$_Yarn@D@std@@QBEPBDXZ 1002c9cf f i libcpmt:locale0.obj
 0001:0002b9db       ?_Empty@?$_Yarn@D@std@@QBE_NXZ 1002c9db f i libcpmt:locale0.obj
 0001:0002b9e2       ?_Facet_Register@std@@YAXPAV_Facet_base@1@@Z 1002c9e2 f   libcpmt:locale0.obj
 0001:0002ba19       ?_Getgloballocale@locale@std@@CAPAV_Locimp@12@XZ 1002ca19 f   libcpmt:locale0.obj
 0001:0002ba1f       ?_Init@locale@std@@CAPAV_Locimp@12@_N@Z 1002ca1f f   libcpmt:locale0.obj
 0001:0002bad3       ?_Locimp_dtor@_Locimp@locale@std@@CAXPAV123@@Z 1002cad3 f   libcpmt:locale0.obj
 0001:0002bb67       ?_Locinfo_ctor@_Locinfo@std@@SAXPAV12@PBD@Z 1002cb67 f   libcpmt:locale0.obj
 0001:0002bbc4       ?_Locinfo_dtor@_Locinfo@std@@SAXPAV12@@Z 1002cbc4 f   libcpmt:locale0.obj
 0001:0002bbe4       ?_New_Locimp@_Locimp@locale@std@@CAPAV123@ABV123@@Z 1002cbe4 f   libcpmt:locale0.obj
 0001:0002bc20       ?_New_Locimp@_Locimp@locale@std@@CAPAV123@_N@Z 1002cc20 f   libcpmt:locale0.obj
 0001:0002bc4b       ?_Setgloballocale@locale@std@@CAXPAX@Z 1002cc4b f   libcpmt:locale0.obj
 0001:0002bc7d       ?_Tidy@?$_Yarn@D@std@@AAEXXZ 1002cc7d f i libcpmt:locale0.obj
 0001:0002bc97       ?c_str@?$_Yarn@D@std@@QBEPBDXZ 1002cc97 f i libcpmt:locale0.obj
 0001:0002bca3       ?classic@locale@std@@SAABV12@XZ 1002cca3 f   libcpmt:locale0.obj
 0001:0002bcb4       ?empty@locale@std@@SA?AV12@XZ 1002ccb4 f   libcpmt:locale0.obj
 0001:0002bcd8       __Deletegloballocale       1002ccd8 f   libcpmt:locale0.obj
 0001:0002bd55       ??$?0$$V@?$_Compressed_pair@V?$allocator@D@std@@V?$_String_val@U?$_Simple_types@D@std@@@2@$00@std@@QAE@U_Zero_then_variadic_args_t@1@@Z 1002cd55 f i libcpmt:xonce.obj
 0001:0002bd65       ??$?0V?$allocator@D@std@@$$V@?$_Compressed_pair@V?$allocator@D@std@@V?$_String_val@U?$_Simple_types@D@std@@@2@$00@std@@QAE@U_One_then_variadic_args_t@1@$$QAV?$allocator@D@1@@Z 1002cd65 f i libcpmt:xonce.obj
 0001:0002bd75       ??$?0V?$allocator@D@std@@X@?$_String_alloc@U?$_String_base_types@DV?$allocator@D@std@@@std@@@std@@QAE@$$QAV?$allocator@D@1@@Z 1002cd75 f i libcpmt:xonce.obj
 0001:0002bd85       ??$_Allocate@$07U_Default_allocate_traits@std@@$0A@@std@@YAPAXI@Z 1002cd85 f i libcpmt:xonce.obj
 0001:0002bdb4       ??$_Allocate_manually_vector_aligned@U_Default_allocate_traits@std@@@std@@YAPAXI@Z 1002cdb4 f i libcpmt:xonce.obj
 0001:0002bdec       ??$_Convert_size@I@std@@YAII@Z 1002cdec f i libcpmt:xonce.obj
 0001:0002bdf6       ??$_Deallocate@$07$0A@@std@@YAXPAXI@Z 1002cdf6 f i libcpmt:xonce.obj
 0001:0002be2d       ??$_Get_size_of_n@$00@std@@YAII@Z 1002ce2d f i libcpmt:xonce.obj
 0001:0002be37       ??$_Immortalize@V_Generic_error_category@std@@@std@@YAAAV_Generic_error_category@0@XZ 1002ce37 f i libcpmt:xonce.obj
 0001:0002be6a       ??$_Immortalize@V_System_error_category@std@@@std@@YAAAV_System_error_category@0@XZ 1002ce6a f i libcpmt:xonce.obj
 0001:0002be9d       ??$_Immortalize_impl@V_Generic_error_category@std@@@std@@YGHPAX0PAPAX@Z 1002ce9d f i libcpmt:xonce.obj
 0001:0002bebd       ??$_Immortalize_impl@V_System_error_category@std@@@std@@YGHPAX0PAPAX@Z 1002cebd f i libcpmt:xonce.obj
 0001:0002bedd       ??$_Max_value@I@std@@YAABIABI0@Z 1002cedd f i libcpmt:xonce.obj
 0001:0002bef7       ??$_Min_value@I@std@@YAABIABI0@Z 1002cef7 f i libcpmt:xonce.obj
 0001:0002c1e4       ??$_Unfancy@D@std@@YAPADPAD@Z 1002d1e4 f i libcpmt:xonce.obj
 0001:0002c1ee       ??$addressof@PAD@std@@YAPAPADAAPAD@Z 1002d1ee f i libcpmt:xonce.obj
 0001:0002c1f8       ??$addressof@V?$_String_val@U?$_Simple_types@D@std@@@std@@@std@@YAPAV?$_String_val@U?$_Simple_types@D@std@@@0@AAV10@@Z 1002d1f8 f i libcpmt:xonce.obj
 0001:0002c202       ??$construct@PADABQAD@?$_Default_allocator_traits@V?$allocator@D@std@@@std@@SAXAAV?$allocator@D@1@QAPADABQAD@Z 1002d202 f i libcpmt:xonce.obj
 0001:0002c214       ??$destroy@PAD@?$_Default_allocator_traits@V?$allocator@D@std@@@std@@SAXAAV?$allocator@D@1@QAPAD@Z 1002d214 f i libcpmt:xonce.obj
 0001:0002c215       ??$forward@ABQAD@std@@YAABQADABQAD@Z 1002d215 f i libcpmt:xonce.obj
 0001:0002c21f       ??$forward@V?$allocator@D@std@@@std@@YA$$QAV?$allocator@D@0@AAV10@@Z 1002d21f f i libcpmt:xonce.obj
 0001:0002c229       ??$move@AAV?$allocator@D@std@@@std@@YA$$QAV?$allocator@D@0@AAV10@@Z 1002d229 f i libcpmt:xonce.obj
 0001:0002c233       ??$move@AAV?$basic_string@DU?$char_traits@D@std@@V?$allocator@D@2@@std@@@std@@YA$$QAV?$basic_string@DU?$char_traits@D@std@@V?$allocator@D@2@@0@AAV10@@Z 1002d233 f i libcpmt:xonce.obj
 0001:0002c23d       ??0?$_String_alloc@U?$_String_base_types@DV?$allocator@D@std@@@std@@@std@@QAE@XZ 1002d23d f i libcpmt:xonce.obj
 0001:0002c24a       ??0?$_String_val@U?$_Simple_types@D@std@@@std@@QAE@XZ 1002d24a f i libcpmt:xonce.obj
 0001:0002c257       ??0?$allocator@D@std@@QAE@XZ 1002d257 f i libcpmt:xonce.obj
 0001:0002c25a       ??0?$basic_string@DU?$char_traits@D@std@@V?$allocator@D@2@@std@@QAE@$$QAV01@@Z 1002d25a f i libcpmt:xonce.obj
 0001:0002c297       ??0?$basic_string@DU?$char_traits@D@std@@V?$allocator@D@2@@std@@QAE@ABV01@@Z 1002d297 f i libcpmt:xonce.obj
 0001:0002c2bb       ??0?$basic_string@DU?$char_traits@D@std@@V?$allocator@D@2@@std@@QAE@QBD@Z 1002d2bb f i libcpmt:xonce.obj
 0001:0002c2e6       ??0_Bxty@?$_String_val@U?$_Simple_types@D@std@@@std@@QAE@XZ 1002d2e6 f i libcpmt:xonce.obj
 0001:0002c2e9       ??0_Generic_error_category@std@@QAE@XZ 1002d2e9 f i libcpmt:xonce.obj
 0001:0002c2fd       ??0_System_error_category@std@@QAE@XZ 1002d2fd f i libcpmt:xonce.obj
 0001:0002c311       ??0error_category@std@@QAE@XZ 1002d311 f i libcpmt:xonce.obj
 0001:0002c317       ??0error_code@std@@QAE@HABVerror_category@1@@Z 1002d317 f i libcpmt:xonce.obj
 0001:0002c330       ??0error_condition@std@@QAE@HABVerror_category@1@@Z 1002d330 f i libcpmt:xonce.obj
 0001:0002c349       ??0runtime_error@std@@QAE@ABV?$basic_string@DU?$char_traits@D@std@@V?$allocator@D@2@@1@@Z 1002d349 f i libcpmt:xonce.obj
 0001:0002c37b       ??0system_error@std@@QAE@Verror_code@1@@Z 1002d37b f i libcpmt:xonce.obj
 0001:0002c3eb       ??1?$_Compressed_pair@V?$allocator@D@std@@V?$_String_val@U?$_Simple_types@D@std@@@2@$00@std@@QAE@XZ 1002d3eb f i libcpmt:xonce.obj
 0001:0002c3ec       ??1?$_String_alloc@U?$_String_base_types@DV?$allocator@D@std@@@std@@@std@@QAE@XZ 1002d3ec f i libcpmt:xonce.obj
 0001:0002c3ed       ??1?$_String_val@U?$_Simple_types@D@std@@@std@@QAE@XZ 1002d3ed f i libcpmt:xonce.obj
 0001:0002c3ee       ??1_Bxty@?$_String_val@U?$_Simple_types@D@std@@@std@@QAE@XZ 1002d3ee f i libcpmt:xonce.obj
 0001:0002c3ef       ??1_Generic_error_category@std@@UAE@XZ 1002d3ef f i libcpmt:xonce.obj
 0001:0002c3f0       ??1_System_error@std@@UAE@XZ 1002d3f0 f i libcpmt:xonce.obj
 0001:0002c405       ??1_System_error_category@std@@UAE@XZ 1002d405 f i libcpmt:xonce.obj
 0001:0002c406       ??1system_error@std@@UAE@XZ 1002d406 f i libcpmt:xonce.obj
 0001:0002c41b       ??4?$basic_string@DU?$char_traits@D@std@@V?$allocator@D@2@@std@@QAEAAV01@QBD@Z 1002d41b f i libcpmt:xonce.obj
 0001:0002c426       ??8error_category@std@@QBE_NABV01@@Z 1002d426 f i libcpmt:xonce.obj
 0001:0002c43d       ??8std@@YA_NABVerror_condition@0@0@Z 1002d43d f i libcpmt:xonce.obj
 0001:0002c46d       ??A?$basic_string@DU?$char_traits@D@std@@V?$allocator@D@2@@std@@QAEAADI@Z 1002d46d f i libcpmt:xonce.obj
 0001:0002c559       ??_E_System_error_category@std@@UAEPAXI@Z 1002d559 f i libcpmt:xonce.obj
 0001:0002c559       ??_G_System_error_category@std@@UAEPAXI@Z 1002d559 f i libcpmt:xonce.obj
 0001:0002c57d       ?_Adjust_manually_vector_aligned@std@@YAXAAPAXAAI@Z 1002d57d f i libcpmt:xonce.obj
 0001:0002c5aa       ?_Allocate@_Default_allocate_traits@std@@SAPAXI@Z 1002d5aa f i libcpmt:xonce.obj
 0001:0002c5b5       ?_Assign_rv_contents_with_alloc_always_equal@?$basic_string@DU?$char_traits@D@std@@V?$allocator@D@2@@std@@QAEX$$QAV12@U?$integral_constant@_N$00@2@@Z 1002d5b5 f i libcpmt:xonce.obj
 0001:0002c5e3       ?_Become_small@?$basic_string@DU?$char_traits@D@std@@V?$allocator@D@2@@std@@QAEXXZ 1002d5e3 f i libcpmt:xonce.obj
 0001:0002c617       ?_Calculate_growth@?$basic_string@DU?$char_traits@D@std@@V?$allocator@D@2@@std@@QBEII@Z 1002d617 f i libcpmt:xonce.obj
 0001:0002c65a       ?_Construct_lv_contents@?$basic_string@DU?$char_traits@D@std@@V?$allocator@D@2@@std@@QAEXABV12@@Z 1002d65a f i libcpmt:xonce.obj
 0001:0002c6dc       ?_Eos@?$basic_string@DU?$char_traits@D@std@@V?$allocator@D@2@@std@@QAEXI@Z 1002d6dc f i libcpmt:xonce.obj
 0001:0002c6fd       ?_Execute_once@std@@YAHAAUonce_flag@1@P6GHPAX1PAPAX@Z1@Z 1002d6fd f   libcpmt:xonce.obj
 0001:0002c71b       ?_Get_data@?$_String_alloc@U?$_String_base_types@DV?$allocator@D@std@@@std@@@std@@QAEAAV?$_String_val@U?$_Simple_types@D@std@@@2@XZ 1002d71b f i libcpmt:xonce.obj
 0001:0002c71e       ?_Get_data@?$_String_alloc@U?$_String_base_types@DV?$allocator@D@std@@@std@@@std@@QBEABV?$_String_val@U?$_Simple_types@D@std@@@2@XZ 1002d71e f i libcpmt:xonce.obj
 0001:0002c721       ?_Get_first@?$_Compressed_pair@V?$allocator@D@std@@V?$_String_val@U?$_Simple_types@D@std@@@2@$00@std@@QAEAAV?$allocator@D@2@XZ 1002d721 f i libcpmt:xonce.obj
 0001:0002c724       ?_Get_first@?$_Compressed_pair@V?$allocator@D@std@@V?$_String_val@U?$_Simple_types@D@std@@@2@$00@std@@QBEABV?$allocator@D@2@XZ 1002d724 f i libcpmt:xonce.obj
 0001:0002c727       ?_Get_second@?$_Compressed_pair@V?$allocator@D@std@@V?$_String_val@U?$_Simple_types@D@std@@@2@$00@std@@QAEAAV?$_String_val@U?$_Simple_types@D@std@@@2@XZ 1002d727 f i libcpmt:xonce.obj
 0001:0002c72a       ?_Get_second@?$_Compressed_pair@V?$allocator@D@std@@V?$_String_val@U?$_Simple_types@D@std@@@2@$00@std@@QBEABV?$_String_val@U?$_Simple_types@D@std@@@2@XZ 1002d72a f i libcpmt:xonce.obj
 0001:0002c72d       ?_Getal@?$_String_alloc@U?$_String_base_types@DV?$allocator@D@std@@@std@@@std@@QAEAAV?$allocator@D@2@XZ 1002d72d f i libcpmt:xonce.obj
 0001:0002c730       ?_Getal@?$_String_alloc@U?$_String_base_types@DV?$allocator@D@std@@@std@@@std@@QBEABV?$allocator@D@2@XZ 1002d730 f i libcpmt:xonce.obj
 0001:0002c733       ?_Large_string_engaged@?$_String_val@U?$_Simple_types@D@std@@@std@@QBE_NXZ 1002d733 f i libcpmt:xonce.obj
 0001:0002c73e       ?_Makestr@_System_error@std@@CA?AV?$basic_string@DU?$char_traits@D@std@@V?$allocator@D@2@@2@Verror_code@2@V32@@Z 1002d73e f i libcpmt:xonce.obj
 0001:0002c7cb       ?_Myptr@?$_String_val@U?$_Simple_types@D@std@@@std@@QAEPADXZ 1002d7cb f i libcpmt:xonce.obj
 0001:0002c7d8       ?_Myptr@?$_String_val@U?$_Simple_types@D@std@@@std@@QBEPBDXZ 1002d7d8 f i libcpmt:xonce.obj
 0001:0002c7e5       ?_Orphan_all@?$_String_alloc@U?$_String_base_types@DV?$allocator@D@std@@@std@@@std@@QAEXXZ 1002d7e5 f i libcpmt:xonce.obj
 0001:0002c7e6       ?_Orphan_all@_Container_base0@std@@QAEXXZ 1002d7e6 f i libcpmt:xonce.obj
 0001:0002c7e7       ?_Tidy_init@?$basic_string@DU?$char_traits@D@std@@V?$allocator@D@2@@std@@QAEXXZ 1002d7e7 f i libcpmt:xonce.obj
 0001:0002c7f9       ?_XGetLastError@std@@YAXXZ 1002d7f9 f   libcpmt:xonce.obj
 0001:0002c83f       ?append@?$basic_string@DU?$char_traits@D@std@@V?$allocator@D@2@@std@@QAEAAV12@ABV12@@Z 1002d83f f i libcpmt:xonce.obj
 0001:0002c863       ?append@?$basic_string@DU?$char_traits@D@std@@V?$allocator@D@2@@std@@QAEAAV12@QBD@Z 1002d863 f i libcpmt:xonce.obj
 0001:0002c88c       ?assign@?$basic_string@DU?$char_traits@D@std@@V?$allocator@D@2@@std@@QAEAAV12@ID@Z 1002d88c f i libcpmt:xonce.obj
 0001:0002c8eb       ?assign@?$basic_string@DU?$char_traits@D@std@@V?$allocator@D@2@@std@@QAEAAV12@QBD@Z 1002d8eb f i libcpmt:xonce.obj
 0001:0002c914       ?assign@?$char_traits@D@std@@SAPADQADID@Z 1002d914 f i libcpmt:xonce.obj
 0001:0002c932       ?assign@?$char_traits@D@std@@SAXAADABD@Z 1002d932 f i libcpmt:xonce.obj
 0001:0002c944       ?c_str@?$basic_string@DU?$char_traits@D@std@@V?$allocator@D@2@@std@@QBEPBDXZ 1002d944 f i libcpmt:xonce.obj
 0001:0002c951       ?category@error_code@std@@QBEABVerror_category@2@XZ 1002d951 f i libcpmt:xonce.obj
 0001:0002c955       ?category@error_condition@std@@QBEABVerror_category@2@XZ 1002d955 f i libcpmt:xonce.obj
 0001:0002c959       ?copy@?$char_traits@D@std@@SAPADQADQBDI@Z 1002d959 f i libcpmt:xonce.obj
 0001:0002c964       ?deallocate@?$allocator@D@std@@QAEXQADI@Z 1002d964 f i libcpmt:xonce.obj
 0001:0002c97d       ?default_error_condition@_System_error_category@std@@UBE?AVerror_condition@2@H@Z 1002d97d f i libcpmt:xonce.obj
 0001:0002c9f5       ?empty@?$basic_string@DU?$char_traits@D@std@@V?$allocator@D@2@@std@@QBE_NXZ 1002d9f5 f i libcpmt:xonce.obj
 0001:0002c9ff       ?generic_category@std@@YAABVerror_category@1@XZ 1002d9ff f i libcpmt:xonce.obj
 0001:0002ca04       ?length@?$char_traits@D@std@@SAIQBD@Z 1002da04 f i libcpmt:xonce.obj
 0001:0002ca1d       ?max@?$numeric_limits@H@std@@SAHXZ 1002da1d f i libcpmt:xonce.obj
 0001:0002ca23       ?max_size@?$_Default_allocator_traits@V?$allocator@D@std@@@std@@SAIABV?$allocator@D@2@@Z 1002da23 f i libcpmt:xonce.obj
 0001:0002ca27       ?max_size@?$basic_string@DU?$char_traits@D@std@@V?$allocator@D@2@@std@@QBEIXZ 1002da27 f i libcpmt:xonce.obj
 0001:0002ca2d       ?message@_System_error_category@std@@UBE?AV?$basic_string@DU?$char_traits@D@std@@V?$allocator@D@2@@2@H@Z 1002da2d f i libcpmt:xonce.obj
 0001:0002caca       ?message@error_code@std@@QBE?AV?$basic_string@DU?$char_traits@D@std@@V?$allocator@D@2@@2@XZ 1002daca f i libcpmt:xonce.obj
 0001:0002cafa       ?move@?$char_traits@D@std@@SAPADQADQBDI@Z 1002dafa f i libcpmt:xonce.obj
 0001:0002cb05       ?name@_System_error_category@std@@UBEPBDXZ 1002db05 f i libcpmt:xonce.obj
 0001:0002cb0b       ?resize@?$basic_string@DU?$char_traits@D@std@@V?$allocator@D@2@@std@@QAEXID@Z 1002db0b f i libcpmt:xonce.obj
 0001:0002cb42       ?select_on_container_copy_construction@?$_Default_allocator_traits@V?$allocator@D@std@@@std@@SA?AV?$allocator@D@2@ABV32@@Z 1002db42 f i libcpmt:xonce.obj
 0001:0002cb4c       ?shrink_to_fit@?$basic_string@DU?$char_traits@D@std@@V?$allocator@D@2@@std@@QAEXXZ 1002db4c f i libcpmt:xonce.obj
 0001:0002cbbf       ?size@?$basic_string@DU?$char_traits@D@std@@V?$allocator@D@2@@std@@QBEIXZ 1002dbbf f i libcpmt:xonce.obj
 0001:0002cbc3       ?system_category@std@@YAABVerror_category@1@XZ 1002dbc3 f i libcpmt:xonce.obj
 0001:0002cbc8       ?value@error_code@std@@QBEHXZ 1002dbc8 f i libcpmt:xonce.obj
 0001:0002cbcb       ?value@error_condition@std@@QBEHXZ 1002dbcb f i libcpmt:xonce.obj
 0001:0002cbce       ??$?0$$V@?$_Compressed_pair@V?$allocator@_W@std@@V?$_String_val@U?$_Simple_types@_W@std@@@2@$00@std@@QAE@U_Zero_then_variadic_args_t@1@@Z 1002dbce f i libcpmt:syserror.obj
 0001:0002cbde       ??$_Get_size_of_n@$01@std@@YAII@Z 1002dbde f i libcpmt:syserror.obj
 0001:0002cc8d       ??$_Unfancy@_W@std@@YAPA_WPA_W@Z 1002dc8d f i libcpmt:syserror.obj
 0001:0002cc97       ??$addressof@PA_W@std@@YAPAPA_WAAPA_W@Z 1002dc97 f i libcpmt:syserror.obj
 0001:0002cca1       ??$construct@PA_WABQA_W@?$_Default_allocator_traits@V?$allocator@_W@std@@@std@@SAXAAV?$allocator@_W@1@QAPA_WABQA_W@Z 1002dca1 f i libcpmt:syserror.obj
 0001:0002ccb3       ??$destroy@PA_W@?$_Default_allocator_traits@V?$allocator@_W@std@@@std@@SAXAAV?$allocator@_W@1@QAPA_W@Z 1002dcb3 f i libcpmt:syserror.obj
 0001:0002ccb4       ??$end@$$CBU_Sys_errtab_t@std@@$0EO@@std@@YAPBU_Sys_errtab_t@0@AAY0EO@$$CBU10@@Z 1002dcb4 f i libcpmt:syserror.obj
 0001:0002ccc4       ??$end@$$CBU_Win_errtab_t@std@@$0EN@@std@@YAPBU_Win_errtab_t@0@AAY0EN@$$CBU10@@Z 1002dcc4 f i libcpmt:syserror.obj
 0001:0002ccd4       ??$forward@ABQA_W@std@@YAABQA_WABQA_W@Z 1002dcd4 f i libcpmt:syserror.obj
 0001:0002ccde       ??0?$_String_alloc@U?$_String_base_types@_WV?$allocator@_W@std@@@std@@@std@@QAE@XZ 1002dcde f i libcpmt:syserror.obj
 0001:0002cceb       ??0?$_String_val@U?$_Simple_types@_W@std@@@std@@QAE@XZ 1002dceb f i libcpmt:syserror.obj
 0001:0002ccf8       ??0?$allocator@_W@std@@QAE@XZ 1002dcf8 f i libcpmt:syserror.obj
 0001:0002ccfb       ??0?$basic_string@_WU?$char_traits@_W@std@@V?$allocator@_W@2@@std@@QAE@I_W@Z 1002dcfb f i libcpmt:syserror.obj
 0001:0002cd2d       ??0_Bxty@?$_String_val@U?$_Simple_types@_W@std@@@std@@QAE@XZ 1002dd2d f i libcpmt:syserror.obj
 0001:0002cd30       ??1?$_Compressed_pair@V?$allocator@_W@std@@V?$_String_val@U?$_Simple_types@_W@std@@@2@$00@std@@QAE@XZ 1002dd30 f i libcpmt:syserror.obj
 0001:0002cd31       ??1?$_String_alloc@U?$_String_base_types@_WV?$allocator@_W@std@@@std@@@std@@QAE@XZ 1002dd31 f i libcpmt:syserror.obj
 0001:0002cd32       ??1?$_String_val@U?$_Simple_types@_W@std@@@std@@QAE@XZ 1002dd32 f i libcpmt:syserror.obj
 0001:0002cd33       ??1?$basic_string@_WU?$char_traits@_W@std@@V?$allocator@_W@2@@std@@QAE@XZ 1002dd33 f i libcpmt:syserror.obj
 0001:0002cd38       ??1_Bxty@?$_String_val@U?$_Simple_types@_W@std@@@std@@QAE@XZ 1002dd38 f i libcpmt:syserror.obj
 0001:0002cd39       ??A?$basic_string@_WU?$char_traits@_W@std@@V?$allocator@_W@2@@std@@QAEAA_WI@Z 1002dd39 f i libcpmt:syserror.obj
 0001:0002cd80       ?_Calculate_growth@?$basic_string@_WU?$char_traits@_W@std@@V?$allocator@_W@2@@std@@QBEII@Z 1002dd80 f i libcpmt:syserror.obj
 0001:0002cdc3       ?_Get_data@?$_String_alloc@U?$_String_base_types@_WV?$allocator@_W@std@@@std@@@std@@QAEAAV?$_String_val@U?$_Simple_types@_W@std@@@2@XZ 1002ddc3 f i libcpmt:syserror.obj
 0001:0002cdc6       ?_Get_data@?$_String_alloc@U?$_String_base_types@_WV?$allocator@_W@std@@@std@@@std@@QBEABV?$_String_val@U?$_Simple_types@_W@std@@@2@XZ 1002ddc6 f i libcpmt:syserror.obj
 0001:0002cdc9       ?_Get_first@?$_Compressed_pair@V?$allocator@_W@std@@V?$_String_val@U?$_Simple_types@_W@std@@@2@$00@std@@QAEAAV?$allocator@_W@2@XZ 1002ddc9 f i libcpmt:syserror.obj
 0001:0002cdcc       ?_Get_first@?$_Compressed_pair@V?$allocator@_W@std@@V?$_String_val@U?$_Simple_types@_W@std@@@2@$00@std@@QBEABV?$allocator@_W@2@XZ 1002ddcc f i libcpmt:syserror.obj
 0001:0002cdcf       ?_Get_second@?$_Compressed_pair@V?$allocator@_W@std@@V?$_String_val@U?$_Simple_types@_W@std@@@2@$00@std@@QAEAAV?$_String_val@U?$_Simple_types@_W@std@@@2@XZ 1002ddcf f i libcpmt:syserror.obj
 0001:0002cdd2       ?_Get_second@?$_Compressed_pair@V?$allocator@_W@std@@V?$_String_val@U?$_Simple_types@_W@std@@@2@$00@std@@QBEABV?$_String_val@U?$_Simple_types@_W@std@@@2@XZ 1002ddd2 f i libcpmt:syserror.obj
 0001:0002cdd5       ?_Getal@?$_String_alloc@U?$_String_base_types@_WV?$allocator@_W@std@@@std@@@std@@QAEAAV?$allocator@_W@2@XZ 1002ddd5 f i libcpmt:syserror.obj
 0001:0002cdd8       ?_Getal@?$_String_alloc@U?$_String_base_types@_WV?$allocator@_W@std@@@std@@@std@@QBEABV?$allocator@_W@2@XZ 1002ddd8 f i libcpmt:syserror.obj
 0001:0002cddb       ?_Large_string_engaged@?$_String_val@U?$_Simple_types@_W@std@@@std@@QBE_NXZ 1002dddb f i libcpmt:syserror.obj
 0001:0002cde6       ?_Myptr@?$_String_val@U?$_Simple_types@_W@std@@@std@@QAEPA_WXZ 1002dde6 f i libcpmt:syserror.obj
 0001:0002cdf3       ?_Orphan_all@?$_String_alloc@U?$_String_base_types@_WV?$allocator@_W@std@@@std@@@std@@QAEXXZ 1002ddf3 f i libcpmt:syserror.obj
 0001:0002cdf4       ?_Syserror_map@std@@YAPBDH@Z 1002ddf4 f   libcpmt:syserror.obj
 0001:0002ce22       ?_Tidy_deallocate@?$basic_string@_WU?$char_traits@_W@std@@V?$allocator@_W@2@@std@@QAEXXZ 1002de22 f i libcpmt:syserror.obj
 0001:0002ce5b       ?_Tidy_init@?$basic_string@_WU?$char_traits@_W@std@@V?$allocator@_W@2@@std@@QAEXXZ 1002de5b f i libcpmt:syserror.obj
 0001:0002ce70       ?_Winerror_map@std@@YAHH@Z 1002de70 f   libcpmt:syserror.obj
 0001:0002ce9a       ?_Winerror_message@std@@YAKKPADK@Z 1002de9a f   libcpmt:syserror.obj
 0001:0002cf51       ?_Xlen@?$basic_string@_WU?$char_traits@_W@std@@V?$allocator@_W@2@@std@@SAXXZ 1002df51 f i libcpmt:syserror.obj
 0001:0002cf5e       ?allocate@?$allocator@_W@std@@QAEPA_WI@Z 1002df5e f i libcpmt:syserror.obj
 0001:0002cf83       ?assign@?$_WChar_traits@_W@std@@SAPA_WQA_WI_W@Z 1002df83 f i libcpmt:syserror.obj
 0001:0002cf9e       ?assign@?$_WChar_traits@_W@std@@SAXAA_WAB_W@Z 1002df9e f i libcpmt:syserror.obj
 0001:0002cfb3       ?assign@?$basic_string@_WU?$char_traits@_W@std@@V?$allocator@_W@2@@std@@QAEAAV12@I_W@Z 1002dfb3 f i libcpmt:syserror.obj
 0001:0002d012       ?deallocate@?$allocator@_W@std@@QAEXQA_WI@Z 1002e012 f i libcpmt:syserror.obj
 0001:0002d02e       ?max_size@?$_Default_allocator_traits@V?$allocator@_W@std@@@std@@SAIABV?$allocator@_W@2@@Z 1002e02e f i libcpmt:syserror.obj
 0001:0002d034       ?max_size@?$basic_string@_WU?$char_traits@_W@std@@V?$allocator@_W@2@@std@@QBEIXZ 1002e034 f i libcpmt:syserror.obj
 0001:0002d03a       _wmemset                   1002e03a f i libcpmt:syserror.obj
 0001:0002d06e       __Mtxdst                   1002e06e f   libcpmt:xmtx.obj
 0001:0002d07f       __Mtxinit                  1002e07f f   libcpmt:xmtx.obj
 0001:0002d09b       __Mtxlock                  1002e09b f   libcpmt:xmtx.obj
 0001:0002d0ac       __Mtxunlock                1002e0ac f   libcpmt:xmtx.obj
 0001:0002d0bd       ??0?$__crt_scoped_stack_ptr@_W@@QAE@U?$__crt_scoped_stack_ptr_tag@_W@@@Z 1002e0bd f i libcpmt:StlLCMapStringA.obj
 0001:0002d0ce       ??0?$__crt_scoped_stack_ptr_tag@_W@@QAE@QA_W@Z 1002e0ce f i libcpmt:StlLCMapStringA.obj
 0001:0002d0df       ??1?$__crt_scoped_stack_ptr@_W@@QAE@XZ 1002e0df f i libcpmt:StlLCMapStringA.obj
 0001:0002d0ea       ??B?$__crt_scoped_stack_ptr@_W@@QBE_NXZ 1002e0ea f i libcpmt:StlLCMapStringA.obj
 0001:0002d0f1       ?get@?$__crt_scoped_stack_ptr@_W@@QBEPA_WXZ 1002e0f1 f i libcpmt:StlLCMapStringA.obj
 0001:0002d0f4       __MallocaComputeSize       1002e0f4 f i libcpmt:StlLCMapStringA.obj
 0001:0002d109       __MarkAllocaS              1002e109 f i libcpmt:StlLCMapStringA.obj
 0001:0002d122       ___crtLCMapStringA         1002e122 f   libcpmt:StlLCMapStringA.obj
 0001:0002d36c       __freea_crt                1002e36c f i libcpmt:StlLCMapStringA.obj
 0001:0002d391       ??$?0AAPAV_Facet_base@std@@@?$_Compressed_pair@U?$default_delete@V_Facet_base@std@@@std@@PAV_Facet_base@2@$00@std@@QAE@U_Zero_then_variadic_args_t@1@AAPAV_Facet_base@1@@Z 1002e391 f i libcpmt:locale.obj
 0001:0002d3a5       ??$?0PAV_Facet_base@std@@@?$_Unique_ptr_base@V_Facet_base@std@@U?$default_delete@V_Facet_base@std@@@2@@std@@QAE@PAV_Facet_base@1@@Z 1002e3a5 f i libcpmt:locale.obj
 0001:0002d3b6       ??$?0U?$default_delete@V_Facet_base@std@@@std@@$0A@@?$unique_ptr@V_Facet_base@std@@U?$default_delete@V_Facet_base@std@@@2@@std@@QAE@PAV_Facet_base@1@@Z 1002e3b6 f i libcpmt:locale.obj
 0001:0002d3c7       ??$?0U?$integral_constant@_N$00@std@@@_Unused_parameter@std@@QAE@$$QAU?$integral_constant@_N$00@1@@Z 1002e3c7 f i libcpmt:locale.obj
 0001:0002d3cc       ??$?8DU?$char_traits@D@std@@@std@@YA_NABV?$istreambuf_iterator@DU?$char_traits@D@std@@@0@0@Z 1002e3cc f i libcpmt:locale.obj
 0001:0002d3e0       ??$?9DU?$char_traits@D@std@@@std@@YA_NABV?$istreambuf_iterator@DU?$char_traits@D@std@@@0@0@Z 1002e3e0 f i libcpmt:locale.obj
 0001:0002d3fb       ??$_Adl_verify_range@PBDPBD@std@@YAXABQBD0@Z 1002e3fb f i libcpmt:locale.obj
 0001:0002d3fc       ??$_Adl_verify_range@V?$istreambuf_iterator@DU?$char_traits@D@std@@@std@@V12@@std@@YAXABV?$istreambuf_iterator@DU?$char_traits@D@std@@@0@0@Z 1002e3fc f i libcpmt:locale.obj
 0001:0002d3fd       ??$_Find_elem@D$0BL@@std@@YAIAAY0BL@$$CBDD@Z 1002e3fd f i libcpmt:locale.obj
 0001:0002d42b       ??$_Find_elem@D$0BN@@std@@YAIAAY0BN@$$CBDD@Z 1002e42b f i libcpmt:locale.obj
 0001:0002d459       ??$_Find_elem@D$0P@@std@@YAIAAY0P@$$CBDD@Z 1002e459 f i libcpmt:locale.obj
 0001:0002d487       ??$_Find_unchecked1@PBDD@std@@YAPBDPBDQBDABDU?$integral_constant@_N$00@0@@Z 1002e487 f i libcpmt:locale.obj
 0001:0002d4b5       ??$_Find_unchecked@PBDD@std@@YAPBDQBD0ABD@Z 1002e4b5 f i libcpmt:locale.obj
 0001:0002d4da       ??$_Getloctxt@DV?$istreambuf_iterator@DU?$char_traits@D@std@@@std@@@std@@YAHAAV?$istreambuf_iterator@DU?$char_traits@D@std@@@0@0IPBD@Z 1002e4da f i libcpmt:locale.obj
 0001:0002d6a8       ??$_Getvals@D@?$numpunct@D@std@@IAEXDPBUlconv@@U_Cvtvec@@@Z 1002e6a8 f i libcpmt:locale.obj
 0001:0002d6c7       ??$_Maklocchr@D@std@@YADDPADABU_Cvtvec@@@Z 1002e6c7 f i libcpmt:locale.obj
 0001:0002d6d1       ??$_Maklocstr@D@std@@YAPADPBDPADABU_Cvtvec@@@Z 1002e6d1 f i libcpmt:locale.obj
 0001:0002d72b       ??$_Pocma@V?$allocator@D@std@@@std@@YAXAAV?$allocator@D@0@0@Z 1002e72b f i libcpmt:locale.obj
 0001:0002d72c       ??$_Pocma@V?$allocator@D@std@@@std@@YAXAAV?$allocator@D@0@0U?$integral_constant@_N$00@0@@Z 1002e72c f i libcpmt:locale.obj
 0001:0002db7e       ??$_Within_limits@D@std@@YA_NABDU?$integral_constant@_N$00@0@1U_Unused_parameter@0@@Z 1002eb7e f i libcpmt:locale.obj
 0001:0002db81       ??$_Within_limits@PBDD@std@@YA_NPBDABD@Z 1002eb81 f i libcpmt:locale.obj
 0001:0002db84       ??$addressof@V?$basic_string@DU?$char_traits@D@std@@V?$allocator@D@2@@std@@@std@@YAPAV?$basic_string@DU?$char_traits@D@std@@V?$allocator@D@2@@0@AAV10@@Z 1002eb84 f i libcpmt:locale.obj
 0001:0002db8e       ??$forward@AAPAV_Facet_base@std@@@std@@YAAAPAV_Facet_base@0@AAPAV10@@Z 1002eb8e f i libcpmt:locale.obj
 0001:0002db98       ??$use_facet@V?$codecvt@DDU_Mbstatet@@@std@@@std@@YAABV?$codecvt@DDU_Mbstatet@@@0@ABVlocale@0@@Z 1002eb98 f i libcpmt:locale.obj
 0001:0002dc67       ??$use_facet@V?$num_get@DV?$istreambuf_iterator@DU?$char_traits@D@std@@@std@@@std@@@std@@YAABV?$num_get@DV?$istreambuf_iterator@DU?$char_traits@D@std@@@std@@@0@ABVlocale@0@@Z 1002ec67 f i libcpmt:locale.obj
 0001:0002dd36       ??$use_facet@V?$num_put@DV?$ostreambuf_iterator@DU?$char_traits@D@std@@@std@@@std@@@std@@YAABV?$num_put@DV?$ostreambuf_iterator@DU?$char_traits@D@std@@@std@@@0@ABVlocale@0@@Z 1002ed36 f i libcpmt:locale.obj
 0001:0002de05       ??0?$_Yarn@D@std@@QAE@XZ   1002ee05 f i libcpmt:locale.obj
 0001:0002de11       ??0?$_Yarn@_W@std@@QAE@XZ  1002ee11 f i libcpmt:locale.obj
 0001:0002de20       ??0?$basic_string@DU?$char_traits@D@std@@V?$allocator@D@2@@std@@QAE@XZ 1002ee20 f i libcpmt:locale.obj
 0001:0002de35       ??0?$codecvt@DDU_Mbstatet@@@std@@QAE@ABV_Locinfo@1@I@Z 1002ee35 f i libcpmt:locale.obj
 0001:0002de54       ??0?$ctype@D@std@@QAE@ABV_Locinfo@1@I@Z 1002ee54 f i libcpmt:locale.obj
 0001:0002de97       ??0?$num_get@DV?$istreambuf_iterator@DU?$char_traits@D@std@@@std@@@std@@QAE@ABV_Locinfo@1@I@Z 1002ee97 f i libcpmt:locale.obj
 0001:0002deb6       ??0?$num_put@DV?$ostreambuf_iterator@DU?$char_traits@D@std@@@std@@@std@@QAE@ABV_Locinfo@1@I@Z 1002eeb6 f i libcpmt:locale.obj
 0001:0002ded5       ??0?$numpunct@D@std@@QAE@ABV_Locinfo@1@I_N@Z 1002eed5 f i libcpmt:locale.obj
 0001:0002df18       ??0bad_cast@std@@QAE@XZ    1002ef18 f i libcpmt:locale.obj
 0001:0002df36       ??0codecvt_base@std@@QAE@I@Z 1002ef36 f i libcpmt:locale.obj
 0001:0002df55       ??0ctype_base@std@@QAE@I@Z 1002ef55 f i libcpmt:locale.obj
 0001:0002df74       ??0locale@std@@QAE@ABV01@@Z 1002ef74 f i libcpmt:locale.obj
 0001:0002dfde       ??0locale@std@@QAE@XZ      1002efde f i libcpmt:locale.obj
 0001:0002e02e       ??1?$codecvt@DDU_Mbstatet@@@std@@MAE@XZ 1002f02e f i libcpmt:locale.obj
 0001:0002e035       ??1?$num_get@DV?$istreambuf_iterator@DU?$char_traits@D@std@@@std@@@std@@MAE@XZ 1002f035 f i libcpmt:locale.obj
 0001:0002e03c       ??1codecvt_base@std@@UAE@XZ 1002f03c f i libcpmt:locale.obj
 0001:0002e043       ??1ctype_base@std@@UAE@XZ  1002f043 f i libcpmt:locale.obj
 0001:0002e04a       ??4?$basic_string@DU?$char_traits@D@std@@V?$allocator@D@2@@std@@QAEAAV01@$$QAV01@@Z 1002f04a f i libcpmt:locale.obj
 0001:0002e08c       ??4?$ostreambuf_iterator@DU?$char_traits@D@std@@@std@@QAEAAV01@D@Z 1002f08c f i libcpmt:locale.obj
 0001:0002e0b9       ??A?$basic_string@DU?$char_traits@D@std@@V?$allocator@D@2@@std@@QBEABDI@Z 1002f0b9 f i libcpmt:locale.obj
 0001:0002e0d2       ??Bid@locale@std@@QAEIXZ   1002f0d2 f i libcpmt:locale.obj
 0001:0002e114       ??D?$istreambuf_iterator@DU?$char_traits@D@std@@@std@@QBEDXZ 1002f114 f i libcpmt:locale.obj
 0001:0002e12b       ??D?$ostreambuf_iterator@DU?$char_traits@D@std@@@std@@QAEAAV01@XZ 1002f12b f i libcpmt:locale.obj
 0001:0002e12e       ??E?$istreambuf_iterator@DU?$char_traits@D@std@@@std@@QAEAAV01@XZ 1002f12e f i libcpmt:locale.obj
 0001:0002e13d       ??E?$ostreambuf_iterator@DU?$char_traits@D@std@@@std@@QAEAAV01@XZ 1002f13d f i libcpmt:locale.obj
 0001:0002e2a1       ??R?$default_delete@V_Facet_base@std@@@std@@QBEXPAV_Facet_base@1@@Z 1002f2a1 f i libcpmt:locale.obj
 0001:0002e2ce       ??Y?$basic_string@DU?$char_traits@D@std@@V?$allocator@D@2@@std@@QAEAAV01@ABV01@@Z 1002f2ce f i libcpmt:locale.obj
 0001:0002e2d9       ??_E?$codecvt@DDU_Mbstatet@@@std@@MAEPAXI@Z 1002f2d9 f i libcpmt:locale.obj
 0001:0002e2d9       ??_G?$codecvt@DDU_Mbstatet@@@std@@MAEPAXI@Z 1002f2d9 f i libcpmt:locale.obj
 0001:0002e304       ??_G?$num_get@DV?$istreambuf_iterator@DU?$char_traits@D@std@@@std@@@std@@MAEPAXI@Z 1002f304 f i libcpmt:locale.obj
 0001:0002e304       ??_E?$num_get@DV?$istreambuf_iterator@DU?$char_traits@D@std@@@std@@@std@@MAEPAXI@Z 1002f304 f i libcpmt:locale.obj
 0001:0002e32f       ??_Ecodecvt_base@std@@UAEPAXI@Z 1002f32f f i libcpmt:locale.obj
 0001:0002e32f       ??_Gcodecvt_base@std@@UAEPAXI@Z 1002f32f f i libcpmt:locale.obj
 0001:0002e35a       ?_Addfac@_Locimp@locale@std@@AAEXPAVfacet@23@I@Z 1002f35a f i libcpmt:locale.obj
 0001:0002e375       ?_Assign_rv_contents@?$basic_string@DU?$char_traits@D@std@@V?$allocator@D@2@@std@@QAEX$$QAV12@U?$integral_constant@_N$00@2@@Z 1002f375 f i libcpmt:locale.obj
 0001:0002e3a3       ?_Check_offset@?$_String_val@U?$_Simple_types@D@std@@@std@@QBEXI@Z 1002f3a3 f i libcpmt:locale.obj
 0001:0002e3bd       ?_Get_first@?$_Compressed_pair@U?$default_delete@V_Facet_base@std@@@std@@PAV_Facet_base@2@$00@std@@QAEAAU?$default_delete@V_Facet_base@std@@@2@XZ 1002f3bd f i libcpmt:locale.obj
 0001:0002e3c0       ?_Get_second@?$_Compressed_pair@U?$default_delete@V_Facet_base@std@@@std@@PAV_Facet_base@2@$00@std@@QAEAAPAV_Facet_base@2@XZ 1002f3c0 f i libcpmt:locale.obj
 0001:0002e3c3       ?_Get_second@?$_Compressed_pair@U?$default_delete@V_Facet_base@std@@@std@@PAV_Facet_base@2@$00@std@@QBEABQAV_Facet_base@2@XZ 1002f3c3 f i libcpmt:locale.obj
 0001:0002e3c6       ?_Getcat@?$codecvt@DDU_Mbstatet@@@std@@SAIPAPBVfacet@locale@2@PBV42@@Z 1002f3c6 f i libcpmt:locale.obj
 0001:0002e448       ?_Getcat@?$ctype@D@std@@SAIPAPBVfacet@locale@2@PBV42@@Z 1002f448 f i libcpmt:locale.obj
 0001:0002e4c7       ?_Getcat@?$num_get@DV?$istreambuf_iterator@DU?$char_traits@D@std@@@std@@@std@@SAIPAPBVfacet@locale@2@PBV42@@Z 1002f4c7 f i libcpmt:locale.obj
 0001:0002e549       ?_Getcat@?$num_put@DV?$ostreambuf_iterator@DU?$char_traits@D@std@@@std@@@std@@SAIPAPBVfacet@locale@2@PBV42@@Z 1002f549 f i libcpmt:locale.obj
 0001:0002e5cb       ?_Getcat@?$numpunct@D@std@@SAIPAPBVfacet@locale@2@PBV42@@Z 1002f5cb f i libcpmt:locale.obj
 0001:0002e664       ?_Getctype@_Locinfo@std@@QBE?AU_Ctypevec@@XZ 1002f664 f i libcpmt:locale.obj
 0001:0002e68f       ?_Getcvt@_Locinfo@std@@QBE?AU_Cvtvec@@XZ 1002f68f f i libcpmt:locale.obj
 0001:0002e6bc       ?_Getfacet@locale@std@@QBEPBVfacet@12@I@Z 1002f6bc f i libcpmt:locale.obj
 0001:0002e708       ?_Getfalse@_Locinfo@std@@QBEPBDXZ 1002f708 f i libcpmt:locale.obj
 0001:0002e70e       ?_Getffld@?$num_get@DV?$istreambuf_iterator@DU?$char_traits@D@std@@@std@@@std@@ABAHPADAAV?$istreambuf_iterator@DU?$char_traits@D@std@@@2@1AAVios_base@2@PAH@Z 1002f70e f i libcpmt:locale.obj
 0001:0002efa8       ?_Getffldx@?$num_get@DV?$istreambuf_iterator@DU?$char_traits@D@std@@@std@@@std@@ABAHPADAAV?$istreambuf_iterator@DU?$char_traits@D@std@@@2@1AAVios_base@2@PAH@Z 1002ffa8 f i libcpmt:locale.obj
 0001:0002f86b       ?_Getifld@?$num_get@DV?$istreambuf_iterator@DU?$char_traits@D@std@@@std@@@std@@ABAHPADAAV?$istreambuf_iterator@DU?$char_traits@D@std@@@2@1HABVlocale@2@@Z 1003086b f i libcpmt:locale.obj
 0001:0002fce2       ?_Getlconv@_Locinfo@std@@QBEPBUlconv@@XZ 10030ce2 f i libcpmt:locale.obj
 0001:0002fce7       ?_Getname@_Locinfo@std@@QBEPBDXZ 10030ce7 f i libcpmt:locale.obj
 0001:0002fcf4       ?_Gettrue@_Locinfo@std@@QBEPBDXZ 10030cf4 f i libcpmt:locale.obj
 0001:0002fcfa       ?_Gnavail@?$basic_streambuf@DU?$char_traits@D@std@@@std@@IBE_JXZ 10030cfa f i libcpmt:locale.obj
 0001:0002fd10       ?_Gninc@?$basic_streambuf@DU?$char_traits@D@std@@@std@@IAEPADXZ 10030d10 f i libcpmt:locale.obj
 0001:0002fd24       ?_Inc@?$istreambuf_iterator@DU?$char_traits@D@std@@@std@@AAEXXZ 10030d24 f i libcpmt:locale.obj
 0001:0002fd4d       ?_Init@?$codecvt@DDU_Mbstatet@@@std@@IAEXABV_Locinfo@2@@Z 10030d4d f i libcpmt:locale.obj
 0001:0002fd50       ?_Init@?$ctype@D@std@@IAEXABV_Locinfo@2@@Z 10030d50 f i libcpmt:locale.obj
 0001:0002fd7b       ?_Init@?$num_get@DV?$istreambuf_iterator@DU?$char_traits@D@std@@@std@@@std@@IAEXABV_Locinfo@2@@Z 10030d7b f i libcpmt:locale.obj
 0001:0002fd7e       ?_Init@?$num_put@DV?$ostreambuf_iterator@DU?$char_traits@D@std@@@std@@@std@@IAEXABV_Locinfo@2@@Z 10030d7e f i libcpmt:locale.obj
 0001:0002fd81       ?_Locimp_Addfac@_Locimp@locale@std@@CAXPAV123@PAVfacet@23@I@Z 10030d81 f   libcpmt:locale.obj
 0001:0002fe78       ?_Locimp_ctor@_Locimp@locale@std@@CAXPAV123@ABV123@@Z 10030e78 f   libcpmt:locale.obj
 0001:0002ff5c       ?_Locinfo_Addcats@_Locinfo@std@@SAAAV12@PAV12@HPBD@Z 10030f5c f   libcpmt:locale.obj
 0001:0003002a       ?_Locinfo_ctor@_Locinfo@std@@SAXPAV12@HPBD@Z 1003102a f   libcpmt:locale.obj
 0001:0003006d       ?_Makeloc@_Locimp@locale@std@@CAPAV123@ABV_Locinfo@3@HPAV123@PBV23@@Z 1003106d f   libcpmt:locale.obj
 0001:0003030c       ?_Move_alloc@?$_String_alloc@U?$_String_base_types@DV?$allocator@D@std@@@std@@@std@@QAEXAAV?$allocator@D@2@@Z 1003130c f i libcpmt:locale.obj
 0001:0003030f       ?_Myptr@?$_Unique_ptr_base@V_Facet_base@std@@U?$default_delete@V_Facet_base@std@@@2@@std@@QAEAAPAV_Facet_base@2@XZ 1003130f f i libcpmt:locale.obj
 0001:00030312       ?_Myptr@?$_Unique_ptr_base@V_Facet_base@std@@U?$default_delete@V_Facet_base@std@@@2@@std@@QBEABQAV_Facet_base@2@XZ 10031312 f i libcpmt:locale.obj
 0001:00030315       ?_Peek@?$istreambuf_iterator@DU?$char_traits@D@std@@@std@@ABEDXZ 10031315 f i libcpmt:locale.obj
 0001:00030342       ?_Pnavail@?$basic_streambuf@DU?$char_traits@D@std@@@std@@IBE_JXZ 10031342 f i libcpmt:locale.obj
 0001:00030358       ?_Pninc@?$basic_streambuf@DU?$char_traits@D@std@@@std@@IAEPADXZ 10031358 f i libcpmt:locale.obj
 0001:0003036c       ?_Stodx_v2@std@@YANPBDPAPADHPAH@Z 1003136c f i libcpmt:locale.obj
 0001:000303d1       ?_Stofx_v2@std@@YAMPBDPAPADHPAH@Z 100313d1 f i libcpmt:locale.obj
 0001:00030440       ?_Tidy@?$_Yarn@_W@std@@AAEXXZ 10031440 f i libcpmt:locale.obj
 0001:0003045a       ?_Tidy@?$ctype@D@std@@IAEXXZ 1003145a f i libcpmt:locale.obj
 0001:0003048e       ?assign@?$basic_string@DU?$char_traits@D@std@@V?$allocator@D@2@@std@@QAEAAV12@$$QAV12@@Z 1003148e f i libcpmt:locale.obj
 0001:000304a8       ?c_str@locale@std@@QBEPBDXZ 100314a8 f i libcpmt:locale.obj
 0001:000304c6       ?decimal_point@?$numpunct@D@std@@QBEDXZ 100314c6 f i libcpmt:locale.obj
 0001:000304e4       ?do_always_noconv@?$codecvt@DDU_Mbstatet@@@std@@MBE_NXZ 100314e4 f i libcpmt:locale.obj
 0001:000304e7       ?do_always_noconv@codecvt_base@std@@MBE_NXZ 100314e7 f i libcpmt:locale.obj
 0001:000304ea       ?do_encoding@codecvt_base@std@@MBEHXZ 100314ea f i libcpmt:locale.obj
 0001:000304ee       ?do_get@?$num_get@DV?$istreambuf_iterator@DU?$char_traits@D@std@@@std@@@std@@MBE?AV?$istreambuf_iterator@DU?$char_traits@D@std@@@2@V32@0AAVios_base@2@AAHAAG@Z 100314ee f i libcpmt:locale.obj
 0001:00030617       ?do_get@?$num_get@DV?$istreambuf_iterator@DU?$char_traits@D@std@@@std@@@std@@MBE?AV?$istreambuf_iterator@DU?$char_traits@D@std@@@2@V32@0AAVios_base@2@AAHAAI@Z 10031617 f i libcpmt:locale.obj
 0001:0003066a       ?do_get@?$num_get@DV?$istreambuf_iterator@DU?$char_traits@D@std@@@std@@@std@@MBE?AV?$istreambuf_iterator@DU?$char_traits@D@std@@@2@V32@0AAVios_base@2@AAHAAJ@Z 1003166a f i libcpmt:locale.obj
 0001:0003075f       ?do_get@?$num_get@DV?$istreambuf_iterator@DU?$char_traits@D@std@@@std@@@std@@MBE?AV?$istreambuf_iterator@DU?$char_traits@D@std@@@2@V32@0AAVios_base@2@AAHAAK@Z 1003175f f i libcpmt:locale.obj
 0001:00030854       ?do_get@?$num_get@DV?$istreambuf_iterator@DU?$char_traits@D@std@@@std@@@std@@MBE?AV?$istreambuf_iterator@DU?$char_traits@D@std@@@2@V32@0AAVios_base@2@AAHAAM@Z 10031854 f i libcpmt:locale.obj
 0001:0003098d       ?do_get@?$num_get@DV?$istreambuf_iterator@DU?$char_traits@D@std@@@std@@@std@@MBE?AV?$istreambuf_iterator@DU?$char_traits@D@std@@@2@V32@0AAVios_base@2@AAHAAN@Z 1003198d f i libcpmt:locale.obj
 0001:00030aba       ?do_get@?$num_get@DV?$istreambuf_iterator@DU?$char_traits@D@std@@@std@@@std@@MBE?AV?$istreambuf_iterator@DU?$char_traits@D@std@@@2@V32@0AAVios_base@2@AAHAAO@Z 10031aba f i libcpmt:locale.obj
 0001:00030b0b       ?do_get@?$num_get@DV?$istreambuf_iterator@DU?$char_traits@D@std@@@std@@@std@@MBE?AV?$istreambuf_iterator@DU?$char_traits@D@std@@@2@V32@0AAVios_base@2@AAHAAPAX@Z 10031b0b f i libcpmt:locale.obj
 0001:00030c01       ?do_get@?$num_get@DV?$istreambuf_iterator@DU?$char_traits@D@std@@@std@@@std@@MBE?AV?$istreambuf_iterator@DU?$char_traits@D@std@@@2@V32@0AAVios_base@2@AAHAA_J@Z 10031c01 f i libcpmt:locale.obj
 0001:00030cfe       ?do_get@?$num_get@DV?$istreambuf_iterator@DU?$char_traits@D@std@@@std@@@std@@MBE?AV?$istreambuf_iterator@DU?$char_traits@D@std@@@2@V32@0AAVios_base@2@AAHAA_K@Z 10031cfe f i libcpmt:locale.obj
 0001:00030dfb       ?do_get@?$num_get@DV?$istreambuf_iterator@DU?$char_traits@D@std@@@std@@@std@@MBE?AV?$istreambuf_iterator@DU?$char_traits@D@std@@@2@V32@0AAVios_base@2@AAHAA_N@Z 10031dfb f i libcpmt:locale.obj
 0001:0003107b       ?do_in@?$codecvt@DDU_Mbstatet@@@std@@MBEHAAU_Mbstatet@@PBD1AAPBDPAD3AAPAD@Z 1003207b f i libcpmt:locale.obj
 0001:0003109b       ?do_length@?$codecvt@DDU_Mbstatet@@@std@@MBEHAAU_Mbstatet@@PBD1I@Z 1003209b f i libcpmt:locale.obj
 0001:000310b5       ?do_max_length@codecvt_base@std@@MBEHXZ 100320b5 f i libcpmt:locale.obj
 0001:000310b9       ?do_out@?$codecvt@DDU_Mbstatet@@@std@@MBEHAAU_Mbstatet@@PBD1AAPBDPAD3AAPAD@Z 100320b9 f i libcpmt:locale.obj
 0001:000310d9       ?do_unshift@?$codecvt@DDU_Mbstatet@@@std@@MBEHAAU_Mbstatet@@PAD1AAPAD@Z 100320d9 f i libcpmt:locale.obj
 0001:000310ee       ?eof@?$char_traits@D@std@@SAHXZ 100320ee f i libcpmt:locale.obj
 0001:000310f2       ?eq_int_type@?$char_traits@D@std@@SA_NABH0@Z 100320f2 f i libcpmt:locale.obj
 0001:00031108       ?equal@?$istreambuf_iterator@DU?$char_traits@D@std@@@std@@QBE_NABV12@@Z 10032108 f i libcpmt:locale.obj
 0001:00031150       ?falsename@?$numpunct@D@std@@QBE?AV?$basic_string@DU?$char_traits@D@std@@V?$allocator@D@2@@2@XZ 10032150 f i libcpmt:locale.obj
 0001:0003117d       ?flags@ios_base@std@@QBEHXZ 1003217d f i libcpmt:locale.obj
 0001:00031181       ?get@?$unique_ptr@V_Facet_base@std@@U?$default_delete@V_Facet_base@std@@@2@@std@@QBEPAV_Facet_base@2@XZ 10032181 f i libcpmt:locale.obj
 0001:00031184       ?get_deleter@?$_Unique_ptr_base@V_Facet_base@std@@U?$default_delete@V_Facet_base@std@@@2@@std@@QAEAAU?$default_delete@V_Facet_base@std@@@2@XZ 10032184 f i libcpmt:locale.obj
 0001:00031187       ?getloc@ios_base@std@@QBE?AVlocale@2@XZ 10032187 f i libcpmt:locale.obj
 0001:000311a1       ?global@locale@std@@SA?AV12@ABV12@@Z 100321a1 f   libcpmt:locale.obj
 0001:000312c6       ?gptr@?$basic_streambuf@DU?$char_traits@D@std@@@std@@IBEPADXZ 100322c6 f i libcpmt:locale.obj
 0001:000312cc       ?grouping@?$numpunct@D@std@@QBE?AV?$basic_string@DU?$char_traits@D@std@@V?$allocator@D@2@@2@XZ 100322cc f i libcpmt:locale.obj
 0001:000312f9       ?insert@?$basic_string@DU?$char_traits@D@std@@V?$allocator@D@2@@std@@QAEAAV12@IID@Z 100322f9 f i libcpmt:locale.obj
 0001:0003138a       ?precision@ios_base@std@@QBE_JXZ 1003238a f i libcpmt:locale.obj
 0001:00031391       ?push_back@?$basic_string@DU?$char_traits@D@std@@V?$allocator@D@2@@std@@QAEXD@Z 10032391 f i libcpmt:locale.obj
 0001:000313dc       ?release@?$unique_ptr@V_Facet_base@std@@U?$default_delete@V_Facet_base@std@@@2@@std@@QAEPAV_Facet_base@2@XZ 100323dc f i libcpmt:locale.obj
 0001:000313e2       ?sbumpc@?$basic_streambuf@DU?$char_traits@D@std@@@std@@QAEHXZ 100323e2 f i libcpmt:locale.obj
 0001:0003142f       ?sgetc@?$basic_streambuf@DU?$char_traits@D@std@@@std@@QAEHXZ 1003242f f i libcpmt:locale.obj
 0001:0003146e       ?sputc@?$basic_streambuf@DU?$char_traits@D@std@@@std@@QAEHD@Z 1003246e f i libcpmt:locale.obj
 0001:000314d3       ?thousands_sep@?$numpunct@D@std@@QBEDXZ 100324d3 f i libcpmt:locale.obj
 0001:000314f1       ?to_char_type@?$char_traits@D@std@@SADABH@Z 100324f1 f i libcpmt:locale.obj
 0001:000314fd       ?to_int_type@?$char_traits@D@std@@SAHABD@Z 100324fd f i libcpmt:locale.obj
 0001:0003150a       ?truename@?$numpunct@D@std@@QBE?AV?$basic_string@DU?$char_traits@D@std@@V?$allocator@D@2@@2@XZ 1003250a f i libcpmt:locale.obj
 0001:00031537       ?widen@?$ctype@D@std@@QBEPBDPBD0PAD@Z 10032537 f i libcpmt:locale.obj
 0001:00031567       ?width@ios_base@std@@QAE_J_J@Z 10032567 f i libcpmt:locale.obj
 0001:00031588       ?width@ios_base@std@@QBE_JXZ 10032588 f i libcpmt:locale.obj
 0001:0003158f       __vsprintf_s_l             1003258f f i libcpmt:locale.obj
 0001:000315c7       _fabsl                     100325c7 f i libcpmt:locale.obj
 0001:000315d3       _frexpl                    100325d3 f i libcpmt:locale.obj
 0001:000315f1       _ldexpf                    100325f1 f i libcpmt:locale.obj
 0001:00031617       _powf                      10032617 f i libcpmt:locale.obj
 0001:00031633       ??1_Init_atexit@@QAE@XZ    10032633 f i libcpmt:iosptrs.obj
 0001:000316ae       ?_Atexit@@YAXP6AXXZ@Z      100326ae f   libcpmt:iosptrs.obj
 0001:00031b7b       ___crtAcquireSRWLockExclusive 10032b7b f   libcpmt:winapisupp.obj
 0001:00031ba3       ___crtCloseThreadpoolTimer 10032ba3 f   libcpmt:winapisupp.obj
 0001:00031bcd       ___crtCloseThreadpoolWait  10032bcd f   libcpmt:winapisupp.obj
 0001:00031bf7       ___crtCloseThreadpoolWork  10032bf7 f   libcpmt:winapisupp.obj
 0001:00031c1f       ___crtCreateEventExW       10032c1f f   libcpmt:winapisupp.obj
 0001:00031c76       ___crtCreateSemaphoreExW   10032c76 f   libcpmt:winapisupp.obj
 0001:00031ce4       ___crtCreateSymbolicLinkW  10032ce4 f   libcpmt:winapisupp.obj
 0001:00031d25       ___crtCreateThreadpoolTimer 10032d25 f   libcpmt:winapisupp.obj
 0001:00031d5c       ___crtCreateThreadpoolWait 10032d5c f   libcpmt:winapisupp.obj
 0001:00031d93       ___crtCreateThreadpoolWork 10032d93 f   libcpmt:winapisupp.obj
 0001:00031dc2       ___crtFlsAlloc             10032dc2 f   libcpmt:winapisupp.obj
 0001:00031df6       ___crtFlsFree              10032df6 f   libcpmt:winapisupp.obj
 0001:00031e2a       ___crtFlsGetValue          10032e2a f   libcpmt:winapisupp.obj
 0001:00031e5e       ___crtFlsSetValue          10032e5e f   libcpmt:winapisupp.obj
 0001:00031e96       ___crtFlushProcessWriteBuffers 10032e96 f   libcpmt:winapisupp.obj
 0001:00031eb7       ___crtFreeLibraryWhenCallbackReturns 10032eb7 f   libcpmt:winapisupp.obj
 0001:00031ee5       ___crtGetCurrentProcessorNumber 10032ee5 f   libcpmt:winapisupp.obj
 0001:00031f0b       ___crtGetFileInformationByHandleEx 10032f0b f   libcpmt:winapisupp.obj
 0001:00031f4f       ___crtGetSystemTimePreciseAsFileTime 10032f4f f   libcpmt:winapisupp.obj
 0001:00031f83       ___crtGetTickCount64       10032f83 f   libcpmt:winapisupp.obj
 0001:00031fb1       ___crtInitOnceExecuteOnce  10032fb1 f   libcpmt:winapisupp.obj
 0001:00032062       ___crtInitializeConditionVariable 10033062 f   libcpmt:winapisupp.obj
 0001:0003208a       ___crtInitializeCriticalSectionEx 1003308a f   libcpmt:winapisupp.obj
 0001:000320d1       ___crtInitializeSRWLock    100330d1 f   libcpmt:winapisupp.obj
 0001:000320f9       ___crtIsPackagedApp        100330f9 f   libcpmt:winapisupp.obj
 0001:0003211f       ___crtReleaseSRWLockExclusive 1003311f f   libcpmt:winapisupp.obj
 0001:00032147       ___crtSetFileInformationByHandle 10033147 f   libcpmt:winapisupp.obj
 0001:0003218b       ___crtSetThreadpoolTimer   1003318b f   libcpmt:winapisupp.obj
 0001:000321c0       ___crtSetThreadpoolWait    100331c0 f   libcpmt:winapisupp.obj
 0001:000321f2       ___crtSleepConditionVariableCS 100331f2 f   libcpmt:winapisupp.obj
 0001:00032221       ___crtSleepConditionVariableSRW 10033221 f   libcpmt:winapisupp.obj
 0001:00032254       ___crtSubmitThreadpoolWork 10033254 f   libcpmt:winapisupp.obj
 0001:0003227c       ___crtTryAcquireSRWLockExclusive 1003327c f   libcpmt:winapisupp.obj
 0001:000322a4       ___crtWaitForThreadpoolTimerCallbacks 100332a4 f   libcpmt:winapisupp.obj
 0001:000322d2       ___crtWakeAllConditionVariable 100332d2 f   libcpmt:winapisupp.obj
 0001:000322fa       ___crtWakeConditionVariable 100332fa f   libcpmt:winapisupp.obj
 0001:00032322       ___crt_IsPackagedAppHelper 10033322 f   libcpmt:winapisupp.obj
 0001:00032365       _GetTableIndexFromLcid     10033365 f   libcpmt:winapinls.obj
 0001:000323a7       _GetTableIndexFromLocaleName 100333a7 f   libcpmt:winapinls.obj
 0001:00032408       ___crtCompareStringEx      10033408 f   libcpmt:winapinls.obj
 0001:00032474       ___crtDownlevelLCIDToLocaleName 10033474 f   libcpmt:winapinls.obj
 0001:000324f9       ___crtDownlevelLocaleNameToLCID 100334f9 f   libcpmt:winapinls.obj
 0001:0003252d       ___crtGetLocaleInfoEx      1003352d f   libcpmt:winapinls.obj
 0001:00032575       ___crtLCMapStringEx        10033575 f   libcpmt:winapinls.obj
 0001:000325e1       ___wcsnicmp_ascii          100335e1 f   libcpmt:winapinls.obj
 0001:00032663       ??$?0$$V@?$_Compressed_pair@V?$allocator@G@std@@V?$_String_val@U?$_Simple_types@G@std@@@2@$00@std@@QAE@U_Zero_then_variadic_args_t@1@@Z 10033663 f i libcpmt:wlocale.obj
 0001:00032673       ??$?0V?$allocator@G@std@@$$V@?$_Compressed_pair@V?$allocator@G@std@@V?$_String_val@U?$_Simple_types@G@std@@@2@$00@std@@QAE@U_One_then_variadic_args_t@1@$$QAV?$allocator@G@1@@Z 10033673 f i libcpmt:wlocale.obj
 0001:00032683       ??$?0V?$allocator@G@std@@X@?$_String_alloc@U?$_String_base_types@GV?$allocator@G@std@@@std@@@std@@QAE@$$QAV?$allocator@G@1@@Z 10033683 f i libcpmt:wlocale.obj
 0001:00032693       ??$?0V?$allocator@_W@std@@$$V@?$_Compressed_pair@V?$allocator@_W@std@@V?$_String_val@U?$_Simple_types@_W@std@@@2@$00@std@@QAE@U_One_then_variadic_args_t@1@$$QAV?$allocator@_W@1@@Z 10033693 f i libcpmt:wlocale.obj
 0001:000326a3       ??$?0V?$allocator@_W@std@@X@?$_String_alloc@U?$_String_base_types@_WV?$allocator@_W@std@@@std@@@std@@QAE@$$QAV?$allocator@_W@1@@Z 100336a3 f i libcpmt:wlocale.obj
 0001:000326b3       ??$?8GU?$char_traits@G@std@@@std@@YA_NABV?$istreambuf_iterator@GU?$char_traits@G@std@@@0@0@Z 100336b3 f i libcpmt:wlocale.obj
 0001:000326c7       ??$?8_WU?$char_traits@_W@std@@@std@@YA_NABV?$istreambuf_iterator@_WU?$char_traits@_W@std@@@0@0@Z 100336c7 f i libcpmt:wlocale.obj
 0001:000326db       ??$?9GU?$char_traits@G@std@@@std@@YA_NABV?$istreambuf_iterator@GU?$char_traits@G@std@@@0@0@Z 100336db f i libcpmt:wlocale.obj
 0001:000326f6       ??$?9_WU?$char_traits@_W@std@@@std@@YA_NABV?$istreambuf_iterator@_WU?$char_traits@_W@std@@@0@0@Z 100336f6 f i libcpmt:wlocale.obj
 0001:00032711       ??$_Adl_verify_range@PADPAD@std@@YAXABQAD0@Z 10033711 f i libcpmt:wlocale.obj
 0001:00032712       ??$_Adl_verify_range@PAGPAG@std@@YAXABQAG0@Z 10033712 f i libcpmt:wlocale.obj
 0001:00032713       ??$_Adl_verify_range@PA_WPA_W@std@@YAXABQA_W0@Z 10033713 f i libcpmt:wlocale.obj
 0001:00032714       ??$_Adl_verify_range@PBGPBG@std@@YAXABQBG0@Z 10033714 f i libcpmt:wlocale.obj
 0001:00032715       ??$_Adl_verify_range@PB_WPB_W@std@@YAXABQB_W0@Z 10033715 f i libcpmt:wlocale.obj
 0001:00032716       ??$_Adl_verify_range@V?$istreambuf_iterator@GU?$char_traits@G@std@@@std@@V12@@std@@YAXABV?$istreambuf_iterator@GU?$char_traits@G@std@@@0@0@Z 10033716 f i libcpmt:wlocale.obj
 0001:00032717       ??$_Adl_verify_range@V?$istreambuf_iterator@_WU?$char_traits@_W@std@@@std@@V12@@std@@YAXABV?$istreambuf_iterator@_WU?$char_traits@_W@std@@@0@0@Z 10033717 f i libcpmt:wlocale.obj
 0001:00032718       ??$_Copy_unchecked1@PA_WV?$ostreambuf_iterator@GU?$char_traits@G@std@@@std@@@std@@YA?AV?$ostreambuf_iterator@GU?$char_traits@G@std@@@0@PA_W0V10@U_General_ptr_iterator_tag@0@@Z 10033718 f i libcpmt:wlocale.obj
 0001:0003276e       ??$_Copy_unchecked1@PA_WV?$ostreambuf_iterator@_WU?$char_traits@_W@std@@@std@@@std@@YA?AV?$ostreambuf_iterator@_WU?$char_traits@_W@std@@@0@PA_W0V10@U_General_ptr_iterator_tag@0@@Z 1003376e f i libcpmt:wlocale.obj
 0001:000327c4       ??$_Copy_unchecked@PA_WV?$ostreambuf_iterator@GU?$char_traits@G@std@@@std@@@std@@YA?AV?$ostreambuf_iterator@GU?$char_traits@G@std@@@0@PA_W0V10@@Z 100337c4 f i libcpmt:wlocale.obj
 0001:000327f4       ??$_Copy_unchecked@PA_WV?$ostreambuf_iterator@_WU?$char_traits@_W@std@@@std@@@std@@YA?AV?$ostreambuf_iterator@_WU?$char_traits@_W@std@@@0@PA_W0V10@@Z 100337f4 f i libcpmt:wlocale.obj
 0001:00032824       ??$_Find_elem@G$0BL@@std@@YAIAAY0BL@$$CBGG@Z 10033824 f i libcpmt:wlocale.obj
 0001:00032854       ??$_Find_elem@G$0BN@@std@@YAIAAY0BN@$$CBGG@Z 10033854 f i libcpmt:wlocale.obj
 0001:00032884       ??$_Find_elem@G$0M@@std@@YAIAAY0M@$$CBGG@Z 10033884 f i libcpmt:wlocale.obj
 0001:000328b4       ??$_Find_elem@G$0P@@std@@YAIAAY0P@$$CBGG@Z 100338b4 f i libcpmt:wlocale.obj
 0001:000328e4       ??$_Find_elem@_W$0BL@@std@@YAIAAY0BL@$$CB_W_W@Z 100338e4 f i libcpmt:wlocale.obj
 0001:00032914       ??$_Find_elem@_W$0BN@@std@@YAIAAY0BN@$$CB_W_W@Z 10033914 f i libcpmt:wlocale.obj
 0001:00032944       ??$_Find_elem@_W$0M@@std@@YAIAAY0M@$$CB_W_W@Z 10033944 f i libcpmt:wlocale.obj
 0001:00032974       ??$_Find_elem@_W$0P@@std@@YAIAAY0P@$$CB_W_W@Z 10033974 f i libcpmt:wlocale.obj
 0001:000329a4       ??$_Find_unchecked1@PBGG@std@@YAPBGPBGQBGABGU?$integral_constant@_N$0A@@0@@Z 100339a4 f i libcpmt:wlocale.obj
 0001:000329ce       ??$_Find_unchecked1@PB_W_W@std@@YAPB_WPB_WQB_WAB_WU?$integral_constant@_N$0A@@0@@Z 100339ce f i libcpmt:wlocale.obj
 0001:000329f8       ??$_Find_unchecked@PBGG@std@@YAPBGQBG0ABG@Z 100339f8 f i libcpmt:wlocale.obj
 0001:00032a1d       ??$_Find_unchecked@PB_W_W@std@@YAPB_WQB_W0AB_W@Z 10033a1d f i libcpmt:wlocale.obj
 0001:00032a42       ??$_Get_unwrapped@_W@std@@YAPA_WQA_W@Z 10033a42 f i libcpmt:wlocale.obj
 0001:00032a4c       ??$_Get_unwrapped_n@V?$ostreambuf_iterator@GU?$char_traits@G@std@@@std@@H$0A@@std@@YAABV?$ostreambuf_iterator@GU?$char_traits@G@std@@@0@ABV10@H@Z 10033a4c f i libcpmt:wlocale.obj
 0001:00032a56       ??$_Get_unwrapped_n@V?$ostreambuf_iterator@_WU?$char_traits@_W@std@@@std@@H$0A@@std@@YAABV?$ostreambuf_iterator@_WU?$char_traits@_W@std@@@0@ABV10@H@Z 10033a56 f i libcpmt:wlocale.obj
 0001:00032a60       ??$_Getloctxt@DV?$istreambuf_iterator@GU?$char_traits@G@std@@@std@@@std@@YAHAAV?$istreambuf_iterator@GU?$char_traits@G@std@@@0@0IPBD@Z 10033a60 f i libcpmt:wlocale.obj
 0001:00032c3c       ??$_Getloctxt@DV?$istreambuf_iterator@_WU?$char_traits@_W@std@@@std@@@std@@YAHAAV?$istreambuf_iterator@_WU?$char_traits@_W@std@@@0@0IPBD@Z 10033c3c f i libcpmt:wlocale.obj
 0001:00032e18       ??$_Getloctxt@GV?$istreambuf_iterator@GU?$char_traits@G@std@@@std@@@std@@YAHAAV?$istreambuf_iterator@GU?$char_traits@G@std@@@0@0IPBG@Z 10033e18 f i libcpmt:wlocale.obj
 0001:00032ffb       ??$_Getloctxt@_WV?$istreambuf_iterator@_WU?$char_traits@_W@std@@@std@@@std@@YAHAAV?$istreambuf_iterator@_WU?$char_traits@_W@std@@@0@0IPB_W@Z 10033ffb f i libcpmt:wlocale.obj
 0001:000331de       ??$_Getvals@G@?$_Mpunct@G@std@@IAEXGPBUlconv@@@Z 100341de f i libcpmt:wlocale.obj
 0001:00033294       ??$_Getvals@G@?$numpunct@G@std@@IAEXGPBUlconv@@U_Cvtvec@@@Z 10034294 f i libcpmt:wlocale.obj
 0001:0003330e       ??$_Getvals@G@?$time_get@GV?$istreambuf_iterator@GU?$char_traits@G@std@@@std@@@std@@IAEXGABV_Locinfo@1@@Z 1003430e f i libcpmt:wlocale.obj
 0001:00033393       ??$_Getvals@_W@?$time_get@_WV?$istreambuf_iterator@_WU?$char_traits@_W@std@@@std@@@std@@IAEX_WABV_Locinfo@1@@Z 10034393 f i libcpmt:wlocale.obj
 0001:00033402       ??$_Hash_array_representation@G@std@@YAIQBGI@Z 10034402 f i libcpmt:wlocale.obj
 0001:00033423       ??$_Hash_array_representation@_W@std@@YAIQB_WI@Z 10034423 f i libcpmt:wlocale.obj
 0001:00033444       ??$_Idl_distance@PA_WPA_W@std@@YAHABQA_W0@Z 10034444 f i libcpmt:wlocale.obj
 0001:00033459       ??$_LStrcoll@G@std@@YAHPBG000PBU_Collvec@@@Z 10034459 f i libcpmt:wlocale.obj
 0001:000334b5       ??$_LStrcoll@_W@std@@YAHPB_W000PBU_Collvec@@@Z 100344b5 f i libcpmt:wlocale.obj
 0001:000334c0       ??$_LStrxfrm@G@std@@YAIPAG0PBG1PBU_Collvec@@@Z 100344c0 f i libcpmt:wlocale.obj
 0001:000334fa       ??$_LStrxfrm@_W@std@@YAIPA_W0PB_W1PBU_Collvec@@@Z 100344fa f i libcpmt:wlocale.obj
 0001:00033505       ??$_Maklocchr@G@std@@YAGDPAGABU_Cvtvec@@@Z 10034505 f i libcpmt:wlocale.obj
 0001:00033542       ??$_Maklocchr@_W@std@@YA_WDPA_WABU_Cvtvec@@@Z 10034542 f i libcpmt:wlocale.obj
 0001:0003357f       ??$_Maklocstr@G@std@@YAPAGPBDPAGABU_Cvtvec@@@Z 1003457f f i libcpmt:wlocale.obj
 0001:00033651       ??$_Maklocstr@_W@std@@YAPA_WPBDPA_WABU_Cvtvec@@@Z 10034651 f i libcpmt:wlocale.obj
 0001:00033723       ??$_Pocma@V?$allocator@G@std@@@std@@YAXAAV?$allocator@G@0@0@Z 10034723 f i libcpmt:wlocale.obj
 0001:00033724       ??$_Pocma@V?$allocator@G@std@@@std@@YAXAAV?$allocator@G@0@0U?$integral_constant@_N$00@0@@Z 10034724 f i libcpmt:wlocale.obj
 0001:00033725       ??$_Pocma@V?$allocator@_W@std@@@std@@YAXAAV?$allocator@_W@0@0@Z 10034725 f i libcpmt:wlocale.obj
 0001:00033726       ??$_Pocma@V?$allocator@_W@std@@@std@@YAXAAV?$allocator@_W@0@0U?$integral_constant@_N$00@0@@Z 10034726 f i libcpmt:wlocale.obj
 0001:00033727       ??$_Ptr_copy_cat@PA_WV?$ostreambuf_iterator@GU?$char_traits@G@std@@@std@@@std@@YA?AU_General_ptr_iterator_tag@0@ABQA_WABV?$ostreambuf_iterator@GU?$char_traits@G@std@@@0@@Z 10034727 f i libcpmt:wlocale.obj
 0001:0003372a       ??$_Ptr_copy_cat@PA_WV?$ostreambuf_iterator@_WU?$char_traits@_W@std@@@std@@@std@@YA?AU_General_ptr_iterator_tag@0@ABQA_WABV?$ostreambuf_iterator@_WU?$char_traits@_W@std@@@0@@Z 1003472a f i libcpmt:wlocale.obj
 0001:0003430f       ??$_Refancy@PAG$0A@@std@@YAPAGPAG@Z 1003530f f i libcpmt:wlocale.obj
 0001:00034319       ??$_Refancy@PA_W$0A@@std@@YAPA_WPA_W@Z 10035319 f i libcpmt:wlocale.obj
 0001:00034323       ??$_Seek_wrapped@V?$ostreambuf_iterator@GU?$char_traits@G@std@@@std@@V12@@std@@YAXAAV?$ostreambuf_iterator@GU?$char_traits@G@std@@@0@ABV10@@Z 10035323 f i libcpmt:wlocale.obj
 0001:0003433d       ??$_Seek_wrapped@V?$ostreambuf_iterator@_WU?$char_traits@_W@std@@@std@@V12@@std@@YAXAAV?$ostreambuf_iterator@_WU?$char_traits@_W@std@@@0@ABV10@@Z 1003533d f i libcpmt:wlocale.obj
 0001:00034357       ??$_Unfancy@G@std@@YAPAGPAG@Z 10035357 f i libcpmt:wlocale.obj
 0001:00034361       ??$addressof@$$CBV?$moneypunct@G$00@std@@@std@@YAPBV?$moneypunct@G$00@0@ABV10@@Z 10035361 f i libcpmt:wlocale.obj
 0001:0003436b       ??$addressof@$$CBV?$moneypunct@G$0A@@std@@@std@@YAPBV?$moneypunct@G$0A@@0@ABV10@@Z 1003536b f i libcpmt:wlocale.obj
 0001:00034375       ??$addressof@$$CBV?$moneypunct@_W$00@std@@@std@@YAPBV?$moneypunct@_W$00@0@ABV10@@Z 10035375 f i libcpmt:wlocale.obj
 0001:0003437f       ??$addressof@$$CBV?$moneypunct@_W$0A@@std@@@std@@YAPBV?$moneypunct@_W$0A@@0@ABV10@@Z 1003537f f i libcpmt:wlocale.obj
 0001:00034389       ??$addressof@PAG@std@@YAPAPAGAAPAG@Z 10035389 f i libcpmt:wlocale.obj
 0001:00034393       ??$addressof@V?$_String_val@U?$_Simple_types@G@std@@@std@@@std@@YAPAV?$_String_val@U?$_Simple_types@G@std@@@0@AAV10@@Z 10035393 f i libcpmt:wlocale.obj
 0001:0003439d       ??$addressof@V?$_String_val@U?$_Simple_types@_W@std@@@std@@@std@@YAPAV?$_String_val@U?$_Simple_types@_W@std@@@0@AAV10@@Z 1003539d f i libcpmt:wlocale.obj
 0001:000343a7       ??$addressof@V?$basic_string@GU?$char_traits@G@std@@V?$allocator@G@2@@std@@@std@@YAPAV?$basic_string@GU?$char_traits@G@std@@V?$allocator@G@2@@0@AAV10@@Z 100353a7 f i libcpmt:wlocale.obj
 0001:000343b1       ??$addressof@V?$basic_string@_WU?$char_traits@_W@std@@V?$allocator@_W@2@@std@@@std@@YAPAV?$basic_string@_WU?$char_traits@_W@std@@V?$allocator@_W@2@@0@AAV10@@Z 100353b1 f i libcpmt:wlocale.obj
 0001:000343bb       ??$construct@PAGABQAG@?$_Default_allocator_traits@V?$allocator@G@std@@@std@@SAXAAV?$allocator@G@1@QAPAGABQAG@Z 100353bb f i libcpmt:wlocale.obj
 0001:000343cd       ??$copy@PA_WV?$ostreambuf_iterator@GU?$char_traits@G@std@@@std@@@std@@YA?AV?$ostreambuf_iterator@GU?$char_traits@G@std@@@0@PA_W0V10@@Z 100353cd f i libcpmt:wlocale.obj
 0001:00034406       ??$copy@PA_WV?$ostreambuf_iterator@_WU?$char_traits@_W@std@@@std@@@std@@YA?AV?$ostreambuf_iterator@_WU?$char_traits@_W@std@@@0@PA_W0V10@@Z 10035406 f i libcpmt:wlocale.obj
 0001:0003443f       ??$destroy@PAG@?$_Default_allocator_traits@V?$allocator@G@std@@@std@@SAXAAV?$allocator@G@1@QAPAG@Z 1003543f f i libcpmt:wlocale.obj
 0001:00034440       ??$forward@ABQAG@std@@YAABQAGABQAG@Z 10035440 f i libcpmt:wlocale.obj
 0001:0003444a       ??$forward@V?$allocator@G@std@@@std@@YA$$QAV?$allocator@G@0@AAV10@@Z 1003544a f i libcpmt:wlocale.obj
 0001:00034454       ??$forward@V?$allocator@_W@std@@@std@@YA$$QAV?$allocator@_W@0@AAV10@@Z 10035454 f i libcpmt:wlocale.obj
 0001:0003445e       ??$move@AAV?$allocator@G@std@@@std@@YA$$QAV?$allocator@G@0@AAV10@@Z 1003545e f i libcpmt:wlocale.obj
 0001:00034468       ??$move@AAV?$allocator@_W@std@@@std@@YA$$QAV?$allocator@_W@0@AAV10@@Z 10035468 f i libcpmt:wlocale.obj
 0001:00034472       ??$move@AAV?$basic_string@GU?$char_traits@G@std@@V?$allocator@G@2@@std@@@std@@YA$$QAV?$basic_string@GU?$char_traits@G@std@@V?$allocator@G@2@@0@AAV10@@Z 10035472 f i libcpmt:wlocale.obj
 0001:0003447c       ??$move@AAV?$basic_string@_WU?$char_traits@_W@std@@V?$allocator@_W@2@@std@@@std@@YA$$QAV?$basic_string@_WU?$char_traits@_W@std@@V?$allocator@_W@2@@0@AAV10@@Z 1003547c f i libcpmt:wlocale.obj
 0001:00034486       ??$use_facet@V?$codecvt@GDU_Mbstatet@@@std@@@std@@YAABV?$codecvt@GDU_Mbstatet@@@0@ABVlocale@0@@Z 10035486 f i libcpmt:wlocale.obj
 0001:00034555       ??$use_facet@V?$codecvt@_WDU_Mbstatet@@@std@@@std@@YAABV?$codecvt@_WDU_Mbstatet@@@0@ABVlocale@0@@Z 10035555 f i libcpmt:wlocale.obj
 0001:00034624       ??$use_facet@V?$collate@G@std@@@std@@YAABV?$collate@G@0@ABVlocale@0@@Z 10035624 f i libcpmt:wlocale.obj
 0001:000346f3       ??$use_facet@V?$collate@_W@std@@@std@@YAABV?$collate@_W@0@ABVlocale@0@@Z 100356f3 f i libcpmt:wlocale.obj
 0001:000347c2       ??$use_facet@V?$ctype@G@std@@@std@@YAABV?$ctype@G@0@ABVlocale@0@@Z 100357c2 f i libcpmt:wlocale.obj
 0001:00034891       ??$use_facet@V?$ctype@_W@std@@@std@@YAABV?$ctype@_W@0@ABVlocale@0@@Z 10035891 f i libcpmt:wlocale.obj
 0001:00034960       ??$use_facet@V?$messages@G@std@@@std@@YAABV?$messages@G@0@ABVlocale@0@@Z 10035960 f i libcpmt:wlocale.obj
 0001:00034a2f       ??$use_facet@V?$messages@_W@std@@@std@@YAABV?$messages@_W@0@ABVlocale@0@@Z 10035a2f f i libcpmt:wlocale.obj
 0001:00034afe       ??$use_facet@V?$money_get@GV?$istreambuf_iterator@GU?$char_traits@G@std@@@std@@@std@@@std@@YAABV?$money_get@GV?$istreambuf_iterator@GU?$char_traits@G@std@@@std@@@0@ABVlocale@0@@Z 10035afe f i libcpmt:wlocale.obj
 0001:00034bcd       ??$use_facet@V?$money_get@_WV?$istreambuf_iterator@_WU?$char_traits@_W@std@@@std@@@std@@@std@@YAABV?$money_get@_WV?$istreambuf_iterator@_WU?$char_traits@_W@std@@@std@@@0@ABVlocale@0@@Z 10035bcd f i libcpmt:wlocale.obj
 0001:00034c9c       ??$use_facet@V?$money_put@GV?$ostreambuf_iterator@GU?$char_traits@G@std@@@std@@@std@@@std@@YAABV?$money_put@GV?$ostreambuf_iterator@GU?$char_traits@G@std@@@std@@@0@ABVlocale@0@@Z 10035c9c f i libcpmt:wlocale.obj
 0001:00034d6b       ??$use_facet@V?$money_put@_WV?$ostreambuf_iterator@_WU?$char_traits@_W@std@@@std@@@std@@@std@@YAABV?$money_put@_WV?$ostreambuf_iterator@_WU?$char_traits@_W@std@@@std@@@0@ABVlocale@0@@Z 10035d6b f i libcpmt:wlocale.obj
 0001:00034e3a       ??$use_facet@V?$moneypunct@G$00@std@@@std@@YAABV?$moneypunct@G$00@0@ABVlocale@0@@Z 10035e3a f i libcpmt:wlocale.obj
 0001:00034f09       ??$use_facet@V?$moneypunct@G$0A@@std@@@std@@YAABV?$moneypunct@G$0A@@0@ABVlocale@0@@Z 10035f09 f i libcpmt:wlocale.obj
 0001:00034fd8       ??$use_facet@V?$moneypunct@_W$00@std@@@std@@YAABV?$moneypunct@_W$00@0@ABVlocale@0@@Z 10035fd8 f i libcpmt:wlocale.obj
 0001:000350a7       ??$use_facet@V?$moneypunct@_W$0A@@std@@@std@@YAABV?$moneypunct@_W$0A@@0@ABVlocale@0@@Z 100360a7 f i libcpmt:wlocale.obj
 0001:00035176       ??$use_facet@V?$num_get@GV?$istreambuf_iterator@GU?$char_traits@G@std@@@std@@@std@@@std@@YAABV?$num_get@GV?$istreambuf_iterator@GU?$char_traits@G@std@@@std@@@0@ABVlocale@0@@Z 10036176 f i libcpmt:wlocale.obj
 0001:00035245       ??$use_facet@V?$num_get@_WV?$istreambuf_iterator@_WU?$char_traits@_W@std@@@std@@@std@@@std@@YAABV?$num_get@_WV?$istreambuf_iterator@_WU?$char_traits@_W@std@@@std@@@0@ABVlocale@0@@Z 10036245 f i libcpmt:wlocale.obj
 0001:00035314       ??$use_facet@V?$num_put@GV?$ostreambuf_iterator@GU?$char_traits@G@std@@@std@@@std@@@std@@YAABV?$num_put@GV?$ostreambuf_iterator@GU?$char_traits@G@std@@@std@@@0@ABVlocale@0@@Z 10036314 f i libcpmt:wlocale.obj
 0001:000353e3       ??$use_facet@V?$num_put@_WV?$ostreambuf_iterator@_WU?$char_traits@_W@std@@@std@@@std@@@std@@YAABV?$num_put@_WV?$ostreambuf_iterator@_WU?$char_traits@_W@std@@@std@@@0@ABVlocale@0@@Z 100363e3 f i libcpmt:wlocale.obj
 0001:000354b2       ??$use_facet@V?$numpunct@G@std@@@std@@YAABV?$numpunct@G@0@ABVlocale@0@@Z 100364b2 f i libcpmt:wlocale.obj
 0001:00035581       ??$use_facet@V?$numpunct@_W@std@@@std@@YAABV?$numpunct@_W@0@ABVlocale@0@@Z 10036581 f i libcpmt:wlocale.obj
 0001:00035650       ??$use_facet@V?$time_get@GV?$istreambuf_iterator@GU?$char_traits@G@std@@@std@@@std@@@std@@YAABV?$time_get@GV?$istreambuf_iterator@GU?$char_traits@G@std@@@std@@@0@ABVlocale@0@@Z 10036650 f i libcpmt:wlocale.obj
 0001:0003571f       ??$use_facet@V?$time_get@_WV?$istreambuf_iterator@_WU?$char_traits@_W@std@@@std@@@std@@@std@@YAABV?$time_get@_WV?$istreambuf_iterator@_WU?$char_traits@_W@std@@@std@@@0@ABVlocale@0@@Z 1003671f f i libcpmt:wlocale.obj
 0001:000357ee       ??$use_facet@V?$time_put@GV?$ostreambuf_iterator@GU?$char_traits@G@std@@@std@@@std@@@std@@YAABV?$time_put@GV?$ostreambuf_iterator@GU?$char_traits@G@std@@@std@@@0@ABVlocale@0@@Z 100367ee f i libcpmt:wlocale.obj
 0001:000358bd       ??$use_facet@V?$time_put@_WV?$ostreambuf_iterator@_WU?$char_traits@_W@std@@@std@@@std@@@std@@YAABV?$time_put@_WV?$ostreambuf_iterator@_WU?$char_traits@_W@std@@@std@@@0@ABVlocale@0@@Z 100368bd f i libcpmt:wlocale.obj
 0001:0003598c       ??0?$_Mpunct@G@std@@QAE@ABV_Locinfo@1@I_N1@Z 1003698c f i libcpmt:wlocale.obj
 0001:000359d7       ??0?$_Mpunct@_W@std@@QAE@ABV_Locinfo@1@I_N1@Z 100369d7 f i libcpmt:wlocale.obj
 0001:00035a22       ??0?$_String_alloc@U?$_String_base_types@GV?$allocator@G@std@@@std@@@std@@QAE@XZ 10036a22 f i libcpmt:wlocale.obj
 0001:00035a2f       ??0?$_String_const_iterator@V?$_String_val@U?$_Simple_types@G@std@@@std@@@std@@QAE@PBGPBU_Container_base0@1@@Z 10036a2f f i libcpmt:wlocale.obj
 0001:00035a40       ??0?$_String_const_iterator@V?$_String_val@U?$_Simple_types@G@std@@@std@@@std@@QAE@XZ 10036a40 f i libcpmt:wlocale.obj
 0001:00035a46       ??0?$_String_const_iterator@V?$_String_val@U?$_Simple_types@_W@std@@@std@@@std@@QAE@PB_WPBU_Container_base0@1@@Z 10036a46 f i libcpmt:wlocale.obj
 0001:00035a57       ??0?$_String_const_iterator@V?$_String_val@U?$_Simple_types@_W@std@@@std@@@std@@QAE@XZ 10036a57 f i libcpmt:wlocale.obj
 0001:00035a5d       ??0?$_String_iterator@V?$_String_val@U?$_Simple_types@G@std@@@std@@@std@@QAE@PAGPBU_Container_base0@1@@Z 10036a5d f i libcpmt:wlocale.obj
 0001:00035a6e       ??0?$_String_iterator@V?$_String_val@U?$_Simple_types@_W@std@@@std@@@std@@QAE@PA_WPBU_Container_base0@1@@Z 10036a6e f i libcpmt:wlocale.obj
 0001:00035a7f       ??0?$_String_val@U?$_Simple_types@G@std@@@std@@QAE@XZ 10036a7f f i libcpmt:wlocale.obj
 0001:00035a8c       ??0?$allocator@G@std@@QAE@XZ 10036a8c f i libcpmt:wlocale.obj
 0001:00035a8f       ??0?$basic_string@GU?$char_traits@G@std@@V?$allocator@G@2@@std@@QAE@$$QAV01@@Z 10036a8f f i libcpmt:wlocale.obj
 0001:00035ace       ??0?$basic_string@GU?$char_traits@G@std@@V?$allocator@G@2@@std@@QAE@ABV01@@Z 10036ace f i libcpmt:wlocale.obj
 0001:00035af2       ??0?$basic_string@GU?$char_traits@G@std@@V?$allocator@G@2@@std@@QAE@IG@Z 10036af2 f i libcpmt:wlocale.obj
 0001:00035b24       ??0?$basic_string@GU?$char_traits@G@std@@V?$allocator@G@2@@std@@QAE@QBG@Z 10036b24 f i libcpmt:wlocale.obj
 0001:00035b52       ??0?$basic_string@GU?$char_traits@G@std@@V?$allocator@G@2@@std@@QAE@QBGI@Z 10036b52 f i libcpmt:wlocale.obj
 0001:00035b84       ??0?$basic_string@GU?$char_traits@G@std@@V?$allocator@G@2@@std@@QAE@XZ 10036b84 f i libcpmt:wlocale.obj
 0001:00035b9b       ??0?$basic_string@_WU?$char_traits@_W@std@@V?$allocator@_W@2@@std@@QAE@$$QAV01@@Z 10036b9b f i libcpmt:wlocale.obj
 0001:00035bda       ??0?$basic_string@_WU?$char_traits@_W@std@@V?$allocator@_W@2@@std@@QAE@ABV01@@Z 10036bda f i libcpmt:wlocale.obj
 0001:00035bfe       ??0?$basic_string@_WU?$char_traits@_W@std@@V?$allocator@_W@2@@std@@QAE@QB_W@Z 10036bfe f i libcpmt:wlocale.obj
 0001:00035c2c       ??0?$basic_string@_WU?$char_traits@_W@std@@V?$allocator@_W@2@@std@@QAE@QB_WI@Z 10036c2c f i libcpmt:wlocale.obj
 0001:00035c5e       ??0?$basic_string@_WU?$char_traits@_W@std@@V?$allocator@_W@2@@std@@QAE@XZ 10036c5e f i libcpmt:wlocale.obj
 0001:00035c75       ??0?$codecvt@GDU_Mbstatet@@@std@@QAE@ABV_Locinfo@1@I@Z 10036c75 f i libcpmt:wlocale.obj
 0001:00035cb9       ??0?$codecvt@_WDU_Mbstatet@@@std@@QAE@ABV_Locinfo@1@I@Z 10036cb9 f i libcpmt:wlocale.obj
 0001:00035cfd       ??0?$collate@G@std@@QAE@ABV_Locinfo@1@I@Z 10036cfd f i libcpmt:wlocale.obj
 0001:00035d2f       ??0?$collate@_W@std@@QAE@ABV_Locinfo@1@I@Z 10036d2f f i libcpmt:wlocale.obj
 0001:00035d61       ??0?$ctype@G@std@@QAE@ABV_Locinfo@1@I@Z 10036d61 f i libcpmt:wlocale.obj
 0001:00035d8f       ??0?$ctype@_W@std@@QAE@ABV_Locinfo@1@I@Z 10036d8f f i libcpmt:wlocale.obj
 0001:00035dbd       ??0?$messages@G@std@@QAE@ABV_Locinfo@1@I@Z 10036dbd f i libcpmt:wlocale.obj
 0001:00035ddc       ??0?$messages@_W@std@@QAE@ABV_Locinfo@1@I@Z 10036ddc f i libcpmt:wlocale.obj
 0001:00035dfb       ??0?$money_get@GV?$istreambuf_iterator@GU?$char_traits@G@std@@@std@@@std@@QAE@ABV_Locinfo@1@I@Z 10036dfb f i libcpmt:wlocale.obj
 0001:00035e1a       ??0?$money_get@_WV?$istreambuf_iterator@_WU?$char_traits@_W@std@@@std@@@std@@QAE@ABV_Locinfo@1@I@Z 10036e1a f i libcpmt:wlocale.obj
 0001:00035e39       ??0?$money_put@GV?$ostreambuf_iterator@GU?$char_traits@G@std@@@std@@@std@@QAE@ABV_Locinfo@1@I@Z 10036e39 f i libcpmt:wlocale.obj
 0001:00035e58       ??0?$money_put@_WV?$ostreambuf_iterator@_WU?$char_traits@_W@std@@@std@@@std@@QAE@ABV_Locinfo@1@I@Z 10036e58 f i libcpmt:wlocale.obj
 0001:00035e77       ??0?$moneypunct@G$00@std@@QAE@ABV_Locinfo@1@I_N@Z 10036e77 f i libcpmt:wlocale.obj
 0001:00035ea7       ??0?$moneypunct@G$0A@@std@@QAE@ABV_Locinfo@1@I_N@Z 10036ea7 f i libcpmt:wlocale.obj
 0001:00035ed7       ??0?$moneypunct@_W$00@std@@QAE@ABV_Locinfo@1@I_N@Z 10036ed7 f i libcpmt:wlocale.obj
 0001:00035f07       ??0?$moneypunct@_W$0A@@std@@QAE@ABV_Locinfo@1@I_N@Z 10036f07 f i libcpmt:wlocale.obj
 0001:00035f37       ??0?$num_get@GV?$istreambuf_iterator@GU?$char_traits@G@std@@@std@@@std@@QAE@ABV_Locinfo@1@I@Z 10036f37 f i libcpmt:wlocale.obj
 0001:00035f56       ??0?$num_get@_WV?$istreambuf_iterator@_WU?$char_traits@_W@std@@@std@@@std@@QAE@ABV_Locinfo@1@I@Z 10036f56 f i libcpmt:wlocale.obj
 0001:00035f75       ??0?$num_put@GV?$ostreambuf_iterator@GU?$char_traits@G@std@@@std@@@std@@QAE@ABV_Locinfo@1@I@Z 10036f75 f i libcpmt:wlocale.obj
 0001:00035f94       ??0?$num_put@_WV?$ostreambuf_iterator@_WU?$char_traits@_W@std@@@std@@@std@@QAE@ABV_Locinfo@1@I@Z 10036f94 f i libcpmt:wlocale.obj
 0001:00035fb3       ??0?$numpunct@G@std@@QAE@ABV_Locinfo@1@I_N@Z 10036fb3 f i libcpmt:wlocale.obj
 0001:00035ff6       ??0?$numpunct@_W@std@@QAE@ABV_Locinfo@1@I_N@Z 10036ff6 f i libcpmt:wlocale.obj
 0001:00036039       ??0?$time_get@GV?$istreambuf_iterator@GU?$char_traits@G@std@@@std@@@std@@QAE@ABV_Locinfo@1@I@Z 10037039 f i libcpmt:wlocale.obj
 0001:00036078       ??0?$time_get@_WV?$istreambuf_iterator@_WU?$char_traits@_W@std@@@std@@@std@@QAE@ABV_Locinfo@1@I@Z 10037078 f i libcpmt:wlocale.obj
 0001:000360b7       ??0?$time_put@GV?$ostreambuf_iterator@GU?$char_traits@G@std@@@std@@@std@@QAE@ABV_Locinfo@1@I@Z 100370b7 f i libcpmt:wlocale.obj
 0001:000360f4       ??0?$time_put@_WV?$ostreambuf_iterator@_WU?$char_traits@_W@std@@@std@@@std@@QAE@ABV_Locinfo@1@I@Z 100370f4 f i libcpmt:wlocale.obj
 0001:00036131       ??0_Bxty@?$_String_val@U?$_Simple_types@G@std@@@std@@QAE@XZ 10037131 f i libcpmt:wlocale.obj
 0001:00036134       ??0_Timevec@std@@QAE@PAX@Z 10037134 f i libcpmt:wlocale.obj
 0001:00036145       ??0messages_base@std@@QAE@I@Z 10037145 f i libcpmt:wlocale.obj
 0001:00036164       ??0money_base@std@@QAE@I@Z 10037164 f i libcpmt:wlocale.obj
 0001:00036183       ??0time_base@std@@QAE@I@Z  10037183 f i libcpmt:wlocale.obj
 0001:000361a2       ??1?$_Compressed_pair@V?$allocator@G@std@@V?$_String_val@U?$_Simple_types@G@std@@@2@$00@std@@QAE@XZ 100371a2 f i libcpmt:wlocale.obj
 0001:000361a3       ??1?$_Mpunct@G@std@@MAE@XZ 100371a3 f i libcpmt:wlocale.obj
 0001:000361be       ??1?$_Mpunct@_W@std@@MAE@XZ 100371be f i libcpmt:wlocale.obj
 0001:000361d9       ??1?$_String_alloc@U?$_String_base_types@GV?$allocator@G@std@@@std@@@std@@QAE@XZ 100371d9 f i libcpmt:wlocale.obj
 0001:000361da       ??1?$_String_val@U?$_Simple_types@G@std@@@std@@QAE@XZ 100371da f i libcpmt:wlocale.obj
 0001:000361db       ??1?$basic_string@GU?$char_traits@G@std@@V?$allocator@G@2@@std@@QAE@XZ 100371db f i libcpmt:wlocale.obj
 0001:000361e0       ??1?$codecvt@GDU_Mbstatet@@@std@@MAE@XZ 100371e0 f i libcpmt:wlocale.obj
 0001:000361e7       ??1?$codecvt@_WDU_Mbstatet@@@std@@MAE@XZ 100371e7 f i libcpmt:wlocale.obj
 0001:000361ee       ??1?$collate@G@std@@MAE@XZ 100371ee f i libcpmt:wlocale.obj
 0001:0003620e       ??1?$collate@_W@std@@MAE@XZ 1003720e f i libcpmt:wlocale.obj
 0001:0003622e       ??1?$ctype@G@std@@MAE@XZ   1003722e f i libcpmt:wlocale.obj
 0001:00036261       ??1?$ctype@_W@std@@MAE@XZ  10037261 f i libcpmt:wlocale.obj
 0001:00036294       ??1?$messages@G@std@@MAE@XZ 10037294 f i libcpmt:wlocale.obj
 0001:0003629b       ??1?$messages@_W@std@@MAE@XZ 1003729b f i libcpmt:wlocale.obj
 0001:000362a2       ??1?$money_get@GV?$istreambuf_iterator@GU?$char_traits@G@std@@@std@@@std@@MAE@XZ 100372a2 f i libcpmt:wlocale.obj
 0001:000362a9       ??1?$money_get@_WV?$istreambuf_iterator@_WU?$char_traits@_W@std@@@std@@@std@@MAE@XZ 100372a9 f i libcpmt:wlocale.obj
 0001:000362b0       ??1?$money_put@GV?$ostreambuf_iterator@GU?$char_traits@G@std@@@std@@@std@@MAE@XZ 100372b0 f i libcpmt:wlocale.obj
 0001:000362b7       ??1?$money_put@_WV?$ostreambuf_iterator@_WU?$char_traits@_W@std@@@std@@@std@@MAE@XZ 100372b7 f i libcpmt:wlocale.obj
 0001:000362be       ??1?$moneypunct@G$00@std@@MAE@XZ 100372be f i libcpmt:wlocale.obj
 0001:000362d9       ??1?$moneypunct@G$0A@@std@@MAE@XZ 100372d9 f i libcpmt:wlocale.obj
 0001:000362f4       ??1?$moneypunct@_W$00@std@@MAE@XZ 100372f4 f i libcpmt:wlocale.obj
 0001:0003630f       ??1?$moneypunct@_W$0A@@std@@MAE@XZ 1003730f f i libcpmt:wlocale.obj
 0001:0003632a       ??1?$num_get@GV?$istreambuf_iterator@GU?$char_traits@G@std@@@std@@@std@@MAE@XZ 1003732a f i libcpmt:wlocale.obj
 0001:00036331       ??1?$num_get@_WV?$istreambuf_iterator@_WU?$char_traits@_W@std@@@std@@@std@@MAE@XZ 10037331 f i libcpmt:wlocale.obj
 0001:00036338       ??1?$num_put@GV?$ostreambuf_iterator@GU?$char_traits@G@std@@@std@@@std@@MAE@XZ 10037338 f i libcpmt:wlocale.obj
 0001:0003633f       ??1?$num_put@_WV?$ostreambuf_iterator@_WU?$char_traits@_W@std@@@std@@@std@@MAE@XZ 1003733f f i libcpmt:wlocale.obj
 0001:00036346       ??1?$numpunct@G@std@@MAE@XZ 10037346 f i libcpmt:wlocale.obj
 0001:00036361       ??1?$numpunct@_W@std@@MAE@XZ 10037361 f i libcpmt:wlocale.obj
 0001:0003637c       ??1?$time_get@GV?$istreambuf_iterator@GU?$char_traits@G@std@@@std@@@std@@MAE@XZ 1003737c f i libcpmt:wlocale.obj
 0001:00036397       ??1?$time_get@_WV?$istreambuf_iterator@_WU?$char_traits@_W@std@@@std@@@std@@MAE@XZ 10037397 f i libcpmt:wlocale.obj
 0001:000363b2       ??1?$time_put@GV?$ostreambuf_iterator@GU?$char_traits@G@std@@@std@@@std@@MAE@XZ 100373b2 f i libcpmt:wlocale.obj
 0001:000363d2       ??1?$time_put@_WV?$ostreambuf_iterator@_WU?$char_traits@_W@std@@@std@@@std@@MAE@XZ 100373d2 f i libcpmt:wlocale.obj
 0001:000363f2       ??1_Bxty@?$_String_val@U?$_Simple_types@G@std@@@std@@QAE@XZ 100373f2 f i libcpmt:wlocale.obj
 0001:000363f3       ??1_Timevec@std@@QAE@XZ    100373f3 f i libcpmt:wlocale.obj
 0001:000363fe       ??1messages_base@std@@UAE@XZ 100373fe f i libcpmt:wlocale.obj
 0001:00036405       ??1money_base@std@@UAE@XZ  10037405 f i libcpmt:wlocale.obj
 0001:0003640c       ??1time_base@std@@UAE@XZ   1003740c f i libcpmt:wlocale.obj
 0001:00036413       ??4?$_Yarn@_W@std@@QAEAAV01@PB_W@Z 10037413 f i libcpmt:wlocale.obj
 0001:00036486       ??4?$basic_string@GU?$char_traits@G@std@@V?$allocator@G@2@@std@@QAEAAV01@$$QAV01@@Z 10037486 f i libcpmt:wlocale.obj
 0001:000364ca       ??4?$basic_string@_WU?$char_traits@_W@std@@V?$allocator@_W@2@@std@@QAEAAV01@$$QAV01@@Z 100374ca f i libcpmt:wlocale.obj
 0001:0003650e       ??4?$ostreambuf_iterator@GU?$char_traits@G@std@@@std@@QAEAAV01@G@Z 1003750e f i libcpmt:wlocale.obj
 0001:00036541       ??4?$ostreambuf_iterator@_WU?$char_traits@_W@std@@@std@@QAEAAV01@_W@Z 10037541 f i libcpmt:wlocale.obj
 0001:00036574       ??4_Timevec@std@@QAEAAV01@ABV01@@Z 10037574 f i libcpmt:wlocale.obj
 0001:0003658b       ??8?$_String_const_iterator@V?$_String_val@U?$_Simple_types@G@std@@@std@@@std@@QBE_NABV01@@Z 1003758b f i libcpmt:wlocale.obj
 0001:000365a0       ??8?$_String_const_iterator@V?$_String_val@U?$_Simple_types@_W@std@@@std@@@std@@QBE_NABV01@@Z 100375a0 f i libcpmt:wlocale.obj
 0001:000365b5       ??9?$_String_const_iterator@V?$_String_val@U?$_Simple_types@G@std@@@std@@@std@@QBE_NABV01@@Z 100375b5 f i libcpmt:wlocale.obj
 0001:000365ca       ??9?$_String_const_iterator@V?$_String_val@U?$_Simple_types@_W@std@@@std@@@std@@QBE_NABV01@@Z 100375ca f i libcpmt:wlocale.obj
 0001:000365df       ??A?$basic_string@GU?$char_traits@G@std@@V?$allocator@G@2@@std@@QAEAAGI@Z 100375df f i libcpmt:wlocale.obj
 0001:000365f9       ??A?$basic_string@GU?$char_traits@G@std@@V?$allocator@G@2@@std@@QBEABGI@Z 100375f9 f i libcpmt:wlocale.obj
 0001:00036613       ??A?$basic_string@_WU?$char_traits@_W@std@@V?$allocator@_W@2@@std@@QBEAB_WI@Z 10037613 f i libcpmt:wlocale.obj
 0001:0003662d       ??D?$_String_const_iterator@V?$_String_val@U?$_Simple_types@G@std@@@std@@@std@@QBEABGXZ 1003762d f i libcpmt:wlocale.obj
 0001:00036630       ??D?$_String_const_iterator@V?$_String_val@U?$_Simple_types@_W@std@@@std@@@std@@QBEAB_WXZ 10037630 f i libcpmt:wlocale.obj
 0001:00036633       ??D?$_String_iterator@V?$_String_val@U?$_Simple_types@G@std@@@std@@@std@@QBEAAGXZ 10037633 f i libcpmt:wlocale.obj
 0001:00036636       ??D?$_String_iterator@V?$_String_val@U?$_Simple_types@_W@std@@@std@@@std@@QBEAA_WXZ 10037636 f i libcpmt:wlocale.obj
 0001:00036639       ??D?$istreambuf_iterator@GU?$char_traits@G@std@@@std@@QBEGXZ 10037639 f i libcpmt:wlocale.obj
 0001:00036652       ??D?$istreambuf_iterator@_WU?$char_traits@_W@std@@@std@@QBE_WXZ 10037652 f i libcpmt:wlocale.obj
 0001:0003666b       ??D?$ostreambuf_iterator@GU?$char_traits@G@std@@@std@@QAEAAV01@XZ 1003766b f i libcpmt:wlocale.obj
 0001:0003666e       ??D?$ostreambuf_iterator@_WU?$char_traits@_W@std@@@std@@QAEAAV01@XZ 1003766e f i libcpmt:wlocale.obj
 0001:00036671       ??E?$_String_const_iterator@V?$_String_val@U?$_Simple_types@G@std@@@std@@@std@@QAEAAV01@XZ 10037671 f i libcpmt:wlocale.obj
 0001:00036677       ??E?$_String_const_iterator@V?$_String_val@U?$_Simple_types@_W@std@@@std@@@std@@QAEAAV01@XZ 10037677 f i libcpmt:wlocale.obj
 0001:0003667d       ??E?$_String_iterator@V?$_String_val@U?$_Simple_types@G@std@@@std@@@std@@QAEAAV01@XZ 1003767d f i libcpmt:wlocale.obj
 0001:00036683       ??E?$_String_iterator@V?$_String_val@U?$_Simple_types@_W@std@@@std@@@std@@QAEAAV01@XZ 10037683 f i libcpmt:wlocale.obj
 0001:00036689       ??E?$istreambuf_iterator@GU?$char_traits@G@std@@@std@@QAEAAV01@XZ 10037689 f i libcpmt:wlocale.obj
 0001:00036698       ??E?$istreambuf_iterator@_WU?$char_traits@_W@std@@@std@@QAEAAV01@XZ 10037698 f i libcpmt:wlocale.obj
 0001:000366a7       ??E?$ostreambuf_iterator@GU?$char_traits@G@std@@@std@@QAEAAV01@H@Z 100376a7 f i libcpmt:wlocale.obj
 0001:000366ac       ??E?$ostreambuf_iterator@GU?$char_traits@G@std@@@std@@QAEAAV01@XZ 100376ac f i libcpmt:wlocale.obj
 0001:000366af       ??E?$ostreambuf_iterator@_WU?$char_traits@_W@std@@@std@@QAEAAV01@H@Z 100376af f i libcpmt:wlocale.obj
 0001:000366b4       ??E?$ostreambuf_iterator@_WU?$char_traits@_W@std@@@std@@QAEAAV01@XZ 100376b4 f i libcpmt:wlocale.obj
 0001:000366b7       ??G?$_String_iterator@V?$_String_val@U?$_Simple_types@G@std@@@std@@@std@@QBE?AV01@H@Z 100376b7 f i libcpmt:wlocale.obj
 0001:000366d1       ??G?$_String_iterator@V?$_String_val@U?$_Simple_types@_W@std@@@std@@@std@@QBE?AV01@H@Z 100376d1 f i libcpmt:wlocale.obj
 0001:000366eb       ??H?$_String_iterator@V?$_String_val@U?$_Simple_types@G@std@@@std@@@std@@QBE?AV01@H@Z 100376eb f i libcpmt:wlocale.obj
 0001:00036704       ??H?$_String_iterator@V?$_String_val@U?$_Simple_types@_W@std@@@std@@@std@@QBE?AV01@H@Z 10037704 f i libcpmt:wlocale.obj
 0001:00036b81       ??Y?$_String_const_iterator@V?$_String_val@U?$_Simple_types@G@std@@@std@@@std@@QAEAAV01@H@Z 10037b81 f i libcpmt:wlocale.obj
 0001:00036b95       ??Y?$_String_const_iterator@V?$_String_val@U?$_Simple_types@_W@std@@@std@@@std@@QAEAAV01@H@Z 10037b95 f i libcpmt:wlocale.obj
 0001:00036ba9       ??Y?$_String_iterator@V?$_String_val@U?$_Simple_types@G@std@@@std@@@std@@QAEAAV01@H@Z 10037ba9 f i libcpmt:wlocale.obj
 0001:00036bbd       ??Y?$_String_iterator@V?$_String_val@U?$_Simple_types@_W@std@@@std@@@std@@QAEAAV01@H@Z 10037bbd f i libcpmt:wlocale.obj
 0001:00036bd1       ??Y?$basic_string@DU?$char_traits@D@std@@V?$allocator@D@2@@std@@QAEAAV01@D@Z 10037bd1 f i libcpmt:wlocale.obj
 0001:00036beb       ??Y?$basic_string@GU?$char_traits@G@std@@V?$allocator@G@2@@std@@QAEAAV01@ABV01@@Z 10037beb f i libcpmt:wlocale.obj
 0001:00036bf6       ??Y?$basic_string@_WU?$char_traits@_W@std@@V?$allocator@_W@2@@std@@QAEAAV01@ABV01@@Z 10037bf6 f i libcpmt:wlocale.obj
 0001:00036c01       ??Z?$_String_iterator@V?$_String_val@U?$_Simple_types@G@std@@@std@@@std@@QAEAAV01@H@Z 10037c01 f i libcpmt:wlocale.obj
 0001:00036c17       ??Z?$_String_iterator@V?$_String_val@U?$_Simple_types@_W@std@@@std@@@std@@QAEAAV01@H@Z 10037c17 f i libcpmt:wlocale.obj
 0001:00036c2d       ??_G?$_Mpunct@G@std@@MAEPAXI@Z 10037c2d f i libcpmt:wlocale.obj
 0001:00036c2d       ??_E?$_Mpunct@G@std@@MAEPAXI@Z 10037c2d f i libcpmt:wlocale.obj
 0001:00036c66       ??_E?$_Mpunct@_W@std@@MAEPAXI@Z 10037c66 f i libcpmt:wlocale.obj
 0001:00036c66       ??_G?$_Mpunct@_W@std@@MAEPAXI@Z 10037c66 f i libcpmt:wlocale.obj
 0001:00036c9f       ??_E?$codecvt@GDU_Mbstatet@@@std@@MAEPAXI@Z 10037c9f f i libcpmt:wlocale.obj
 0001:00036c9f       ??_G?$codecvt@GDU_Mbstatet@@@std@@MAEPAXI@Z 10037c9f f i libcpmt:wlocale.obj
 0001:00036cca       ??_G?$codecvt@_WDU_Mbstatet@@@std@@MAEPAXI@Z 10037cca f i libcpmt:wlocale.obj
 0001:00036cca       ??_E?$codecvt@_WDU_Mbstatet@@@std@@MAEPAXI@Z 10037cca f i libcpmt:wlocale.obj
 0001:00036cf5       ??_E?$collate@G@std@@MAEPAXI@Z 10037cf5 f i libcpmt:wlocale.obj
 0001:00036cf5       ??_G?$collate@G@std@@MAEPAXI@Z 10037cf5 f i libcpmt:wlocale.obj
 0001:00036d1f       ??_G?$collate@_W@std@@MAEPAXI@Z 10037d1f f i libcpmt:wlocale.obj
 0001:00036d1f       ??_E?$collate@_W@std@@MAEPAXI@Z 10037d1f f i libcpmt:wlocale.obj
 0001:00036d49       ??_E?$ctype@G@std@@MAEPAXI@Z 10037d49 f i libcpmt:wlocale.obj
 0001:00036d49       ??_G?$ctype@G@std@@MAEPAXI@Z 10037d49 f i libcpmt:wlocale.obj
 0001:00036d73       ??_E?$ctype@_W@std@@MAEPAXI@Z 10037d73 f i libcpmt:wlocale.obj
 0001:00036d73       ??_G?$ctype@_W@std@@MAEPAXI@Z 10037d73 f i libcpmt:wlocale.obj
 0001:00036d9d       ??_E?$messages@G@std@@MAEPAXI@Z 10037d9d f i libcpmt:wlocale.obj
 0001:00036d9d       ??_G?$messages@G@std@@MAEPAXI@Z 10037d9d f i libcpmt:wlocale.obj
 0001:00036dc8       ??_G?$messages@_W@std@@MAEPAXI@Z 10037dc8 f i libcpmt:wlocale.obj
 0001:00036dc8       ??_E?$messages@_W@std@@MAEPAXI@Z 10037dc8 f i libcpmt:wlocale.obj
 0001:00036df3       ??_E?$money_get@GV?$istreambuf_iterator@GU?$char_traits@G@std@@@std@@@std@@MAEPAXI@Z 10037df3 f i libcpmt:wlocale.obj
 0001:00036df3       ??_G?$money_get@GV?$istreambuf_iterator@GU?$char_traits@G@std@@@std@@@std@@MAEPAXI@Z 10037df3 f i libcpmt:wlocale.obj
 0001:00036e1e       ??_G?$money_get@_WV?$istreambuf_iterator@_WU?$char_traits@_W@std@@@std@@@std@@MAEPAXI@Z 10037e1e f i libcpmt:wlocale.obj
 0001:00036e1e       ??_E?$money_get@_WV?$istreambuf_iterator@_WU?$char_traits@_W@std@@@std@@@std@@MAEPAXI@Z 10037e1e f i libcpmt:wlocale.obj
 0001:00036e49       ??_G?$money_put@GV?$ostreambuf_iterator@GU?$char_traits@G@std@@@std@@@std@@MAEPAXI@Z 10037e49 f i libcpmt:wlocale.obj
 0001:00036e49       ??_E?$money_put@GV?$ostreambuf_iterator@GU?$char_traits@G@std@@@std@@@std@@MAEPAXI@Z 10037e49 f i libcpmt:wlocale.obj
 0001:00036e74       ??_G?$money_put@_WV?$ostreambuf_iterator@_WU?$char_traits@_W@std@@@std@@@std@@MAEPAXI@Z 10037e74 f i libcpmt:wlocale.obj
 0001:00036e74       ??_E?$money_put@_WV?$ostreambuf_iterator@_WU?$char_traits@_W@std@@@std@@@std@@MAEPAXI@Z 10037e74 f i libcpmt:wlocale.obj
 0001:00036e9f       ??_G?$moneypunct@G$00@std@@MAEPAXI@Z 10037e9f f i libcpmt:wlocale.obj
 0001:00036e9f       ??_E?$moneypunct@G$00@std@@MAEPAXI@Z 10037e9f f i libcpmt:wlocale.obj
 0001:00036ed8       ??_G?$moneypunct@G$0A@@std@@MAEPAXI@Z 10037ed8 f i libcpmt:wlocale.obj
 0001:00036ed8       ??_E?$moneypunct@G$0A@@std@@MAEPAXI@Z 10037ed8 f i libcpmt:wlocale.obj
 0001:00036f11       ??_G?$moneypunct@_W$00@std@@MAEPAXI@Z 10037f11 f i libcpmt:wlocale.obj
 0001:00036f11       ??_E?$moneypunct@_W$00@std@@MAEPAXI@Z 10037f11 f i libcpmt:wlocale.obj
 0001:00036f4a       ??_E?$moneypunct@_W$0A@@std@@MAEPAXI@Z 10037f4a f i libcpmt:wlocale.obj
 0001:00036f4a       ??_G?$moneypunct@_W$0A@@std@@MAEPAXI@Z 10037f4a f i libcpmt:wlocale.obj
 0001:00036f83       ??_E?$num_get@GV?$istreambuf_iterator@GU?$char_traits@G@std@@@std@@@std@@MAEPAXI@Z 10037f83 f i libcpmt:wlocale.obj
 0001:00036f83       ??_G?$num_get@GV?$istreambuf_iterator@GU?$char_traits@G@std@@@std@@@std@@MAEPAXI@Z 10037f83 f i libcpmt:wlocale.obj
 0001:00036fae       ??_E?$num_get@_WV?$istreambuf_iterator@_WU?$char_traits@_W@std@@@std@@@std@@MAEPAXI@Z 10037fae f i libcpmt:wlocale.obj
 0001:00036fae       ??_G?$num_get@_WV?$istreambuf_iterator@_WU?$char_traits@_W@std@@@std@@@std@@MAEPAXI@Z 10037fae f i libcpmt:wlocale.obj
 0001:00036fd9       ??_G?$num_put@GV?$ostreambuf_iterator@GU?$char_traits@G@std@@@std@@@std@@MAEPAXI@Z 10037fd9 f i libcpmt:wlocale.obj
 0001:00036fd9       ??_E?$num_put@GV?$ostreambuf_iterator@GU?$char_traits@G@std@@@std@@@std@@MAEPAXI@Z 10037fd9 f i libcpmt:wlocale.obj
 0001:00037004       ??_G?$num_put@_WV?$ostreambuf_iterator@_WU?$char_traits@_W@std@@@std@@@std@@MAEPAXI@Z 10038004 f i libcpmt:wlocale.obj
 0001:00037004       ??_E?$num_put@_WV?$ostreambuf_iterator@_WU?$char_traits@_W@std@@@std@@@std@@MAEPAXI@Z 10038004 f i libcpmt:wlocale.obj
 0001:0003702f       ??_E?$numpunct@G@std@@MAEPAXI@Z 1003802f f i libcpmt:wlocale.obj
 0001:0003702f       ??_G?$numpunct@G@std@@MAEPAXI@Z 1003802f f i libcpmt:wlocale.obj
 0001:00037068       ??_G?$numpunct@_W@std@@MAEPAXI@Z 10038068 f i libcpmt:wlocale.obj
 0001:00037068       ??_E?$numpunct@_W@std@@MAEPAXI@Z 10038068 f i libcpmt:wlocale.obj
 0001:000370a1       ??_G?$time_get@GV?$istreambuf_iterator@GU?$char_traits@G@std@@@std@@@std@@MAEPAXI@Z 100380a1 f i libcpmt:wlocale.obj
 0001:000370a1       ??_E?$time_get@GV?$istreambuf_iterator@GU?$char_traits@G@std@@@std@@@std@@MAEPAXI@Z 100380a1 f i libcpmt:wlocale.obj
 0001:000370da       ??_E?$time_get@_WV?$istreambuf_iterator@_WU?$char_traits@_W@std@@@std@@@std@@MAEPAXI@Z 100380da f i libcpmt:wlocale.obj
 0001:000370da       ??_G?$time_get@_WV?$istreambuf_iterator@_WU?$char_traits@_W@std@@@std@@@std@@MAEPAXI@Z 100380da f i libcpmt:wlocale.obj
 0001:00037113       ??_G?$time_put@GV?$ostreambuf_iterator@GU?$char_traits@G@std@@@std@@@std@@MAEPAXI@Z 10038113 f i libcpmt:wlocale.obj
 0001:00037113       ??_E?$time_put@GV?$ostreambuf_iterator@GU?$char_traits@G@std@@@std@@@std@@MAEPAXI@Z 10038113 f i libcpmt:wlocale.obj
 0001:0003713d       ??_E?$time_put@_WV?$ostreambuf_iterator@_WU?$char_traits@_W@std@@@std@@@std@@MAEPAXI@Z 1003813d f i libcpmt:wlocale.obj
 0001:0003713d       ??_G?$time_put@_WV?$ostreambuf_iterator@_WU?$char_traits@_W@std@@@std@@@std@@MAEPAXI@Z 1003813d f i libcpmt:wlocale.obj
 0001:00037167       ??_Emessages_base@std@@UAEPAXI@Z 10038167 f i libcpmt:wlocale.obj
 0001:00037167       ??_Gmessages_base@std@@UAEPAXI@Z 10038167 f i libcpmt:wlocale.obj
 0001:00037192       ??_Gmoney_base@std@@UAEPAXI@Z 10038192 f i libcpmt:wlocale.obj
 0001:00037192       ??_Emoney_base@std@@UAEPAXI@Z 10038192 f i libcpmt:wlocale.obj
 0001:000371bd       ??_Etime_base@std@@UAEPAXI@Z 100381bd f i libcpmt:wlocale.obj
 0001:000371bd       ??_Gtime_base@std@@UAEPAXI@Z 100381bd f i libcpmt:wlocale.obj
 0001:000371e8       ?_Adopt@_Iterator_base0@std@@QAEXPBX@Z 100381e8 f i libcpmt:wlocale.obj
 0001:000371eb       ?_Assign_rv_contents@?$basic_string@GU?$char_traits@G@std@@V?$allocator@G@2@@std@@QAEX$$QAV12@U?$integral_constant@_N$00@2@@Z 100381eb f i libcpmt:wlocale.obj
 0001:0003721b       ?_Assign_rv_contents@?$basic_string@_WU?$char_traits@_W@std@@V?$allocator@_W@2@@std@@QAEX$$QAV12@U?$integral_constant@_N$00@2@@Z 1003821b f i libcpmt:wlocale.obj
 0001:0003724b       ?_Assign_rv_contents_with_alloc_always_equal@?$basic_string@GU?$char_traits@G@std@@V?$allocator@G@2@@std@@QAEX$$QAV12@U?$integral_constant@_N$00@2@@Z 1003824b f i libcpmt:wlocale.obj
 0001:0003727b       ?_Assign_rv_contents_with_alloc_always_equal@?$basic_string@_WU?$char_traits@_W@std@@V?$allocator@_W@2@@std@@QAEX$$QAV12@U?$integral_constant@_N$00@2@@Z 1003827b f i libcpmt:wlocale.obj
 0001:000372ab       ?_C_str@?$_Yarn@_W@std@@QBEPB_WXZ 100382ab f i libcpmt:wlocale.obj
 0001:000372b7       ?_Calculate_growth@?$basic_string@GU?$char_traits@G@std@@V?$allocator@G@2@@std@@QBEII@Z 100382b7 f i libcpmt:wlocale.obj
 0001:000372fa       ?_Check_offset@?$_String_val@U?$_Simple_types@G@std@@@std@@QBEXI@Z 100382fa f i libcpmt:wlocale.obj
 0001:00037314       ?_Check_offset@?$_String_val@U?$_Simple_types@_W@std@@@std@@QBEXI@Z 10038314 f i libcpmt:wlocale.obj
 0001:0003732e       ?_Compat@?$_String_const_iterator@V?$_String_val@U?$_Simple_types@G@std@@@std@@@std@@QBEXABV12@@Z 1003832e f i libcpmt:wlocale.obj
 0001:00037331       ?_Compat@?$_String_const_iterator@V?$_String_val@U?$_Simple_types@_W@std@@@std@@@std@@QBEXABV12@@Z 10038331 f i libcpmt:wlocale.obj
 0001:00037334       ?_Construct_lv_contents@?$basic_string@GU?$char_traits@G@std@@V?$allocator@G@2@@std@@QAEXABV12@@Z 10038334 f i libcpmt:wlocale.obj
 0001:000373b8       ?_Construct_lv_contents@?$basic_string@_WU?$char_traits@_W@std@@V?$allocator@_W@2@@std@@QAEXABV12@@Z 100383b8 f i libcpmt:wlocale.obj
 0001:0003743c       ?_Donarrow@?$ctype@G@std@@IBEDGD@Z 1003843c f i libcpmt:wlocale.obj
 0001:00037496       ?_Donarrow@?$ctype@_W@std@@IBED_WD@Z 10038496 f i libcpmt:wlocale.obj
 0001:000374f0       ?_Dowiden@?$ctype@G@std@@IBEGD@Z 100384f0 f i libcpmt:wlocale.obj
 0001:00037537       ?_Dowiden@?$ctype@_W@std@@IBE_WD@Z 10038537 f i libcpmt:wlocale.obj
 0001:0003757e       ?_Empty@?$_Yarn@_W@std@@QBE_NXZ 1003857e f i libcpmt:wlocale.obj
 0001:00037585       ?_Eos@?$basic_string@GU?$char_traits@G@std@@V?$allocator@G@2@@std@@QAEXI@Z 10038585 f i libcpmt:wlocale.obj
 0001:000375a9       ?_Eos@?$basic_string@_WU?$char_traits@_W@std@@V?$allocator@_W@2@@std@@QAEXI@Z 100385a9 f i libcpmt:wlocale.obj
 0001:000375cd       ?_Ffmt@?$num_put@GV?$ostreambuf_iterator@GU?$char_traits@G@std@@@std@@@std@@ABAPADPADDH@Z 100385cd f i libcpmt:wlocale.obj
 0001:00037687       ?_Ffmt@?$num_put@_WV?$ostreambuf_iterator@_WU?$char_traits@_W@std@@@std@@@std@@ABAPADPADDH@Z 10038687 f i libcpmt:wlocale.obj
 0001:00037741       ?_Fnv1a_append_bytes@std@@YAIIQBEI@Z 10038741 f i libcpmt:wlocale.obj
 0001:00037773       ?_Fput@?$num_put@GV?$ostreambuf_iterator@GU?$char_traits@G@std@@@std@@@std@@ABA?AV?$ostreambuf_iterator@GU?$char_traits@G@std@@@2@V32@AAVios_base@2@GPBDI@Z 10038773 f i libcpmt:wlocale.obj
 0001:00037b44       ?_Fput@?$num_put@_WV?$ostreambuf_iterator@_WU?$char_traits@_W@std@@@std@@@std@@ABA?AV?$ostreambuf_iterator@_WU?$char_traits@_W@std@@@2@V32@AAVios_base@2@_WPBDI@Z 10038b44 f i libcpmt:wlocale.obj
 0001:00037f15       ?_Get_data@?$_String_alloc@U?$_String_base_types@GV?$allocator@G@std@@@std@@@std@@QAEAAV?$_String_val@U?$_Simple_types@G@std@@@2@XZ 10038f15 f i libcpmt:wlocale.obj
 0001:00037f18       ?_Get_data@?$_String_alloc@U?$_String_base_types@GV?$allocator@G@std@@@std@@@std@@QBEABV?$_String_val@U?$_Simple_types@G@std@@@2@XZ 10038f18 f i libcpmt:wlocale.obj
 0001:00037f1b       ?_Get_first@?$_Compressed_pair@V?$allocator@G@std@@V?$_String_val@U?$_Simple_types@G@std@@@2@$00@std@@QAEAAV?$allocator@G@2@XZ 10038f1b f i libcpmt:wlocale.obj
 0001:00037f1e       ?_Get_first@?$_Compressed_pair@V?$allocator@G@std@@V?$_String_val@U?$_Simple_types@G@std@@@2@$00@std@@QBEABV?$allocator@G@2@XZ 10038f1e f i libcpmt:wlocale.obj
 0001:00037f21       ?_Get_second@?$_Compressed_pair@V?$allocator@G@std@@V?$_String_val@U?$_Simple_types@G@std@@@2@$00@std@@QAEAAV?$_String_val@U?$_Simple_types@G@std@@@2@XZ 10038f21 f i libcpmt:wlocale.obj
 0001:00037f24       ?_Get_second@?$_Compressed_pair@V?$allocator@G@std@@V?$_String_val@U?$_Simple_types@G@std@@@2@$00@std@@QBEABV?$_String_val@U?$_Simple_types@G@std@@@2@XZ 10038f24 f i libcpmt:wlocale.obj
 0001:00037f27       ?_Getal@?$_String_alloc@U?$_String_base_types@GV?$allocator@G@std@@@std@@@std@@QAEAAV?$allocator@G@2@XZ 10038f27 f i libcpmt:wlocale.obj
 0001:00037f2a       ?_Getal@?$_String_alloc@U?$_String_base_types@GV?$allocator@G@std@@@std@@@std@@QBEABV?$allocator@G@2@XZ 10038f2a f i libcpmt:wlocale.obj
 0001:00037f2d       ?_Getcat@?$codecvt@GDU_Mbstatet@@@std@@SAIPAPBVfacet@locale@2@PBV42@@Z 10038f2d f i libcpmt:wlocale.obj
 0001:00037fac       ?_Getcat@?$codecvt@_WDU_Mbstatet@@@std@@SAIPAPBVfacet@locale@2@PBV42@@Z 10038fac f i libcpmt:wlocale.obj
 0001:0003802b       ?_Getcat@?$collate@G@std@@SAIPAPBVfacet@locale@2@PBV42@@Z 1003902b f i libcpmt:wlocale.obj
 0001:000380f5       ?_Getcat@?$collate@_W@std@@SAIPAPBVfacet@locale@2@PBV42@@Z 100390f5 f i libcpmt:wlocale.obj
 0001:000381bf       ?_Getcat@?$ctype@G@std@@SAIPAPBVfacet@locale@2@PBV42@@Z 100391bf f i libcpmt:wlocale.obj
 0001:0003824b       ?_Getcat@?$ctype@_W@std@@SAIPAPBVfacet@locale@2@PBV42@@Z 1003924b f i libcpmt:wlocale.obj
 0001:000382d7       ?_Getcat@?$messages@G@std@@SAIPAPBVfacet@locale@2@PBV42@@Z 100392d7 f i libcpmt:wlocale.obj
 0001:00038359       ?_Getcat@?$messages@_W@std@@SAIPAPBVfacet@locale@2@PBV42@@Z 10039359 f i libcpmt:wlocale.obj
 0001:000383db       ?_Getcat@?$money_get@GV?$istreambuf_iterator@GU?$char_traits@G@std@@@std@@@std@@SAIPAPBVfacet@locale@2@PBV42@@Z 100393db f i libcpmt:wlocale.obj
 0001:0003845d       ?_Getcat@?$money_get@_WV?$istreambuf_iterator@_WU?$char_traits@_W@std@@@std@@@std@@SAIPAPBVfacet@locale@2@PBV42@@Z 1003945d f i libcpmt:wlocale.obj
 0001:000384df       ?_Getcat@?$money_put@GV?$ostreambuf_iterator@GU?$char_traits@G@std@@@std@@@std@@SAIPAPBVfacet@locale@2@PBV42@@Z 100394df f i libcpmt:wlocale.obj
 0001:00038561       ?_Getcat@?$money_put@_WV?$ostreambuf_iterator@_WU?$char_traits@_W@std@@@std@@@std@@SAIPAPBVfacet@locale@2@PBV42@@Z 10039561 f i libcpmt:wlocale.obj
 0001:000385e3       ?_Getcat@?$moneypunct@G$00@std@@SAIPAPBVfacet@locale@2@PBV42@@Z 100395e3 f i libcpmt:wlocale.obj
 0001:00038688       ?_Getcat@?$moneypunct@G$0A@@std@@SAIPAPBVfacet@locale@2@PBV42@@Z 10039688 f i libcpmt:wlocale.obj
 0001:0003872e       ?_Getcat@?$moneypunct@_W$00@std@@SAIPAPBVfacet@locale@2@PBV42@@Z 1003972e f i libcpmt:wlocale.obj
 0001:000387d3       ?_Getcat@?$moneypunct@_W$0A@@std@@SAIPAPBVfacet@locale@2@PBV42@@Z 100397d3 f i libcpmt:wlocale.obj
 0001:00038879       ?_Getcat@?$num_get@GV?$istreambuf_iterator@GU?$char_traits@G@std@@@std@@@std@@SAIPAPBVfacet@locale@2@PBV42@@Z 10039879 f i libcpmt:wlocale.obj
 0001:000388fb       ?_Getcat@?$num_get@_WV?$istreambuf_iterator@_WU?$char_traits@_W@std@@@std@@@std@@SAIPAPBVfacet@locale@2@PBV42@@Z 100398fb f i libcpmt:wlocale.obj
 0001:0003897d       ?_Getcat@?$num_put@GV?$ostreambuf_iterator@GU?$char_traits@G@std@@@std@@@std@@SAIPAPBVfacet@locale@2@PBV42@@Z 1003997d f i libcpmt:wlocale.obj
 0001:000389ff       ?_Getcat@?$num_put@_WV?$ostreambuf_iterator@_WU?$char_traits@_W@std@@@std@@@std@@SAIPAPBVfacet@locale@2@PBV42@@Z 100399ff f i libcpmt:wlocale.obj
 0001:00038a81       ?_Getcat@?$numpunct@G@std@@SAIPAPBVfacet@locale@2@PBV42@@Z 10039a81 f i libcpmt:wlocale.obj
 0001:00038b1a       ?_Getcat@?$numpunct@_W@std@@SAIPAPBVfacet@locale@2@PBV42@@Z 10039b1a f i libcpmt:wlocale.obj
 0001:00038bb3       ?_Getcat@?$time_get@GV?$istreambuf_iterator@GU?$char_traits@G@std@@@std@@@std@@SAIPAPBVfacet@locale@2@PBV42@@Z 10039bb3 f i libcpmt:wlocale.obj
 0001:00038c3a       ?_Getcat@?$time_get@_WV?$istreambuf_iterator@_WU?$char_traits@_W@std@@@std@@@std@@SAIPAPBVfacet@locale@2@PBV42@@Z 10039c3a f i libcpmt:wlocale.obj
 0001:00038cc1       ?_Getcat@?$time_put@GV?$ostreambuf_iterator@GU?$char_traits@G@std@@@std@@@std@@SAIPAPBVfacet@locale@2@PBV42@@Z 10039cc1 f i libcpmt:wlocale.obj
 0001:00038d40       ?_Getcat@?$time_put@_WV?$ostreambuf_iterator@_WU?$char_traits@_W@std@@@std@@@std@@SAIPAPBVfacet@locale@2@PBV42@@Z 10039d40 f i libcpmt:wlocale.obj
 0001:00038dbf       ?_Getcoll@_Locinfo@std@@QBE?AU_Collvec@@XZ 10039dbf f i libcpmt:wlocale.obj
 0001:00038dda       ?_Getdateorder@_Locinfo@std@@QBEHXZ 10039dda f i libcpmt:wlocale.obj
 0001:00038ddf       ?_Getdays@_Locinfo@std@@QBEPBDXZ 10039ddf f i libcpmt:wlocale.obj
 0001:00038e18       ?_Getffld@?$num_get@GV?$istreambuf_iterator@GU?$char_traits@G@std@@@std@@@std@@ABAHPADAAV?$istreambuf_iterator@GU?$char_traits@G@std@@@2@1AAVios_base@2@PAH@Z 10039e18 f i libcpmt:wlocale.obj
 0001:000396a8       ?_Getffld@?$num_get@_WV?$istreambuf_iterator@_WU?$char_traits@_W@std@@@std@@@std@@ABAHPADAAV?$istreambuf_iterator@_WU?$char_traits@_W@std@@@2@1AAVios_base@2@PAH@Z 1003a6a8 f i libcpmt:wlocale.obj
 0001:00039f38       ?_Getffldx@?$num_get@GV?$istreambuf_iterator@GU?$char_traits@G@std@@@std@@@std@@ABAHPADAAV?$istreambuf_iterator@GU?$char_traits@G@std@@@2@1AAVios_base@2@PAH@Z 1003af38 f i libcpmt:wlocale.obj
 0001:0003a873       ?_Getffldx@?$num_get@_WV?$istreambuf_iterator@_WU?$char_traits@_W@std@@@std@@@std@@ABAHPADAAV?$istreambuf_iterator@_WU?$char_traits@_W@std@@@2@1AAVios_base@2@PAH@Z 1003b873 f i libcpmt:wlocale.obj
 0001:0003b1ae       ?_Getfmt@?$time_get@GV?$istreambuf_iterator@GU?$char_traits@G@std@@@std@@@std@@IBE?AV?$istreambuf_iterator@GU?$char_traits@G@std@@@2@V32@0AAVios_base@2@AAHPAUtm@@PBD@Z 1003c1ae f i libcpmt:wlocale.obj
 0001:0003b358       ?_Getfmt@?$time_get@_WV?$istreambuf_iterator@_WU?$char_traits@_W@std@@@std@@@std@@IBE?AV?$istreambuf_iterator@_WU?$char_traits@_W@std@@@2@V32@0AAVios_base@2@AAHPAUtm@@PBD@Z 1003c358 f i libcpmt:wlocale.obj
 0001:0003b502       ?_Getifld@?$num_get@GV?$istreambuf_iterator@GU?$char_traits@G@std@@@std@@@std@@ABAHPADAAV?$istreambuf_iterator@GU?$char_traits@G@std@@@2@1HABVlocale@2@@Z 1003c502 f i libcpmt:wlocale.obj
 0001:0003b9d7       ?_Getifld@?$num_get@_WV?$istreambuf_iterator@_WU?$char_traits@_W@std@@@std@@@std@@ABAHPADAAV?$istreambuf_iterator@_WU?$char_traits@_W@std@@@2@1HABVlocale@2@@Z 1003c9d7 f i libcpmt:wlocale.obj
 0001:0003beac       ?_Getint@?$time_get@GV?$istreambuf_iterator@GU?$char_traits@G@std@@@std@@@std@@ABAHAAV?$istreambuf_iterator@GU?$char_traits@G@std@@@2@0HHAAHABV?$ctype@G@2@@Z 1003ceac f i libcpmt:wlocale.obj
 0001:0003c0c8       ?_Getint@?$time_get@_WV?$istreambuf_iterator@_WU?$char_traits@_W@std@@@std@@@std@@ABAHAAV?$istreambuf_iterator@_WU?$char_traits@_W@std@@@2@0HHAAHABV?$ctype@_W@2@@Z 1003d0c8 f i libcpmt:wlocale.obj
 0001:0003c2e4       ?_Getmfld@?$money_get@GV?$istreambuf_iterator@GU?$char_traits@G@std@@@std@@@std@@ABE?AV?$basic_string@DU?$char_traits@D@std@@V?$allocator@D@2@@2@AAV?$istreambuf_iterator@GU?$char_traits@G@std@@@2@0_NAAVios_base@2@AAY0M@G@Z 1003d2e4 f i libcpmt:wlocale.obj
 0001:0003cf67       ?_Getmfld@?$money_get@_WV?$istreambuf_iterator@_WU?$char_traits@_W@std@@@std@@@std@@ABE?AV?$basic_string@DU?$char_traits@D@std@@V?$allocator@D@2@@2@AAV?$istreambuf_iterator@_WU?$char_traits@_W@std@@@2@0_NAAVios_base@2@AAY0M@_W@Z 1003df67 f i libcpmt:wlocale.obj
 0001:0003dbea       ?_Getmonths@_Locinfo@std@@QBEPBDXZ 1003ebea f i libcpmt:wlocale.obj
 0001:0003dc23       ?_Getptr@_Timevec@std@@QBEPAXXZ 1003ec23 f i libcpmt:wlocale.obj
 0001:0003dc26       ?_Getvals@?$_Mpunct@_W@std@@IAEX_WPBUlconv@@@Z 1003ec26 f i libcpmt:wlocale.obj
 0001:0003dcad       ?_Getvals@?$numpunct@_W@std@@IAEX_WPBUlconv@@U_Cvtvec@@@Z 1003ecad f i libcpmt:wlocale.obj
 0001:0003dcd2       ?_Gnavail@?$basic_streambuf@GU?$char_traits@G@std@@@std@@IBE_JXZ 1003ecd2 f i libcpmt:wlocale.obj
 0001:0003dce8       ?_Gnavail@?$basic_streambuf@_WU?$char_traits@_W@std@@@std@@IBE_JXZ 1003ece8 f i libcpmt:wlocale.obj
 0001:0003dcfe       ?_Gninc@?$basic_streambuf@GU?$char_traits@G@std@@@std@@IAEPAGXZ 1003ecfe f i libcpmt:wlocale.obj
 0001:0003dd12       ?_Gninc@?$basic_streambuf@_WU?$char_traits@_W@std@@@std@@IAEPA_WXZ 1003ed12 f i libcpmt:wlocale.obj
 0001:0003dd26       ?_Ifmt@?$num_put@GV?$ostreambuf_iterator@GU?$char_traits@G@std@@@std@@@std@@ABAPADPADPBDH@Z 1003ed26 f i libcpmt:wlocale.obj
 0001:0003ddb8       ?_Ifmt@?$num_put@_WV?$ostreambuf_iterator@_WU?$char_traits@_W@std@@@std@@@std@@ABAPADPADPBDH@Z 1003edb8 f i libcpmt:wlocale.obj
 0001:0003de4a       ?_Inc@?$istreambuf_iterator@GU?$char_traits@G@std@@@std@@AAEXXZ 1003ee4a f i libcpmt:wlocale.obj
 0001:0003de79       ?_Inc@?$istreambuf_iterator@_WU?$char_traits@_W@std@@@std@@AAEXXZ 1003ee79 f i libcpmt:wlocale.obj
 0001:0003dea8       ?_Init@?$_Mpunct@G@std@@IAEXABV_Locinfo@2@_N@Z 1003eea8 f i libcpmt:wlocale.obj
 0001:0003dfb3       ?_Init@?$_Mpunct@_W@std@@IAEXABV_Locinfo@2@_N@Z 1003efb3 f i libcpmt:wlocale.obj
 0001:0003e0be       ?_Init@?$codecvt@GDU_Mbstatet@@@std@@IAEXABV_Locinfo@2@@Z 1003f0be f i libcpmt:wlocale.obj
 0001:0003e0eb       ?_Init@?$codecvt@_WDU_Mbstatet@@@std@@IAEXABV_Locinfo@2@@Z 1003f0eb f i libcpmt:wlocale.obj
 0001:0003e118       ?_Init@?$collate@G@std@@IAEXABV_Locinfo@2@@Z 1003f118 f i libcpmt:wlocale.obj
 0001:0003e12e       ?_Init@?$collate@_W@std@@IAEXABV_Locinfo@2@@Z 1003f12e f i libcpmt:wlocale.obj
 0001:0003e144       ?_Init@?$ctype@G@std@@IAEXABV_Locinfo@2@@Z 1003f144 f i libcpmt:wlocale.obj
 0001:0003e18b       ?_Init@?$ctype@_W@std@@IAEXABV_Locinfo@2@@Z 1003f18b f i libcpmt:wlocale.obj
 0001:0003e1d2       ?_Init@?$messages@G@std@@IAEXABV_Locinfo@2@@Z 1003f1d2 f i libcpmt:wlocale.obj
 0001:0003e1d5       ?_Init@?$messages@_W@std@@IAEXABV_Locinfo@2@@Z 1003f1d5 f i libcpmt:wlocale.obj
 0001:0003e1d8       ?_Init@?$money_get@GV?$istreambuf_iterator@GU?$char_traits@G@std@@@std@@@std@@IAEXABV_Locinfo@2@@Z 1003f1d8 f i libcpmt:wlocale.obj
 0001:0003e1db       ?_Init@?$money_get@_WV?$istreambuf_iterator@_WU?$char_traits@_W@std@@@std@@@std@@IAEXABV_Locinfo@2@@Z 1003f1db f i libcpmt:wlocale.obj
 0001:0003e1de       ?_Init@?$money_put@GV?$ostreambuf_iterator@GU?$char_traits@G@std@@@std@@@std@@IAEXABV_Locinfo@2@@Z 1003f1de f i libcpmt:wlocale.obj
 0001:0003e1e1       ?_Init@?$money_put@_WV?$ostreambuf_iterator@_WU?$char_traits@_W@std@@@std@@@std@@IAEXABV_Locinfo@2@@Z 1003f1e1 f i libcpmt:wlocale.obj
 0001:0003e1e4       ?_Init@?$num_get@GV?$istreambuf_iterator@GU?$char_traits@G@std@@@std@@@std@@IAEXABV_Locinfo@2@@Z 1003f1e4 f i libcpmt:wlocale.obj
 0001:0003e1e7       ?_Init@?$num_get@_WV?$istreambuf_iterator@_WU?$char_traits@_W@std@@@std@@@std@@IAEXABV_Locinfo@2@@Z 1003f1e7 f i libcpmt:wlocale.obj
 0001:0003e1ea       ?_Init@?$num_put@GV?$ostreambuf_iterator@GU?$char_traits@G@std@@@std@@@std@@IAEXABV_Locinfo@2@@Z 1003f1ea f i libcpmt:wlocale.obj
 0001:0003e1ed       ?_Init@?$num_put@_WV?$ostreambuf_iterator@_WU?$char_traits@_W@std@@@std@@@std@@IAEXABV_Locinfo@2@@Z 1003f1ed f i libcpmt:wlocale.obj
 0001:0003e1f0       ?_Init@?$numpunct@G@std@@IAEXABV_Locinfo@2@_N@Z 1003f1f0 f i libcpmt:wlocale.obj
 0001:0003e327       ?_Init@?$numpunct@_W@std@@IAEXABV_Locinfo@2@_N@Z 1003f327 f i libcpmt:wlocale.obj
 0001:0003e458       ?_Init@?$time_get@GV?$istreambuf_iterator@GU?$char_traits@G@std@@@std@@@std@@IAEXABV_Locinfo@2@@Z 1003f458 f i libcpmt:wlocale.obj
 0001:0003e4b4       ?_Init@?$time_get@_WV?$istreambuf_iterator@_WU?$char_traits@_W@std@@@std@@@std@@IAEXABV_Locinfo@2@@Z 1003f4b4 f i libcpmt:wlocale.obj
 0001:0003e510       ?_Init@?$time_put@GV?$ostreambuf_iterator@GU?$char_traits@G@std@@@std@@@std@@IAEXABV_Locinfo@2@@Z 1003f510 f i libcpmt:wlocale.obj
 0001:0003e52c       ?_Init@?$time_put@_WV?$ostreambuf_iterator@_WU?$char_traits@_W@std@@@std@@@std@@IAEXABV_Locinfo@2@@Z 1003f52c f i libcpmt:wlocale.obj
 0001:0003e548       ?_Iput@?$num_put@GV?$ostreambuf_iterator@GU?$char_traits@G@std@@@std@@@std@@ABA?AV?$ostreambuf_iterator@GU?$char_traits@G@std@@@2@V32@AAVios_base@2@GPADI@Z 1003f548 f i libcpmt:wlocale.obj
 0001:0003e895       ?_Iput@?$num_put@_WV?$ostreambuf_iterator@_WU?$char_traits@_W@std@@@std@@@std@@ABA?AV?$ostreambuf_iterator@_WU?$char_traits@_W@std@@@2@V32@AAVios_base@2@_WPADI@Z 1003f895 f i libcpmt:wlocale.obj
 0001:0003ebe2       ?_Large_string_engaged@?$_String_val@U?$_Simple_types@G@std@@@std@@QBE_NXZ 1003fbe2 f i libcpmt:wlocale.obj
 0001:0003ebed       ?_Makeushloc@_Locimp@locale@std@@CAXABV_Locinfo@3@HPAV123@PBV23@@Z 1003fbed f   libcpmt:wlocale.obj
 0001:0003f256       ?_Makewloc@_Locimp@locale@std@@CAXABV_Locinfo@3@HPAV123@PBV23@@Z 10040256 f   libcpmt:wlocale.obj
 0001:0003f8bf       ?_Maklocwcs@std@@YAPA_WPB_W@Z 100408bf f i libcpmt:wlocale.obj
 0001:0003f91a       ?_Makpat@?$_Mpunct@G@std@@AAEXAAUpattern@money_base@2@III@Z 1004091a f i libcpmt:wlocale.obj
 0001:0003f96b       ?_Makpat@?$_Mpunct@_W@std@@AAEXAAUpattern@money_base@2@III@Z 1004096b f i libcpmt:wlocale.obj
 0001:0003f9bc       ?_Move_alloc@?$_String_alloc@U?$_String_base_types@GV?$allocator@G@std@@@std@@@std@@QAEXAAV?$allocator@G@2@@Z 100409bc f i libcpmt:wlocale.obj
 0001:0003f9bf       ?_Move_alloc@?$_String_alloc@U?$_String_base_types@_WV?$allocator@_W@std@@@std@@@std@@QAEXAAV?$allocator@_W@2@@Z 100409bf f i libcpmt:wlocale.obj
 0001:0003f9c2       ?_Myptr@?$_String_val@U?$_Simple_types@G@std@@@std@@QAEPAGXZ 100409c2 f i libcpmt:wlocale.obj
 0001:0003f9cf       ?_Myptr@?$_String_val@U?$_Simple_types@G@std@@@std@@QBEPBGXZ 100409cf f i libcpmt:wlocale.obj
 0001:0003f9dc       ?_Myptr@?$_String_val@U?$_Simple_types@_W@std@@@std@@QBEPB_WXZ 100409dc f i libcpmt:wlocale.obj
 0001:0003f9e9       ?_Orphan_all@?$_String_alloc@U?$_String_base_types@GV?$allocator@G@std@@@std@@@std@@QAEXXZ 100409e9 f i libcpmt:wlocale.obj
 0001:0003f9ea       ?_Peek@?$istreambuf_iterator@GU?$char_traits@G@std@@@std@@ABEGXZ 100409ea f i libcpmt:wlocale.obj
 0001:0003fa23       ?_Peek@?$istreambuf_iterator@_WU?$char_traits@_W@std@@@std@@ABE_WXZ 10040a23 f i libcpmt:wlocale.obj
 0001:0003fa5c       ?_Pnavail@?$basic_streambuf@GU?$char_traits@G@std@@@std@@IBE_JXZ 10040a5c f i libcpmt:wlocale.obj
 0001:0003fa72       ?_Pnavail@?$basic_streambuf@_WU?$char_traits@_W@std@@@std@@IBE_JXZ 10040a72 f i libcpmt:wlocale.obj
 0001:0003fa88       ?_Pninc@?$basic_streambuf@GU?$char_traits@G@std@@@std@@IAEPAGXZ 10040a88 f i libcpmt:wlocale.obj
 0001:0003fa9c       ?_Pninc@?$basic_streambuf@_WU?$char_traits@_W@std@@@std@@IAEPA_WXZ 10040a9c f i libcpmt:wlocale.obj
 0001:0003fab0       ?_Put@?$money_put@GV?$ostreambuf_iterator@GU?$char_traits@G@std@@@std@@@std@@CA?AV?$ostreambuf_iterator@GU?$char_traits@G@std@@@2@V32@V?$_String_const_iterator@V?$_String_val@U?$_Simple_types@G@std@@@std@@@2@I@Z 10040ab0 f i libcpmt:wlocale.obj
 0001:0003faf7       ?_Put@?$money_put@_WV?$ostreambuf_iterator@_WU?$char_traits@_W@std@@@std@@@std@@CA?AV?$ostreambuf_iterator@_WU?$char_traits@_W@std@@@2@V32@V?$_String_const_iterator@V?$_String_val@U?$_Simple_types@_W@std@@@std@@@2@I@Z 10040af7 f i libcpmt:wlocale.obj
 0001:0003fb3e       ?_Put@?$num_put@GV?$ostreambuf_iterator@GU?$char_traits@G@std@@@std@@@std@@ABA?AV?$ostreambuf_iterator@GU?$char_traits@G@std@@@2@V32@PBGI@Z 10040b3e f i libcpmt:wlocale.obj
 0001:0003fb80       ?_Put@?$num_put@_WV?$ostreambuf_iterator@_WU?$char_traits@_W@std@@@std@@@std@@ABA?AV?$ostreambuf_iterator@_WU?$char_traits@_W@std@@@2@V32@PB_WI@Z 10040b80 f i libcpmt:wlocale.obj
 0001:0003fbc2       ?_Putmfld@?$money_put@GV?$ostreambuf_iterator@GU?$char_traits@G@std@@@std@@@std@@ABE?AV?$ostreambuf_iterator@GU?$char_traits@G@std@@@2@V32@_NAAVios_base@2@G1V?$basic_string@GU?$char_traits@G@std@@V?$allocator@G@2@@2@G@Z 10040bc2 f i libcpmt:wlocale.obj
 0001:0004027d       ?_Putmfld@?$money_put@_WV?$ostreambuf_iterator@_WU?$char_traits@_W@std@@@std@@@std@@ABE?AV?$ostreambuf_iterator@_WU?$char_traits@_W@std@@@2@V32@_NAAVios_base@2@_W1V?$basic_string@_WU?$char_traits@_W@std@@V?$allocator@_W@2@@2@3@Z 1004127d f i libcpmt:wlocale.obj
 0001:00040938       ?_Rep@?$money_put@GV?$ostreambuf_iterator@GU?$char_traits@G@std@@@std@@@std@@CA?AV?$ostreambuf_iterator@GU?$char_traits@G@std@@@2@V32@GI@Z 10041938 f i libcpmt:wlocale.obj
 0001:0004096f       ?_Rep@?$money_put@_WV?$ostreambuf_iterator@_WU?$char_traits@_W@std@@@std@@@std@@CA?AV?$ostreambuf_iterator@_WU?$char_traits@_W@std@@@2@V32@_WI@Z 1004196f f i libcpmt:wlocale.obj
 0001:000409a6       ?_Rep@?$num_put@GV?$ostreambuf_iterator@GU?$char_traits@G@std@@@std@@@std@@ABA?AV?$ostreambuf_iterator@GU?$char_traits@G@std@@@2@V32@GI@Z 100419a6 f i libcpmt:wlocale.obj
 0001:000409dd       ?_Rep@?$num_put@_WV?$ostreambuf_iterator@_WU?$char_traits@_W@std@@@std@@@std@@ABA?AV?$ostreambuf_iterator@_WU?$char_traits@_W@std@@@2@V32@_WI@Z 100419dd f i libcpmt:wlocale.obj
 0001:00040a14       ?_Tidy@?$_Mpunct@G@std@@AAEXXZ 10041a14 f i libcpmt:wlocale.obj
 0001:00040a46       ?_Tidy@?$_Mpunct@_W@std@@AAEXXZ 10041a46 f i libcpmt:wlocale.obj
 0001:00040a78       ?_Tidy@?$numpunct@G@std@@AAEXXZ 10041a78 f i libcpmt:wlocale.obj
 0001:00040aa0       ?_Tidy@?$numpunct@_W@std@@AAEXXZ 10041aa0 f i libcpmt:wlocale.obj
 0001:00040ac8       ?_Tidy@?$time_get@GV?$istreambuf_iterator@GU?$char_traits@G@std@@@std@@@std@@AAEXXZ 10041ac8 f i libcpmt:wlocale.obj
 0001:00040af0       ?_Tidy@?$time_get@_WV?$istreambuf_iterator@_WU?$char_traits@_W@std@@@std@@@std@@AAEXXZ 10041af0 f i libcpmt:wlocale.obj
 0001:00040b18       ?_Tidy_deallocate@?$basic_string@GU?$char_traits@G@std@@V?$allocator@G@2@@std@@QAEXXZ 10041b18 f i libcpmt:wlocale.obj
 0001:00040b51       ?_Tidy_init@?$basic_string@GU?$char_traits@G@std@@V?$allocator@G@2@@std@@QAEXXZ 10041b51 f i libcpmt:wlocale.obj
 0001:00040b66       ?_W_Getdays@_Locinfo@std@@QBEPBGXZ 10041b66 f i libcpmt:wlocale.obj
 0001:00040b9f       ?_W_Getmonths@_Locinfo@std@@QBEPBGXZ 10041b9f f i libcpmt:wlocale.obj
 0001:00040bd8       ?_W_Gettnames@_Locinfo@std@@QBE?AV_Timevec@2@XZ 10041bd8 f i libcpmt:wlocale.obj
 0001:00040bef       ?_Xlen@?$basic_string@GU?$char_traits@G@std@@V?$allocator@G@2@@std@@SAXXZ 10041bef f i libcpmt:wlocale.obj
 0001:00040bfc       ?_Xran@?$_String_val@U?$_Simple_types@G@std@@@std@@SAXXZ 10041bfc f i libcpmt:wlocale.obj
 0001:00040c09       ?_Xran@?$_String_val@U?$_Simple_types@_W@std@@@std@@SAXXZ 10041c09 f i libcpmt:wlocale.obj
 0001:00040c16       ?allocate@?$allocator@G@std@@QAEPAGI@Z 10041c16 f i libcpmt:wlocale.obj
 0001:00040c3b       ?append@?$basic_string@GU?$char_traits@G@std@@V?$allocator@G@2@@std@@QAEAAV12@ABV12@@Z 10041c3b f i libcpmt:wlocale.obj
 0001:00040c5f       ?append@?$basic_string@GU?$char_traits@G@std@@V?$allocator@G@2@@std@@QAEAAV12@IG@Z 10041c5f f i libcpmt:wlocale.obj
 0001:00040cd2       ?append@?$basic_string@GU?$char_traits@G@std@@V?$allocator@G@2@@std@@QAEAAV12@QBGI@Z 10041cd2 f i libcpmt:wlocale.obj
 0001:00040d48       ?append@?$basic_string@_WU?$char_traits@_W@std@@V?$allocator@_W@2@@std@@QAEAAV12@ABV12@@Z 10041d48 f i libcpmt:wlocale.obj
 0001:00040d6c       ?append@?$basic_string@_WU?$char_traits@_W@std@@V?$allocator@_W@2@@std@@QAEAAV12@I_W@Z 10041d6c f i libcpmt:wlocale.obj
 0001:00040ddf       ?append@?$basic_string@_WU?$char_traits@_W@std@@V?$allocator@_W@2@@std@@QAEAAV12@QB_WI@Z 10041ddf f i libcpmt:wlocale.obj
 0001:00040e55       ?assign@?$_WChar_traits@G@std@@SAPAGQAGIG@Z 10041e55 f i libcpmt:wlocale.obj
 0001:00040e70       ?assign@?$_WChar_traits@G@std@@SAXAAGABG@Z 10041e70 f i libcpmt:wlocale.obj
 0001:00040e85       ?assign@?$basic_string@GU?$char_traits@G@std@@V?$allocator@G@2@@std@@QAEAAV12@$$QAV12@@Z 10041e85 f i libcpmt:wlocale.obj
 0001:00040e9f       ?assign@?$basic_string@GU?$char_traits@G@std@@V?$allocator@G@2@@std@@QAEAAV12@IG@Z 10041e9f f i libcpmt:wlocale.obj
 0001:00040efe       ?assign@?$basic_string@GU?$char_traits@G@std@@V?$allocator@G@2@@std@@QAEAAV12@QBG@Z 10041efe f i libcpmt:wlocale.obj
 0001:00040f31       ?assign@?$basic_string@GU?$char_traits@G@std@@V?$allocator@G@2@@std@@QAEAAV12@QBGI@Z 10041f31 f i libcpmt:wlocale.obj
 0001:00040f93       ?assign@?$basic_string@_WU?$char_traits@_W@std@@V?$allocator@_W@2@@std@@QAEAAV12@$$QAV12@@Z 10041f93 f i libcpmt:wlocale.obj
 0001:00040fad       ?assign@?$basic_string@_WU?$char_traits@_W@std@@V?$allocator@_W@2@@std@@QAEAAV12@QB_W@Z 10041fad f i libcpmt:wlocale.obj
 0001:00040fdd       ?assign@?$basic_string@_WU?$char_traits@_W@std@@V?$allocator@_W@2@@std@@QAEAAV12@QB_WI@Z 10041fdd f i libcpmt:wlocale.obj
 0001:0004103f       ?begin@?$basic_string@GU?$char_traits@G@std@@V?$allocator@G@2@@std@@QAE?AV?$_String_iterator@V?$_String_val@U?$_Simple_types@G@std@@@std@@@2@XZ 1004203f f i libcpmt:wlocale.obj
 0001:00041058       ?begin@?$basic_string@_WU?$char_traits@_W@std@@V?$allocator@_W@2@@std@@QAE?AV?$_String_iterator@V?$_String_val@U?$_Simple_types@_W@std@@@std@@@2@XZ 10042058 f i libcpmt:wlocale.obj
 0001:00041071       ?c_str@?$basic_string@GU?$char_traits@G@std@@V?$allocator@G@2@@std@@QBEPBGXZ 10042071 f i libcpmt:wlocale.obj
 0001:0004107e       ?c_str@?$basic_string@_WU?$char_traits@_W@std@@V?$allocator@_W@2@@std@@QBEPB_WXZ 1004207e f i libcpmt:wlocale.obj
 0001:0004108b       ?copy@?$_WChar_traits@G@std@@SAPAGQAGQBGI@Z 1004208b f i libcpmt:wlocale.obj
 0001:000410aa       ?copy@?$_WChar_traits@_W@std@@SAPA_WQA_WQB_WI@Z 100420aa f i libcpmt:wlocale.obj
 0001:000410c9       ?curr_symbol@?$_Mpunct@G@std@@QBE?AV?$basic_string@GU?$char_traits@G@std@@V?$allocator@G@2@@2@XZ 100420c9 f i libcpmt:wlocale.obj
 0001:000410f6       ?curr_symbol@?$_Mpunct@_W@std@@QBE?AV?$basic_string@_WU?$char_traits@_W@std@@V?$allocator@_W@2@@2@XZ 100420f6 f i libcpmt:wlocale.obj
 0001:00041123       ?date_order@?$time_get@GV?$istreambuf_iterator@GU?$char_traits@G@std@@@std@@@std@@QBE?AW4dateorder@time_base@2@XZ 10042123 f i libcpmt:wlocale.obj
 0001:00041141       ?date_order@?$time_get@_WV?$istreambuf_iterator@_WU?$char_traits@_W@std@@@std@@@std@@QBE?AW4dateorder@time_base@2@XZ 10042141 f i libcpmt:wlocale.obj
 0001:0004115f       ?deallocate@?$allocator@G@std@@QAEXQAGI@Z 1004215f f i libcpmt:wlocale.obj
 0001:0004117b       ?decimal_point@?$_Mpunct@G@std@@QBEGXZ 1004217b f i libcpmt:wlocale.obj
 0001:00041199       ?decimal_point@?$_Mpunct@_W@std@@QBE_WXZ 10042199 f i libcpmt:wlocale.obj
 0001:000411b7       ?decimal_point@?$numpunct@G@std@@QBEGXZ 100421b7 f i libcpmt:wlocale.obj
 0001:000411d5       ?decimal_point@?$numpunct@_W@std@@QBE_WXZ 100421d5 f i libcpmt:wlocale.obj
 0001:000411f3       ?do_always_noconv@?$codecvt@GDU_Mbstatet@@@std@@MBE_NXZ 100421f3 f i libcpmt:wlocale.obj
 0001:000411f6       ?do_always_noconv@?$codecvt@_WDU_Mbstatet@@@std@@MBE_NXZ 100421f6 f i libcpmt:wlocale.obj
 0001:000411f9       ?do_close@?$messages@G@std@@MBEXH@Z 100421f9 f i libcpmt:wlocale.obj
 0001:000411fc       ?do_close@?$messages@_W@std@@MBEXH@Z 100421fc f i libcpmt:wlocale.obj
 0001:000411ff       ?do_compare@?$collate@G@std@@MBEHPBG000@Z 100421ff f i libcpmt:wlocale.obj
 0001:0004123c       ?do_compare@?$collate@_W@std@@MBEHPB_W000@Z 1004223c f i libcpmt:wlocale.obj
 0001:00041279       ?do_curr_symbol@?$_Mpunct@G@std@@MBE?AV?$basic_string@GU?$char_traits@G@std@@V?$allocator@G@2@@2@XZ 10042279 f i libcpmt:wlocale.obj
 0001:00041293       ?do_curr_symbol@?$_Mpunct@_W@std@@MBE?AV?$basic_string@_WU?$char_traits@_W@std@@V?$allocator@_W@2@@2@XZ 10042293 f i libcpmt:wlocale.obj
 0001:000412ad       ?do_date_order@?$time_get@GV?$istreambuf_iterator@GU?$char_traits@G@std@@@std@@@std@@MBE?AW4dateorder@time_base@2@XZ 100422ad f i libcpmt:wlocale.obj
 0001:000412b1       ?do_date_order@?$time_get@_WV?$istreambuf_iterator@_WU?$char_traits@_W@std@@@std@@@std@@MBE?AW4dateorder@time_base@2@XZ 100422b1 f i libcpmt:wlocale.obj
 0001:000412b5       ?do_decimal_point@?$_Mpunct@G@std@@MBEGXZ 100422b5 f i libcpmt:wlocale.obj
 0001:000412ba       ?do_decimal_point@?$_Mpunct@_W@std@@MBE_WXZ 100422ba f i libcpmt:wlocale.obj
 0001:000412bf       ?do_decimal_point@?$numpunct@G@std@@MBEGXZ 100422bf f i libcpmt:wlocale.obj
 0001:000412c4       ?do_decimal_point@?$numpunct@_W@std@@MBE_WXZ 100422c4 f i libcpmt:wlocale.obj
 0001:000412c9       ?do_encoding@?$codecvt@GDU_Mbstatet@@@std@@MBEHXZ 100422c9 f i libcpmt:wlocale.obj
 0001:000412cc       ?do_encoding@?$codecvt@_WDU_Mbstatet@@@std@@MBEHXZ 100422cc f i libcpmt:wlocale.obj
 0001:000412cf       ?do_falsename@?$numpunct@G@std@@MBE?AV?$basic_string@GU?$char_traits@G@std@@V?$allocator@G@2@@2@XZ 100422cf f i libcpmt:wlocale.obj
 0001:000412e9       ?do_falsename@?$numpunct@_W@std@@MBE?AV?$basic_string@_WU?$char_traits@_W@std@@V?$allocator@_W@2@@2@XZ 100422e9 f i libcpmt:wlocale.obj
 0001:00041303       ?do_frac_digits@?$_Mpunct@G@std@@MBEHXZ 10042303 f i libcpmt:wlocale.obj
 0001:00041307       ?do_frac_digits@?$_Mpunct@_W@std@@MBEHXZ 10042307 f i libcpmt:wlocale.obj
 0001:0004130b       ?do_get@?$messages@G@std@@MBE?AV?$basic_string@GU?$char_traits@G@std@@V?$allocator@G@2@@2@HHHABV32@@Z 1004230b f i libcpmt:wlocale.obj
 0001:00041333       ?do_get@?$messages@_W@std@@MBE?AV?$basic_string@_WU?$char_traits@_W@std@@V?$allocator@_W@2@@2@HHHABV32@@Z 10042333 f i libcpmt:wlocale.obj
 0001:0004135b       ?do_get@?$money_get@GV?$istreambuf_iterator@GU?$char_traits@G@std@@@std@@@std@@MBE?AV?$istreambuf_iterator@GU?$char_traits@G@std@@@2@V32@0_NAAVios_base@2@AAHAAO@Z 1004235b f i libcpmt:wlocale.obj
 0001:0004142d       ?do_get@?$money_get@GV?$istreambuf_iterator@GU?$char_traits@G@std@@@std@@@std@@MBE?AV?$istreambuf_iterator@GU?$char_traits@G@std@@@2@V32@0_NAAVios_base@2@AAHAAV?$basic_string@GU?$char_traits@G@std@@V?$allocator@G@2@@2@@Z 1004242d f i libcpmt:wlocale.obj
 0001:0004153d       ?do_get@?$money_get@_WV?$istreambuf_iterator@_WU?$char_traits@_W@std@@@std@@@std@@MBE?AV?$istreambuf_iterator@_WU?$char_traits@_W@std@@@2@V32@0_NAAVios_base@2@AAHAAO@Z 1004253d f i libcpmt:wlocale.obj
 0001:0004160f       ?do_get@?$money_get@_WV?$istreambuf_iterator@_WU?$char_traits@_W@std@@@std@@@std@@MBE?AV?$istreambuf_iterator@_WU?$char_traits@_W@std@@@2@V32@0_NAAVios_base@2@AAHAAV?$basic_string@_WU?$char_traits@_W@std@@V?$allocator@_W@2@@2@@Z 1004260f f i libcpmt:wlocale.obj
 0001:0004171f       ?do_get@?$num_get@GV?$istreambuf_iterator@GU?$char_traits@G@std@@@std@@@std@@MBE?AV?$istreambuf_iterator@GU?$char_traits@G@std@@@2@V32@0AAVios_base@2@AAHAAG@Z 1004271f f i libcpmt:wlocale.obj
 0001:00041848       ?do_get@?$num_get@GV?$istreambuf_iterator@GU?$char_traits@G@std@@@std@@@std@@MBE?AV?$istreambuf_iterator@GU?$char_traits@G@std@@@2@V32@0AAVios_base@2@AAHAAI@Z 10042848 f i libcpmt:wlocale.obj
 0001:0004189b       ?do_get@?$num_get@GV?$istreambuf_iterator@GU?$char_traits@G@std@@@std@@@std@@MBE?AV?$istreambuf_iterator@GU?$char_traits@G@std@@@2@V32@0AAVios_base@2@AAHAAJ@Z 1004289b f i libcpmt:wlocale.obj
 0001:00041990       ?do_get@?$num_get@GV?$istreambuf_iterator@GU?$char_traits@G@std@@@std@@@std@@MBE?AV?$istreambuf_iterator@GU?$char_traits@G@std@@@2@V32@0AAVios_base@2@AAHAAK@Z 10042990 f i libcpmt:wlocale.obj
 0001:00041a85       ?do_get@?$num_get@GV?$istreambuf_iterator@GU?$char_traits@G@std@@@std@@@std@@MBE?AV?$istreambuf_iterator@GU?$char_traits@G@std@@@2@V32@0AAVios_base@2@AAHAAM@Z 10042a85 f i libcpmt:wlocale.obj
 0001:00041bbe       ?do_get@?$num_get@GV?$istreambuf_iterator@GU?$char_traits@G@std@@@std@@@std@@MBE?AV?$istreambuf_iterator@GU?$char_traits@G@std@@@2@V32@0AAVios_base@2@AAHAAN@Z 10042bbe f i libcpmt:wlocale.obj
 0001:00041ceb       ?do_get@?$num_get@GV?$istreambuf_iterator@GU?$char_traits@G@std@@@std@@@std@@MBE?AV?$istreambuf_iterator@GU?$char_traits@G@std@@@2@V32@0AAVios_base@2@AAHAAO@Z 10042ceb f i libcpmt:wlocale.obj
 0001:00041d3c       ?do_get@?$num_get@GV?$istreambuf_iterator@GU?$char_traits@G@std@@@std@@@std@@MBE?AV?$istreambuf_iterator@GU?$char_traits@G@std@@@2@V32@0AAVios_base@2@AAHAAPAX@Z 10042d3c f i libcpmt:wlocale.obj
 0001:00041e32       ?do_get@?$num_get@GV?$istreambuf_iterator@GU?$char_traits@G@std@@@std@@@std@@MBE?AV?$istreambuf_iterator@GU?$char_traits@G@std@@@2@V32@0AAVios_base@2@AAHAA_J@Z 10042e32 f i libcpmt:wlocale.obj
 0001:00041f2f       ?do_get@?$num_get@GV?$istreambuf_iterator@GU?$char_traits@G@std@@@std@@@std@@MBE?AV?$istreambuf_iterator@GU?$char_traits@G@std@@@2@V32@0AAVios_base@2@AAHAA_K@Z 10042f2f f i libcpmt:wlocale.obj
 0001:0004202c       ?do_get@?$num_get@GV?$istreambuf_iterator@GU?$char_traits@G@std@@@std@@@std@@MBE?AV?$istreambuf_iterator@GU?$char_traits@G@std@@@2@V32@0AAVios_base@2@AAHAA_N@Z 1004302c f i libcpmt:wlocale.obj
 0001:000422ae       ?do_get@?$num_get@_WV?$istreambuf_iterator@_WU?$char_traits@_W@std@@@std@@@std@@MBE?AV?$istreambuf_iterator@_WU?$char_traits@_W@std@@@2@V32@0AAVios_base@2@AAHAAG@Z 100432ae f i libcpmt:wlocale.obj
 0001:000423d7       ?do_get@?$num_get@_WV?$istreambuf_iterator@_WU?$char_traits@_W@std@@@std@@@std@@MBE?AV?$istreambuf_iterator@_WU?$char_traits@_W@std@@@2@V32@0AAVios_base@2@AAHAAI@Z 100433d7 f i libcpmt:wlocale.obj
 0001:0004242a       ?do_get@?$num_get@_WV?$istreambuf_iterator@_WU?$char_traits@_W@std@@@std@@@std@@MBE?AV?$istreambuf_iterator@_WU?$char_traits@_W@std@@@2@V32@0AAVios_base@2@AAHAAJ@Z 1004342a f i libcpmt:wlocale.obj
 0001:0004251f       ?do_get@?$num_get@_WV?$istreambuf_iterator@_WU?$char_traits@_W@std@@@std@@@std@@MBE?AV?$istreambuf_iterator@_WU?$char_traits@_W@std@@@2@V32@0AAVios_base@2@AAHAAK@Z 1004351f f i libcpmt:wlocale.obj
 0001:00042614       ?do_get@?$num_get@_WV?$istreambuf_iterator@_WU?$char_traits@_W@std@@@std@@@std@@MBE?AV?$istreambuf_iterator@_WU?$char_traits@_W@std@@@2@V32@0AAVios_base@2@AAHAAM@Z 10043614 f i libcpmt:wlocale.obj
 0001:0004274d       ?do_get@?$num_get@_WV?$istreambuf_iterator@_WU?$char_traits@_W@std@@@std@@@std@@MBE?AV?$istreambuf_iterator@_WU?$char_traits@_W@std@@@2@V32@0AAVios_base@2@AAHAAN@Z 1004374d f i libcpmt:wlocale.obj
 0001:0004287a       ?do_get@?$num_get@_WV?$istreambuf_iterator@_WU?$char_traits@_W@std@@@std@@@std@@MBE?AV?$istreambuf_iterator@_WU?$char_traits@_W@std@@@2@V32@0AAVios_base@2@AAHAAO@Z 1004387a f i libcpmt:wlocale.obj
 0001:000428cb       ?do_get@?$num_get@_WV?$istreambuf_iterator@_WU?$char_traits@_W@std@@@std@@@std@@MBE?AV?$istreambuf_iterator@_WU?$char_traits@_W@std@@@2@V32@0AAVios_base@2@AAHAAPAX@Z 100438cb f i libcpmt:wlocale.obj
 0001:000429c1       ?do_get@?$num_get@_WV?$istreambuf_iterator@_WU?$char_traits@_W@std@@@std@@@std@@MBE?AV?$istreambuf_iterator@_WU?$char_traits@_W@std@@@2@V32@0AAVios_base@2@AAHAA_J@Z 100439c1 f i libcpmt:wlocale.obj
 0001:00042abe       ?do_get@?$num_get@_WV?$istreambuf_iterator@_WU?$char_traits@_W@std@@@std@@@std@@MBE?AV?$istreambuf_iterator@_WU?$char_traits@_W@std@@@2@V32@0AAVios_base@2@AAHAA_K@Z 10043abe f i libcpmt:wlocale.obj
 0001:00042bbb       ?do_get@?$num_get@_WV?$istreambuf_iterator@_WU?$char_traits@_W@std@@@std@@@std@@MBE?AV?$istreambuf_iterator@_WU?$char_traits@_W@std@@@2@V32@0AAVios_base@2@AAHAA_N@Z 10043bbb f i libcpmt:wlocale.obj
 0001:00042e3d       ?do_get@?$time_get@GV?$istreambuf_iterator@GU?$char_traits@G@std@@@std@@@std@@MBE?AV?$istreambuf_iterator@GU?$char_traits@G@std@@@2@V32@0AAVios_base@2@AAHPAUtm@@DD@Z 10043e3d f i libcpmt:wlocale.obj
 0001:000432cb       ?do_get@?$time_get@_WV?$istreambuf_iterator@_WU?$char_traits@_W@std@@@std@@@std@@MBE?AV?$istreambuf_iterator@_WU?$char_traits@_W@std@@@2@V32@0AAVios_base@2@AAHPAUtm@@DD@Z 100442cb f i libcpmt:wlocale.obj
 0001:00043759       ?do_get_date@?$time_get@GV?$istreambuf_iterator@GU?$char_traits@G@std@@@std@@@std@@MBE?AV?$istreambuf_iterator@GU?$char_traits@G@std@@@2@V32@0AAVios_base@2@AAHPAUtm@@@Z 10044759 f i libcpmt:wlocale.obj
 0001:00043d32       ?do_get_date@?$time_get@_WV?$istreambuf_iterator@_WU?$char_traits@_W@std@@@std@@@std@@MBE?AV?$istreambuf_iterator@_WU?$char_traits@_W@std@@@2@V32@0AAVios_base@2@AAHPAUtm@@@Z 10044d32 f i libcpmt:wlocale.obj
 0001:0004430b       ?do_get_monthname@?$time_get@GV?$istreambuf_iterator@GU?$char_traits@G@std@@@std@@@std@@MBE?AV?$istreambuf_iterator@GU?$char_traits@G@std@@@2@V32@0AAVios_base@2@AAHPAUtm@@@Z 1004530b f i libcpmt:wlocale.obj
 0001:0004435b       ?do_get_monthname@?$time_get@_WV?$istreambuf_iterator@_WU?$char_traits@_W@std@@@std@@@std@@MBE?AV?$istreambuf_iterator@_WU?$char_traits@_W@std@@@2@V32@0AAVios_base@2@AAHPAUtm@@@Z 1004535b f i libcpmt:wlocale.obj
 0001:000443ab       ?do_get_time@?$time_get@GV?$istreambuf_iterator@GU?$char_traits@G@std@@@std@@@std@@MBE?AV?$istreambuf_iterator@GU?$char_traits@G@std@@@2@V32@0AAVios_base@2@AAHPAUtm@@@Z 100453ab f i libcpmt:wlocale.obj
 0001:00044515       ?do_get_time@?$time_get@_WV?$istreambuf_iterator@_WU?$char_traits@_W@std@@@std@@@std@@MBE?AV?$istreambuf_iterator@_WU?$char_traits@_W@std@@@2@V32@0AAVios_base@2@AAHPAUtm@@@Z 10045515 f i libcpmt:wlocale.obj
 0001:0004467f       ?do_get_weekday@?$time_get@GV?$istreambuf_iterator@GU?$char_traits@G@std@@@std@@@std@@MBE?AV?$istreambuf_iterator@GU?$char_traits@G@std@@@2@V32@0AAVios_base@2@AAHPAUtm@@@Z 1004567f f i libcpmt:wlocale.obj
 0001:000446cf       ?do_get_weekday@?$time_get@_WV?$istreambuf_iterator@_WU?$char_traits@_W@std@@@std@@@std@@MBE?AV?$istreambuf_iterator@_WU?$char_traits@_W@std@@@2@V32@0AAVios_base@2@AAHPAUtm@@@Z 100456cf f i libcpmt:wlocale.obj
 0001:0004471f       ?do_get_year@?$time_get@GV?$istreambuf_iterator@GU?$char_traits@G@std@@@std@@@std@@MBE?AV?$istreambuf_iterator@GU?$char_traits@G@std@@@2@V32@0AAVios_base@2@AAHPAUtm@@@Z 1004571f f i libcpmt:wlocale.obj
 0001:000447da       ?do_get_year@?$time_get@_WV?$istreambuf_iterator@_WU?$char_traits@_W@std@@@std@@@std@@MBE?AV?$istreambuf_iterator@_WU?$char_traits@_W@std@@@2@V32@0AAVios_base@2@AAHPAUtm@@@Z 100457da f i libcpmt:wlocale.obj
 0001:00044895       ?do_grouping@?$_Mpunct@G@std@@MBE?AV?$basic_string@DU?$char_traits@D@std@@V?$allocator@D@2@@2@XZ 10045895 f i libcpmt:wlocale.obj
 0001:000448af       ?do_grouping@?$_Mpunct@_W@std@@MBE?AV?$basic_string@DU?$char_traits@D@std@@V?$allocator@D@2@@2@XZ 100458af f i libcpmt:wlocale.obj
 0001:000448c9       ?do_grouping@?$numpunct@G@std@@MBE?AV?$basic_string@DU?$char_traits@D@std@@V?$allocator@D@2@@2@XZ 100458c9 f i libcpmt:wlocale.obj
 0001:000448e3       ?do_grouping@?$numpunct@_W@std@@MBE?AV?$basic_string@DU?$char_traits@D@std@@V?$allocator@D@2@@2@XZ 100458e3 f i libcpmt:wlocale.obj
 0001:000448fd       ?do_hash@?$collate@G@std@@MBEJPBG0@Z 100458fd f i libcpmt:wlocale.obj
 0001:00044926       ?do_hash@?$collate@_W@std@@MBEJPB_W0@Z 10045926 f i libcpmt:wlocale.obj
 0001:0004494f       ?do_in@?$codecvt@GDU_Mbstatet@@@std@@MBEHAAU_Mbstatet@@PBD1AAPBDPAG3AAPAG@Z 1004594f f i libcpmt:wlocale.obj
 0001:000449dc       ?do_in@?$codecvt@_WDU_Mbstatet@@@std@@MBEHAAU_Mbstatet@@PBD1AAPBDPA_W3AAPA_W@Z 100459dc f i libcpmt:wlocale.obj
 0001:00044a69       ?do_is@?$ctype@G@std@@MBEPBGPBG0PAF@Z 10045a69 f i libcpmt:wlocale.obj
 0001:00044a8c       ?do_is@?$ctype@G@std@@MBE_NFG@Z 10045a8c f i libcpmt:wlocale.obj
 0001:00044aaf       ?do_is@?$ctype@_W@std@@MBEPB_WPB_W0PAF@Z 10045aaf f i libcpmt:wlocale.obj
 0001:00044ad2       ?do_is@?$ctype@_W@std@@MBE_NF_W@Z 10045ad2 f i libcpmt:wlocale.obj
 0001:00044af5       ?do_length@?$codecvt@GDU_Mbstatet@@@std@@MBEHAAU_Mbstatet@@PBD1I@Z 10045af5 f i libcpmt:wlocale.obj
 0001:00044b83       ?do_length@?$codecvt@_WDU_Mbstatet@@@std@@MBEHAAU_Mbstatet@@PBD1I@Z 10045b83 f i libcpmt:wlocale.obj
 0001:00044c11       ?do_max_length@?$codecvt@GDU_Mbstatet@@@std@@MBEHXZ 10045c11 f i libcpmt:wlocale.obj
 0001:00044c15       ?do_max_length@?$codecvt@_WDU_Mbstatet@@@std@@MBEHXZ 10045c15 f i libcpmt:wlocale.obj
 0001:00044c19       ?do_narrow@?$ctype@G@std@@MBEDGD@Z 10045c19 f i libcpmt:wlocale.obj
 0001:00044c24       ?do_narrow@?$ctype@G@std@@MBEPBGPBG0DPAD@Z 10045c24 f i libcpmt:wlocale.obj
 0001:00044c89       ?do_narrow@?$ctype@_W@std@@MBED_WD@Z 10045c89 f i libcpmt:wlocale.obj
 0001:00044c94       ?do_narrow@?$ctype@_W@std@@MBEPB_WPB_W0DPAD@Z 10045c94 f i libcpmt:wlocale.obj
 0001:00044cf9       ?do_neg_format@?$_Mpunct@G@std@@MBE?AUpattern@money_base@2@XZ 10045cf9 f i libcpmt:wlocale.obj
 0001:00044d0b       ?do_neg_format@?$_Mpunct@_W@std@@MBE?AUpattern@money_base@2@XZ 10045d0b f i libcpmt:wlocale.obj
 0001:00044d1d       ?do_negative_sign@?$_Mpunct@G@std@@MBE?AV?$basic_string@GU?$char_traits@G@std@@V?$allocator@G@2@@2@XZ 10045d1d f i libcpmt:wlocale.obj
 0001:00044d37       ?do_negative_sign@?$_Mpunct@_W@std@@MBE?AV?$basic_string@_WU?$char_traits@_W@std@@V?$allocator@_W@2@@2@XZ 10045d37 f i libcpmt:wlocale.obj
 0001:00044d51       ?do_open@?$messages@G@std@@MBEHABV?$basic_string@DU?$char_traits@D@std@@V?$allocator@D@2@@2@ABVlocale@2@@Z 10045d51 f i libcpmt:wlocale.obj
 0001:00044d57       ?do_open@?$messages@_W@std@@MBEHABV?$basic_string@DU?$char_traits@D@std@@V?$allocator@D@2@@2@ABVlocale@2@@Z 10045d57 f i libcpmt:wlocale.obj
 0001:00044d5d       ?do_out@?$codecvt@GDU_Mbstatet@@@std@@MBEHAAU_Mbstatet@@PBG1AAPBGPAD3AAPAD@Z 10045d5d f i libcpmt:wlocale.obj
 0001:00044e7c       ?do_out@?$codecvt@_WDU_Mbstatet@@@std@@MBEHAAU_Mbstatet@@PB_W1AAPB_WPAD3AAPAD@Z 10045e7c f i libcpmt:wlocale.obj
 0001:00044f9b       ?do_pos_format@?$_Mpunct@G@std@@MBE?AUpattern@money_base@2@XZ 10045f9b f i libcpmt:wlocale.obj
 0001:00044fad       ?do_pos_format@?$_Mpunct@_W@std@@MBE?AUpattern@money_base@2@XZ 10045fad f i libcpmt:wlocale.obj
 0001:00044fbf       ?do_positive_sign@?$_Mpunct@G@std@@MBE?AV?$basic_string@GU?$char_traits@G@std@@V?$allocator@G@2@@2@XZ 10045fbf f i libcpmt:wlocale.obj
 0001:00044fd9       ?do_positive_sign@?$_Mpunct@_W@std@@MBE?AV?$basic_string@_WU?$char_traits@_W@std@@V?$allocator@_W@2@@2@XZ 10045fd9 f i libcpmt:wlocale.obj
 0001:00044ff3       ?do_put@?$money_put@GV?$ostreambuf_iterator@GU?$char_traits@G@std@@@std@@@std@@MBE?AV?$ostreambuf_iterator@GU?$char_traits@G@std@@@2@V32@_NAAVios_base@2@GABV?$basic_string@GU?$char_traits@G@std@@V?$allocator@G@2@@2@@Z 10045ff3 f i libcpmt:wlocale.obj
 0001:0004517f       ?do_put@?$money_put@GV?$ostreambuf_iterator@GU?$char_traits@G@std@@@std@@@std@@MBE?AV?$ostreambuf_iterator@GU?$char_traits@G@std@@@2@V32@_NAAVios_base@2@GO@Z 1004617f f i libcpmt:wlocale.obj
 0001:0004533a       ?do_put@?$money_put@_WV?$ostreambuf_iterator@_WU?$char_traits@_W@std@@@std@@@std@@MBE?AV?$ostreambuf_iterator@_WU?$char_traits@_W@std@@@2@V32@_NAAVios_base@2@_WABV?$basic_string@_WU?$char_traits@_W@std@@V?$allocator@_W@2@@2@@Z 1004633a f i libcpmt:wlocale.obj
 0001:000454c6       ?do_put@?$money_put@_WV?$ostreambuf_iterator@_WU?$char_traits@_W@std@@@std@@@std@@MBE?AV?$ostreambuf_iterator@_WU?$char_traits@_W@std@@@2@V32@_NAAVios_base@2@_WO@Z 100464c6 f i libcpmt:wlocale.obj
 0001:00045681       ?do_put@?$num_put@GV?$ostreambuf_iterator@GU?$char_traits@G@std@@@std@@@std@@MBE?AV?$ostreambuf_iterator@GU?$char_traits@G@std@@@2@V32@AAVios_base@2@GJ@Z 10046681 f i libcpmt:wlocale.obj
 0001:00045706       ?do_put@?$num_put@GV?$ostreambuf_iterator@GU?$char_traits@G@std@@@std@@@std@@MBE?AV?$ostreambuf_iterator@GU?$char_traits@G@std@@@2@V32@AAVios_base@2@GK@Z 10046706 f i libcpmt:wlocale.obj
 0001:0004578b       ?do_put@?$num_put@GV?$ostreambuf_iterator@GU?$char_traits@G@std@@@std@@@std@@MBE?AV?$ostreambuf_iterator@GU?$char_traits@G@std@@@2@V32@AAVios_base@2@GN@Z 1004678b f i libcpmt:wlocale.obj
 0001:000458ec       ?do_put@?$num_put@GV?$ostreambuf_iterator@GU?$char_traits@G@std@@@std@@@std@@MBE?AV?$ostreambuf_iterator@GU?$char_traits@G@std@@@2@V32@AAVios_base@2@GO@Z 100468ec f i libcpmt:wlocale.obj
 0001:00045a4d       ?do_put@?$num_put@GV?$ostreambuf_iterator@GU?$char_traits@G@std@@@std@@@std@@MBE?AV?$ostreambuf_iterator@GU?$char_traits@G@std@@@2@V32@AAVios_base@2@GPBX@Z 10046a4d f i libcpmt:wlocale.obj
 0001:00045abe       ?do_put@?$num_put@GV?$ostreambuf_iterator@GU?$char_traits@G@std@@@std@@@std@@MBE?AV?$ostreambuf_iterator@GU?$char_traits@G@std@@@2@V32@AAVios_base@2@G_J@Z 10046abe f i libcpmt:wlocale.obj
 0001:00045b47       ?do_put@?$num_put@GV?$ostreambuf_iterator@GU?$char_traits@G@std@@@std@@@std@@MBE?AV?$ostreambuf_iterator@GU?$char_traits@G@std@@@2@V32@AAVios_base@2@G_K@Z 10046b47 f i libcpmt:wlocale.obj
 0001:00045bd0       ?do_put@?$num_put@GV?$ostreambuf_iterator@GU?$char_traits@G@std@@@std@@@std@@MBE?AV?$ostreambuf_iterator@GU?$char_traits@G@std@@@2@V32@AAVios_base@2@G_N@Z 10046bd0 f i libcpmt:wlocale.obj
 0001:00045d97       ?do_put@?$num_put@_WV?$ostreambuf_iterator@_WU?$char_traits@_W@std@@@std@@@std@@MBE?AV?$ostreambuf_iterator@_WU?$char_traits@_W@std@@@2@V32@AAVios_base@2@_WJ@Z 10046d97 f i libcpmt:wlocale.obj
 0001:00045e1c       ?do_put@?$num_put@_WV?$ostreambuf_iterator@_WU?$char_traits@_W@std@@@std@@@std@@MBE?AV?$ostreambuf_iterator@_WU?$char_traits@_W@std@@@2@V32@AAVios_base@2@_WK@Z 10046e1c f i libcpmt:wlocale.obj
 0001:00045ea1       ?do_put@?$num_put@_WV?$ostreambuf_iterator@_WU?$char_traits@_W@std@@@std@@@std@@MBE?AV?$ostreambuf_iterator@_WU?$char_traits@_W@std@@@2@V32@AAVios_base@2@_WN@Z 10046ea1 f i libcpmt:wlocale.obj
 0001:00046002       ?do_put@?$num_put@_WV?$ostreambuf_iterator@_WU?$char_traits@_W@std@@@std@@@std@@MBE?AV?$ostreambuf_iterator@_WU?$char_traits@_W@std@@@2@V32@AAVios_base@2@_WO@Z 10047002 f i libcpmt:wlocale.obj
 0001:00046163       ?do_put@?$num_put@_WV?$ostreambuf_iterator@_WU?$char_traits@_W@std@@@std@@@std@@MBE?AV?$ostreambuf_iterator@_WU?$char_traits@_W@std@@@2@V32@AAVios_base@2@_WPBX@Z 10047163 f i libcpmt:wlocale.obj
 0001:000461d4       ?do_put@?$num_put@_WV?$ostreambuf_iterator@_WU?$char_traits@_W@std@@@std@@@std@@MBE?AV?$ostreambuf_iterator@_WU?$char_traits@_W@std@@@2@V32@AAVios_base@2@_W_J@Z 100471d4 f i libcpmt:wlocale.obj
 0001:0004625d       ?do_put@?$num_put@_WV?$ostreambuf_iterator@_WU?$char_traits@_W@std@@@std@@@std@@MBE?AV?$ostreambuf_iterator@_WU?$char_traits@_W@std@@@2@V32@AAVios_base@2@_W_K@Z 1004725d f i libcpmt:wlocale.obj
 0001:000462e6       ?do_put@?$num_put@_WV?$ostreambuf_iterator@_WU?$char_traits@_W@std@@@std@@@std@@MBE?AV?$ostreambuf_iterator@_WU?$char_traits@_W@std@@@2@V32@AAVios_base@2@_W_N@Z 100472e6 f i libcpmt:wlocale.obj
 0001:000464ad       ?do_put@?$time_put@GV?$ostreambuf_iterator@GU?$char_traits@G@std@@@std@@@std@@MBE?AV?$ostreambuf_iterator@GU?$char_traits@G@std@@@2@V32@AAVios_base@2@GPBUtm@@DD@Z 100474ad f i libcpmt:wlocale.obj
 0001:000465bd       ?do_put@?$time_put@_WV?$ostreambuf_iterator@_WU?$char_traits@_W@std@@@std@@@std@@MBE?AV?$ostreambuf_iterator@_WU?$char_traits@_W@std@@@2@V32@AAVios_base@2@_WPBUtm@@DD@Z 100475bd f i libcpmt:wlocale.obj
 0001:000466cd       ?do_scan_is@?$ctype@G@std@@MBEPBGFPBG0@Z 100476cd f i libcpmt:wlocale.obj
 0001:00046719       ?do_scan_is@?$ctype@_W@std@@MBEPB_WFPB_W0@Z 10047719 f i libcpmt:wlocale.obj
 0001:00046765       ?do_scan_not@?$ctype@G@std@@MBEPBGFPBG0@Z 10047765 f i libcpmt:wlocale.obj
 0001:000467b1       ?do_scan_not@?$ctype@_W@std@@MBEPB_WFPB_W0@Z 100477b1 f i libcpmt:wlocale.obj
 0001:000467fd       ?do_thousands_sep@?$_Mpunct@G@std@@MBEGXZ 100477fd f i libcpmt:wlocale.obj
 0001:00046802       ?do_thousands_sep@?$_Mpunct@_W@std@@MBE_WXZ 10047802 f i libcpmt:wlocale.obj
 0001:00046807       ?do_thousands_sep@?$numpunct@G@std@@MBEGXZ 10047807 f i libcpmt:wlocale.obj
 0001:0004680c       ?do_thousands_sep@?$numpunct@_W@std@@MBE_WXZ 1004780c f i libcpmt:wlocale.obj
 0001:00046811       ?do_tolower@?$ctype@G@std@@MBEGG@Z 10047811 f i libcpmt:wlocale.obj
 0001:0004682b       ?do_tolower@?$ctype@G@std@@MBEPBGPAGPBG@Z 1004782b f i libcpmt:wlocale.obj
 0001:00046885       ?do_tolower@?$ctype@_W@std@@MBEPB_WPA_WPB_W@Z 10047885 f i libcpmt:wlocale.obj
 0001:000468df       ?do_tolower@?$ctype@_W@std@@MBE_W_W@Z 100478df f i libcpmt:wlocale.obj
 0001:000468f9       ?do_toupper@?$ctype@G@std@@MBEGG@Z 100478f9 f i libcpmt:wlocale.obj
 0001:00046913       ?do_toupper@?$ctype@G@std@@MBEPBGPAGPBG@Z 10047913 f i libcpmt:wlocale.obj
 0001:0004696d       ?do_toupper@?$ctype@_W@std@@MBEPB_WPA_WPB_W@Z 1004796d f i libcpmt:wlocale.obj
 0001:000469c7       ?do_toupper@?$ctype@_W@std@@MBE_W_W@Z 100479c7 f i libcpmt:wlocale.obj
 0001:000469e1       ?do_transform@?$collate@G@std@@MBE?AV?$basic_string@GU?$char_traits@G@std@@V?$allocator@G@2@@2@PBG0@Z 100479e1 f i libcpmt:wlocale.obj
 0001:00046a88       ?do_transform@?$collate@_W@std@@MBE?AV?$basic_string@_WU?$char_traits@_W@std@@V?$allocator@_W@2@@2@PB_W0@Z 10047a88 f i libcpmt:wlocale.obj
 0001:00046b2f       ?do_truename@?$numpunct@G@std@@MBE?AV?$basic_string@GU?$char_traits@G@std@@V?$allocator@G@2@@2@XZ 10047b2f f i libcpmt:wlocale.obj
 0001:00046b49       ?do_truename@?$numpunct@_W@std@@MBE?AV?$basic_string@_WU?$char_traits@_W@std@@V?$allocator@_W@2@@2@XZ 10047b49 f i libcpmt:wlocale.obj
 0001:00046b63       ?do_unshift@?$codecvt@GDU_Mbstatet@@@std@@MBEHAAU_Mbstatet@@PAD1AAPAD@Z 10047b63 f i libcpmt:wlocale.obj
 0001:00046c17       ?do_unshift@?$codecvt@_WDU_Mbstatet@@@std@@MBEHAAU_Mbstatet@@PAD1AAPAD@Z 10047c17 f i libcpmt:wlocale.obj
 0001:00046ccb       ?do_widen@?$ctype@G@std@@MBEGD@Z 10047ccb f i libcpmt:wlocale.obj
 0001:00046cd6       ?do_widen@?$ctype@G@std@@MBEPBDPBD0PAG@Z 10047cd6 f i libcpmt:wlocale.obj
 0001:00046d35       ?do_widen@?$ctype@_W@std@@MBEPBDPBD0PA_W@Z 10047d35 f i libcpmt:wlocale.obj
 0001:00046d94       ?do_widen@?$ctype@_W@std@@MBE_WD@Z 10047d94 f i libcpmt:wlocale.obj
 0001:00046d9f       ?empty@?$basic_string@GU?$char_traits@G@std@@V?$allocator@G@2@@std@@QBE_NXZ 10047d9f f i libcpmt:wlocale.obj
 0001:00046da9       ?empty@?$basic_string@_WU?$char_traits@_W@std@@V?$allocator@_W@2@@std@@QBE_NXZ 10047da9 f i libcpmt:wlocale.obj
 0001:00046db3       ?end@?$basic_string@GU?$char_traits@G@std@@V?$allocator@G@2@@std@@QAE?AV?$_String_iterator@V?$_String_val@U?$_Simple_types@G@std@@@std@@@2@XZ 10047db3 f i libcpmt:wlocale.obj
 0001:00046dd6       ?end@?$basic_string@_WU?$char_traits@_W@std@@V?$allocator@_W@2@@std@@QAE?AV?$_String_iterator@V?$_String_val@U?$_Simple_types@_W@std@@@std@@@2@XZ 10047dd6 f i libcpmt:wlocale.obj
 0001:00046df9       ?eof@?$_WChar_traits@G@std@@SAGXZ 10047df9 f i libcpmt:wlocale.obj
 0001:00046dff       ?eof@?$_WChar_traits@_W@std@@SAGXZ 10047dff f i libcpmt:wlocale.obj
 0001:00046e05       ?eq_int_type@?$_WChar_traits@G@std@@SA_NABG0@Z 10047e05 f i libcpmt:wlocale.obj
 0001:00046e1e       ?eq_int_type@?$_WChar_traits@_W@std@@SA_NABG0@Z 10047e1e f i libcpmt:wlocale.obj
 0001:00046e37       ?equal@?$istreambuf_iterator@GU?$char_traits@G@std@@@std@@QBE_NABV12@@Z 10047e37 f i libcpmt:wlocale.obj
 0001:00046e7f       ?equal@?$istreambuf_iterator@_WU?$char_traits@_W@std@@@std@@QBE_NABV12@@Z 10047e7f f i libcpmt:wlocale.obj
 0001:00046ec7       ?erase@?$basic_string@DU?$char_traits@D@std@@V?$allocator@D@2@@std@@QAEAAV12@I@Z 10047ec7 f i libcpmt:wlocale.obj
 0001:00046ef9       ?erase@?$basic_string@GU?$char_traits@G@std@@V?$allocator@G@2@@std@@QAEAAV12@I@Z 10047ef9 f i libcpmt:wlocale.obj
 0001:00046f22       ?erase@?$basic_string@_WU?$char_traits@_W@std@@V?$allocator@_W@2@@std@@QAEAAV12@I@Z 10047f22 f i libcpmt:wlocale.obj
 0001:00046f4b       ?falsename@?$numpunct@G@std@@QBE?AV?$basic_string@GU?$char_traits@G@std@@V?$allocator@G@2@@2@XZ 10047f4b f i libcpmt:wlocale.obj
 0001:00046f78       ?falsename@?$numpunct@_W@std@@QBE?AV?$basic_string@_WU?$char_traits@_W@std@@V?$allocator@_W@2@@2@XZ 10047f78 f i libcpmt:wlocale.obj
 0001:00046fa5       ?frac_digits@?$_Mpunct@G@std@@QBEHXZ 10047fa5 f i libcpmt:wlocale.obj
 0001:00046fc3       ?frac_digits@?$_Mpunct@_W@std@@QBEHXZ 10047fc3 f i libcpmt:wlocale.obj
 0001:00046fe1       ?get_monthname@?$time_get@GV?$istreambuf_iterator@GU?$char_traits@G@std@@@std@@@std@@QBE?AV?$istreambuf_iterator@GU?$char_traits@G@std@@@2@V32@0AAVios_base@2@AAHPAUtm@@@Z 10047fe1 f i libcpmt:wlocale.obj
 0001:00047027       ?get_monthname@?$time_get@_WV?$istreambuf_iterator@_WU?$char_traits@_W@std@@@std@@@std@@QBE?AV?$istreambuf_iterator@_WU?$char_traits@_W@std@@@2@V32@0AAVios_base@2@AAHPAUtm@@@Z 10048027 f i libcpmt:wlocale.obj
 0001:0004706d       ?get_weekday@?$time_get@GV?$istreambuf_iterator@GU?$char_traits@G@std@@@std@@@std@@QBE?AV?$istreambuf_iterator@GU?$char_traits@G@std@@@2@V32@0AAVios_base@2@AAHPAUtm@@@Z 1004806d f i libcpmt:wlocale.obj
 0001:000470b3       ?get_weekday@?$time_get@_WV?$istreambuf_iterator@_WU?$char_traits@_W@std@@@std@@@std@@QBE?AV?$istreambuf_iterator@_WU?$char_traits@_W@std@@@2@V32@0AAVios_base@2@AAHPAUtm@@@Z 100480b3 f i libcpmt:wlocale.obj
 0001:000470f9       ?get_year@?$time_get@GV?$istreambuf_iterator@GU?$char_traits@G@std@@@std@@@std@@QBE?AV?$istreambuf_iterator@GU?$char_traits@G@std@@@2@V32@0AAVios_base@2@AAHPAUtm@@@Z 100480f9 f i libcpmt:wlocale.obj
 0001:0004713f       ?get_year@?$time_get@_WV?$istreambuf_iterator@_WU?$char_traits@_W@std@@@std@@@std@@QBE?AV?$istreambuf_iterator@_WU?$char_traits@_W@std@@@2@V32@0AAVios_base@2@AAHPAUtm@@@Z 1004813f f i libcpmt:wlocale.obj
 0001:00047185       ?gptr@?$basic_streambuf@GU?$char_traits@G@std@@@std@@IBEPAGXZ 10048185 f i libcpmt:wlocale.obj
 0001:0004718b       ?gptr@?$basic_streambuf@_WU?$char_traits@_W@std@@@std@@IBEPA_WXZ 1004818b f i libcpmt:wlocale.obj
 0001:00047191       ?grouping@?$_Mpunct@G@std@@QBE?AV?$basic_string@DU?$char_traits@D@std@@V?$allocator@D@2@@2@XZ 10048191 f i libcpmt:wlocale.obj
 0001:000471be       ?grouping@?$_Mpunct@_W@std@@QBE?AV?$basic_string@DU?$char_traits@D@std@@V?$allocator@D@2@@2@XZ 100481be f i libcpmt:wlocale.obj
 0001:000471eb       ?grouping@?$numpunct@G@std@@QBE?AV?$basic_string@DU?$char_traits@D@std@@V?$allocator@D@2@@2@XZ 100481eb f i libcpmt:wlocale.obj
 0001:00047218       ?grouping@?$numpunct@_W@std@@QBE?AV?$basic_string@DU?$char_traits@D@std@@V?$allocator@D@2@@2@XZ 10048218 f i libcpmt:wlocale.obj
 0001:00047245       ?insert@?$basic_string@GU?$char_traits@G@std@@V?$allocator@G@2@@std@@QAEAAV12@IIG@Z 10048245 f i libcpmt:wlocale.obj
 0001:000472db       ?insert@?$basic_string@_WU?$char_traits@_W@std@@V?$allocator@_W@2@@std@@QAEAAV12@II_W@Z 100482db f i libcpmt:wlocale.obj
 0001:00047371       ?is@?$ctype@G@std@@QBE_NFG@Z 10048371 f i libcpmt:wlocale.obj
 0001:0004739e       ?is@?$ctype@_W@std@@QBE_NF_W@Z 1004839e f i libcpmt:wlocale.obj
 0001:000473cb       ?length@?$_Char_traits@GG@std@@SAIPBG@Z 100483cb f i libcpmt:wlocale.obj
 0001:000473e7       ?length@?$_WChar_traits@G@std@@SAIPBG@Z 100483e7 f i libcpmt:wlocale.obj
 0001:00047403       ?length@?$_WChar_traits@_W@std@@SAIPB_W@Z 10048403 f i libcpmt:wlocale.obj
 0001:00047423       ?max_size@?$_Default_allocator_traits@V?$allocator@G@std@@@std@@SAIABV?$allocator@G@2@@Z 10048423 f i libcpmt:wlocale.obj
 0001:00047429       ?max_size@?$basic_string@GU?$char_traits@G@std@@V?$allocator@G@2@@std@@QBEIXZ 10048429 f i libcpmt:wlocale.obj
 0001:0004742f       ?move@?$_WChar_traits@G@std@@SAPAGQAGQBGI@Z 1004842f f i libcpmt:wlocale.obj
 0001:0004744e       ?move@?$_WChar_traits@_W@std@@SAPA_WQA_WQB_WI@Z 1004844e f i libcpmt:wlocale.obj
 0001:0004746d       ?name@locale@std@@QBE?AV?$basic_string@DU?$char_traits@D@std@@V?$allocator@D@2@@2@XZ 1004846d f i libcpmt:wlocale.obj
 0001:00047527       ?narrow@?$ctype@G@std@@QBEDGD@Z 10048527 f i libcpmt:wlocale.obj
 0001:00047554       ?narrow@?$ctype@_W@std@@QBED_WD@Z 10048554 f i libcpmt:wlocale.obj
 0001:00047581       ?neg_format@?$_Mpunct@G@std@@QBE?AUpattern@money_base@2@XZ 10048581 f i libcpmt:wlocale.obj
 0001:000475ae       ?neg_format@?$_Mpunct@_W@std@@QBE?AUpattern@money_base@2@XZ 100485ae f i libcpmt:wlocale.obj
 0001:000475db       ?negative_sign@?$_Mpunct@G@std@@QBE?AV?$basic_string@GU?$char_traits@G@std@@V?$allocator@G@2@@2@XZ 100485db f i libcpmt:wlocale.obj
 0001:00047608       ?negative_sign@?$_Mpunct@_W@std@@QBE?AV?$basic_string@_WU?$char_traits@_W@std@@V?$allocator@_W@2@@2@XZ 10048608 f i libcpmt:wlocale.obj
 0001:00047635       ?pos_format@?$_Mpunct@G@std@@QBE?AUpattern@money_base@2@XZ 10048635 f i libcpmt:wlocale.obj
 0001:00047662       ?pos_format@?$_Mpunct@_W@std@@QBE?AUpattern@money_base@2@XZ 10048662 f i libcpmt:wlocale.obj
 0001:0004768f       ?positive_sign@?$_Mpunct@G@std@@QBE?AV?$basic_string@GU?$char_traits@G@std@@V?$allocator@G@2@@2@XZ 1004868f f i libcpmt:wlocale.obj
 0001:000476bc       ?positive_sign@?$_Mpunct@_W@std@@QBE?AV?$basic_string@_WU?$char_traits@_W@std@@V?$allocator@_W@2@@2@XZ 100486bc f i libcpmt:wlocale.obj
 0001:000476e9       ?push_back@?$basic_string@GU?$char_traits@G@std@@V?$allocator@G@2@@std@@QAEXG@Z 100486e9 f i libcpmt:wlocale.obj
 0001:00047739       ?push_back@?$basic_string@_WU?$char_traits@_W@std@@V?$allocator@_W@2@@std@@QAEX_W@Z 10048739 f i libcpmt:wlocale.obj
 0001:00047789       ?resize@?$basic_string@GU?$char_traits@G@std@@V?$allocator@G@2@@std@@QAEXIG@Z 10048789 f i libcpmt:wlocale.obj
 0001:000477b4       ?resize@?$basic_string@_WU?$char_traits@_W@std@@V?$allocator@_W@2@@std@@QAEXI_W@Z 100487b4 f i libcpmt:wlocale.obj
 0001:000477df       ?sbumpc@?$basic_streambuf@GU?$char_traits@G@std@@@std@@QAEGXZ 100487df f i libcpmt:wlocale.obj
 0001:00047830       ?sbumpc@?$basic_streambuf@_WU?$char_traits@_W@std@@@std@@QAEGXZ 10048830 f i libcpmt:wlocale.obj
 0001:00047881       ?select_on_container_copy_construction@?$_Default_allocator_traits@V?$allocator@G@std@@@std@@SA?AV?$allocator@G@2@ABV32@@Z 10048881 f i libcpmt:wlocale.obj
 0001:0004788b       ?select_on_container_copy_construction@?$_Default_allocator_traits@V?$allocator@_W@std@@@std@@SA?AV?$allocator@_W@2@ABV32@@Z 1004888b f i libcpmt:wlocale.obj
 0001:00047895       ?sgetc@?$basic_streambuf@GU?$char_traits@G@std@@@std@@QAEGXZ 10048895 f i libcpmt:wlocale.obj
 0001:000478d8       ?sgetc@?$basic_streambuf@_WU?$char_traits@_W@std@@@std@@QAEGXZ 100488d8 f i libcpmt:wlocale.obj
 0001:0004791b       ?size@?$basic_string@GU?$char_traits@G@std@@V?$allocator@G@2@@std@@QBEIXZ 1004891b f i libcpmt:wlocale.obj
 0001:0004791f       ?size@?$basic_string@_WU?$char_traits@_W@std@@V?$allocator@_W@2@@std@@QBEIXZ 1004891f f i libcpmt:wlocale.obj
 0001:00047923       ?sputc@?$basic_streambuf@GU?$char_traits@G@std@@@std@@QAEGG@Z 10048923 f i libcpmt:wlocale.obj
 0001:00047983       ?sputc@?$basic_streambuf@_WU?$char_traits@_W@std@@@std@@QAEG_W@Z 10048983 f i libcpmt:wlocale.obj
 0001:000479e3       ?thousands_sep@?$_Mpunct@G@std@@QBEGXZ 100489e3 f i libcpmt:wlocale.obj
 0001:00047a01       ?thousands_sep@?$_Mpunct@_W@std@@QBE_WXZ 10048a01 f i libcpmt:wlocale.obj
 0001:00047a1f       ?thousands_sep@?$numpunct@G@std@@QBEGXZ 10048a1f f i libcpmt:wlocale.obj
 0001:00047a3d       ?thousands_sep@?$numpunct@_W@std@@QBE_WXZ 10048a3d f i libcpmt:wlocale.obj
 0001:00047a5b       ?to_char_type@?$_WChar_traits@G@std@@SAGABG@Z 10048a5b f i libcpmt:wlocale.obj
 0001:00047a68       ?to_char_type@?$_WChar_traits@_W@std@@SA_WABG@Z 10048a68 f i libcpmt:wlocale.obj
 0001:00047a75       ?to_int_type@?$_WChar_traits@G@std@@SAGABG@Z 10048a75 f i libcpmt:wlocale.obj
 0001:00047a82       ?to_int_type@?$_WChar_traits@_W@std@@SAGAB_W@Z 10048a82 f i libcpmt:wlocale.obj
 0001:00047a8f       ?truename@?$numpunct@G@std@@QBE?AV?$basic_string@GU?$char_traits@G@std@@V?$allocator@G@2@@2@XZ 10048a8f f i libcpmt:wlocale.obj
 0001:00047abc       ?truename@?$numpunct@_W@std@@QBE?AV?$basic_string@_WU?$char_traits@_W@std@@V?$allocator@_W@2@@2@XZ 10048abc f i libcpmt:wlocale.obj
 0001:00047ae9       ?widen@?$ctype@G@std@@QBEGD@Z 10048ae9 f i libcpmt:wlocale.obj
 0001:00047b12       ?widen@?$ctype@G@std@@QBEPBDPBD0PAG@Z 10048b12 f i libcpmt:wlocale.obj
 0001:00047b42       ?widen@?$ctype@_W@std@@QBEPBDPBD0PA_W@Z 10048b42 f i libcpmt:wlocale.obj
 0001:00047b72       ?widen@?$ctype@_W@std@@QBE_WD@Z 10048b72 f i libcpmt:wlocale.obj
 0001:00047b9b       _wmemcpy                   10048b9b f i libcpmt:wlocale.obj
 0001:00047bba       _wmemmove                  10048bba f i libcpmt:wlocale.obj
 0001:00047bd9       ??$_Copy_unchecked1@PADV?$ostreambuf_iterator@DU?$char_traits@D@std@@@std@@@std@@YA?AV?$ostreambuf_iterator@DU?$char_traits@D@std@@@0@PAD0V10@U_General_ptr_iterator_tag@0@@Z 10048bd9 f i libcpmt:xlocale.obj
 0001:00047c29       ??$_Copy_unchecked@PADV?$ostreambuf_iterator@DU?$char_traits@D@std@@@std@@@std@@YA?AV?$ostreambuf_iterator@DU?$char_traits@D@std@@@0@PAD0V10@@Z 10048c29 f i libcpmt:xlocale.obj
 0001:00047c59       ??$_Find_elem@D$0M@@std@@YAIAAY0M@$$CBDD@Z 10048c59 f i libcpmt:xlocale.obj
 0001:00047c87       ??$_Get_unwrapped@D@std@@YAPADQAD@Z 10048c87 f i libcpmt:xlocale.obj
 0001:00047c91       ??$_Get_unwrapped_n@V?$ostreambuf_iterator@DU?$char_traits@D@std@@@std@@H$0A@@std@@YAABV?$ostreambuf_iterator@DU?$char_traits@D@std@@@0@ABV10@H@Z 10048c91 f i libcpmt:xlocale.obj
 0001:00047c9b       ??$_Getvals@D@?$_Mpunct@D@std@@IAEXDPBUlconv@@@Z 10048c9b f i libcpmt:xlocale.obj
 0001:00047d36       ??$_Getvals@D@?$time_get@DV?$istreambuf_iterator@DU?$char_traits@D@std@@@std@@@std@@IAEXDABV_Locinfo@1@@Z 10048d36 f i libcpmt:xlocale.obj
 0001:00047dbb       ??$_Hash_array_representation@D@std@@YAIQBDI@Z 10048dbb f i libcpmt:xlocale.obj
 0001:00047dd9       ??$_Idl_distance@PADPAD@std@@YAHABQAD0@Z 10048dd9 f i libcpmt:xlocale.obj
 0001:00047deb       ??$_LStrcoll@D@std@@YAHPBD000PBU_Collvec@@@Z 10048deb f i libcpmt:xlocale.obj
 0001:00047df6       ??$_LStrxfrm@D@std@@YAIPAD0PBD1PBU_Collvec@@@Z 10048df6 f i libcpmt:xlocale.obj
 0001:00047e01       ??$_Ptr_copy_cat@PADV?$ostreambuf_iterator@DU?$char_traits@D@std@@@std@@@std@@YA?AU_General_ptr_iterator_tag@0@ABQADABV?$ostreambuf_iterator@DU?$char_traits@D@std@@@0@@Z 10048e01 f i libcpmt:xlocale.obj
 0001:00048178       ??$_Refancy@PAD$0A@@std@@YAPADPAD@Z 10049178 f i libcpmt:xlocale.obj
 0001:00048182       ??$_Seek_wrapped@V?$ostreambuf_iterator@DU?$char_traits@D@std@@@std@@V12@@std@@YAXAAV?$ostreambuf_iterator@DU?$char_traits@D@std@@@0@ABV10@@Z 10049182 f i libcpmt:xlocale.obj
 0001:0004819c       ??$addressof@$$CBV?$moneypunct@D$00@std@@@std@@YAPBV?$moneypunct@D$00@0@ABV10@@Z 1004919c f i libcpmt:xlocale.obj
 0001:000481a6       ??$addressof@$$CBV?$moneypunct@D$0A@@std@@@std@@YAPBV?$moneypunct@D$0A@@0@ABV10@@Z 100491a6 f i libcpmt:xlocale.obj
 0001:000481b0       ??$copy@PADV?$ostreambuf_iterator@DU?$char_traits@D@std@@@std@@@std@@YA?AV?$ostreambuf_iterator@DU?$char_traits@D@std@@@0@PAD0V10@@Z 100491b0 f i libcpmt:xlocale.obj
 0001:000481e9       ??$use_facet@V?$collate@D@std@@@std@@YAABV?$collate@D@0@ABVlocale@0@@Z 100491e9 f i libcpmt:xlocale.obj
 0001:000482b8       ??$use_facet@V?$messages@D@std@@@std@@YAABV?$messages@D@0@ABVlocale@0@@Z 100492b8 f i libcpmt:xlocale.obj
 0001:00048387       ??$use_facet@V?$money_get@DV?$istreambuf_iterator@DU?$char_traits@D@std@@@std@@@std@@@std@@YAABV?$money_get@DV?$istreambuf_iterator@DU?$char_traits@D@std@@@std@@@0@ABVlocale@0@@Z 10049387 f i libcpmt:xlocale.obj
 0001:00048456       ??$use_facet@V?$money_put@DV?$ostreambuf_iterator@DU?$char_traits@D@std@@@std@@@std@@@std@@YAABV?$money_put@DV?$ostreambuf_iterator@DU?$char_traits@D@std@@@std@@@0@ABVlocale@0@@Z 10049456 f i libcpmt:xlocale.obj
 0001:00048525       ??$use_facet@V?$moneypunct@D$00@std@@@std@@YAABV?$moneypunct@D$00@0@ABVlocale@0@@Z 10049525 f i libcpmt:xlocale.obj
 0001:000485f4       ??$use_facet@V?$moneypunct@D$0A@@std@@@std@@YAABV?$moneypunct@D$0A@@0@ABVlocale@0@@Z 100495f4 f i libcpmt:xlocale.obj
 0001:000486c3       ??$use_facet@V?$time_get@DV?$istreambuf_iterator@DU?$char_traits@D@std@@@std@@@std@@@std@@YAABV?$time_get@DV?$istreambuf_iterator@DU?$char_traits@D@std@@@std@@@0@ABVlocale@0@@Z 100496c3 f i libcpmt:xlocale.obj
 0001:00048792       ??$use_facet@V?$time_put@DV?$ostreambuf_iterator@DU?$char_traits@D@std@@@std@@@std@@@std@@YAABV?$time_put@DV?$ostreambuf_iterator@DU?$char_traits@D@std@@@std@@@0@ABVlocale@0@@Z 10049792 f i libcpmt:xlocale.obj
 0001:00048861       ??0?$_Mpunct@D@std@@QAE@ABV_Locinfo@1@I_N1@Z 10049861 f i libcpmt:xlocale.obj
 0001:000488ac       ??0?$_String_const_iterator@V?$_String_val@U?$_Simple_types@D@std@@@std@@@std@@QAE@PBDPBU_Container_base0@1@@Z 100498ac f i libcpmt:xlocale.obj
 0001:000488bd       ??0?$_String_const_iterator@V?$_String_val@U?$_Simple_types@D@std@@@std@@@std@@QAE@XZ 100498bd f i libcpmt:xlocale.obj
 0001:000488c3       ??0?$_String_iterator@V?$_String_val@U?$_Simple_types@D@std@@@std@@@std@@QAE@PADPBU_Container_base0@1@@Z 100498c3 f i libcpmt:xlocale.obj
 0001:000488d4       ??0?$basic_string@DU?$char_traits@D@std@@V?$allocator@D@2@@std@@QAE@QBDI@Z 100498d4 f i libcpmt:xlocale.obj
 0001:00048903       ??0?$collate@D@std@@QAE@ABV_Locinfo@1@I@Z 10049903 f i libcpmt:xlocale.obj
 0001:00048935       ??0?$messages@D@std@@QAE@ABV_Locinfo@1@I@Z 10049935 f i libcpmt:xlocale.obj
 0001:00048954       ??0?$money_get@DV?$istreambuf_iterator@DU?$char_traits@D@std@@@std@@@std@@QAE@ABV_Locinfo@1@I@Z 10049954 f i libcpmt:xlocale.obj
 0001:00048973       ??0?$money_put@DV?$ostreambuf_iterator@DU?$char_traits@D@std@@@std@@@std@@QAE@ABV_Locinfo@1@I@Z 10049973 f i libcpmt:xlocale.obj
 0001:00048992       ??0?$moneypunct@D$00@std@@QAE@ABV_Locinfo@1@I_N@Z 10049992 f i libcpmt:xlocale.obj
 0001:000489c2       ??0?$moneypunct@D$0A@@std@@QAE@ABV_Locinfo@1@I_N@Z 100499c2 f i libcpmt:xlocale.obj
 0001:000489f2       ??0?$time_get@DV?$istreambuf_iterator@DU?$char_traits@D@std@@@std@@@std@@QAE@ABV_Locinfo@1@I@Z 100499f2 f i libcpmt:xlocale.obj
 0001:00048a31       ??0?$time_put@DV?$ostreambuf_iterator@DU?$char_traits@D@std@@@std@@@std@@QAE@ABV_Locinfo@1@I@Z 10049a31 f i libcpmt:xlocale.obj
 0001:00048a6e       ??1?$_Mpunct@D@std@@MAE@XZ 10049a6e f i libcpmt:xlocale.obj
 0001:00048a89       ??1?$collate@D@std@@MAE@XZ 10049a89 f i libcpmt:xlocale.obj
 0001:00048aa9       ??1?$messages@D@std@@MAE@XZ 10049aa9 f i libcpmt:xlocale.obj
 0001:00048ab0       ??1?$money_get@DV?$istreambuf_iterator@DU?$char_traits@D@std@@@std@@@std@@MAE@XZ 10049ab0 f i libcpmt:xlocale.obj
 0001:00048ab7       ??1?$money_put@DV?$ostreambuf_iterator@DU?$char_traits@D@std@@@std@@@std@@MAE@XZ 10049ab7 f i libcpmt:xlocale.obj
 0001:00048abe       ??1?$moneypunct@D$00@std@@MAE@XZ 10049abe f i libcpmt:xlocale.obj
 0001:00048ad9       ??1?$moneypunct@D$0A@@std@@MAE@XZ 10049ad9 f i libcpmt:xlocale.obj
 0001:00048af4       ??1?$time_get@DV?$istreambuf_iterator@DU?$char_traits@D@std@@@std@@@std@@MAE@XZ 10049af4 f i libcpmt:xlocale.obj
 0001:00048b0f       ??1?$time_put@DV?$ostreambuf_iterator@DU?$char_traits@D@std@@@std@@@std@@MAE@XZ 10049b0f f i libcpmt:xlocale.obj
 0001:00048b2f       ??8?$_String_const_iterator@V?$_String_val@U?$_Simple_types@D@std@@@std@@@std@@QBE_NABV01@@Z 10049b2f f i libcpmt:xlocale.obj
 0001:00048b44       ??9?$_String_const_iterator@V?$_String_val@U?$_Simple_types@D@std@@@std@@@std@@QBE_NABV01@@Z 10049b44 f i libcpmt:xlocale.obj
 0001:00048b59       ??D?$_String_const_iterator@V?$_String_val@U?$_Simple_types@D@std@@@std@@@std@@QBEABDXZ 10049b59 f i libcpmt:xlocale.obj
 0001:00048b5c       ??D?$_String_iterator@V?$_String_val@U?$_Simple_types@D@std@@@std@@@std@@QBEAADXZ 10049b5c f i libcpmt:xlocale.obj
 0001:00048b5f       ??E?$_String_const_iterator@V?$_String_val@U?$_Simple_types@D@std@@@std@@@std@@QAEAAV01@XZ 10049b5f f i libcpmt:xlocale.obj
 0001:00048b64       ??E?$_String_iterator@V?$_String_val@U?$_Simple_types@D@std@@@std@@@std@@QAEAAV01@XZ 10049b64 f i libcpmt:xlocale.obj
 0001:00048b69       ??E?$ostreambuf_iterator@DU?$char_traits@D@std@@@std@@QAEAAV01@H@Z 10049b69 f i libcpmt:xlocale.obj
 0001:00048b6e       ??G?$_String_iterator@V?$_String_val@U?$_Simple_types@D@std@@@std@@@std@@QBE?AV01@H@Z 10049b6e f i libcpmt:xlocale.obj
 0001:00048b83       ??H?$_String_iterator@V?$_String_val@U?$_Simple_types@D@std@@@std@@@std@@QBE?AV01@H@Z 10049b83 f i libcpmt:xlocale.obj
 0001:00048cbc       ??Y?$_String_const_iterator@V?$_String_val@U?$_Simple_types@D@std@@@std@@@std@@QAEAAV01@H@Z 10049cbc f i libcpmt:xlocale.obj
 0001:00048ccd       ??Y?$_String_iterator@V?$_String_val@U?$_Simple_types@D@std@@@std@@@std@@QAEAAV01@H@Z 10049ccd f i libcpmt:xlocale.obj
 0001:00048cde       ??Z?$_String_iterator@V?$_String_val@U?$_Simple_types@D@std@@@std@@@std@@QAEAAV01@H@Z 10049cde f i libcpmt:xlocale.obj
 0001:00048cef       ??_E?$_Mpunct@D@std@@MAEPAXI@Z 10049cef f i libcpmt:xlocale.obj
 0001:00048cef       ??_G?$_Mpunct@D@std@@MAEPAXI@Z 10049cef f i libcpmt:xlocale.obj
 0001:00048d28       ??_G?$collate@D@std@@MAEPAXI@Z 10049d28 f i libcpmt:xlocale.obj
 0001:00048d28       ??_E?$collate@D@std@@MAEPAXI@Z 10049d28 f i libcpmt:xlocale.obj
 0001:00048d52       ??_E?$messages@D@std@@MAEPAXI@Z 10049d52 f i libcpmt:xlocale.obj
 0001:00048d52       ??_G?$messages@D@std@@MAEPAXI@Z 10049d52 f i libcpmt:xlocale.obj
 0001:00048d7d       ??_G?$money_get@DV?$istreambuf_iterator@DU?$char_traits@D@std@@@std@@@std@@MAEPAXI@Z 10049d7d f i libcpmt:xlocale.obj
 0001:00048d7d       ??_E?$money_get@DV?$istreambuf_iterator@DU?$char_traits@D@std@@@std@@@std@@MAEPAXI@Z 10049d7d f i libcpmt:xlocale.obj
 0001:00048da8       ??_G?$money_put@DV?$ostreambuf_iterator@DU?$char_traits@D@std@@@std@@@std@@MAEPAXI@Z 10049da8 f i libcpmt:xlocale.obj
 0001:00048da8       ??_E?$money_put@DV?$ostreambuf_iterator@DU?$char_traits@D@std@@@std@@@std@@MAEPAXI@Z 10049da8 f i libcpmt:xlocale.obj
 0001:00048dd3       ??_E?$moneypunct@D$00@std@@MAEPAXI@Z 10049dd3 f i libcpmt:xlocale.obj
 0001:00048dd3       ??_G?$moneypunct@D$00@std@@MAEPAXI@Z 10049dd3 f i libcpmt:xlocale.obj
 0001:00048e0c       ??_G?$moneypunct@D$0A@@std@@MAEPAXI@Z 10049e0c f i libcpmt:xlocale.obj
 0001:00048e0c       ??_E?$moneypunct@D$0A@@std@@MAEPAXI@Z 10049e0c f i libcpmt:xlocale.obj
 0001:00048e45       ??_E?$time_get@DV?$istreambuf_iterator@DU?$char_traits@D@std@@@std@@@std@@MAEPAXI@Z 10049e45 f i libcpmt:xlocale.obj
 0001:00048e45       ??_G?$time_get@DV?$istreambuf_iterator@DU?$char_traits@D@std@@@std@@@std@@MAEPAXI@Z 10049e45 f i libcpmt:xlocale.obj
 0001:00048e7e       ??_E?$time_put@DV?$ostreambuf_iterator@DU?$char_traits@D@std@@@std@@@std@@MAEPAXI@Z 10049e7e f i libcpmt:xlocale.obj
 0001:00048e7e       ??_G?$time_put@DV?$ostreambuf_iterator@DU?$char_traits@D@std@@@std@@@std@@MAEPAXI@Z 10049e7e f i libcpmt:xlocale.obj
 0001:00048ea8       ?_Compat@?$_String_const_iterator@V?$_String_val@U?$_Simple_types@D@std@@@std@@@std@@QBEXABV12@@Z 10049ea8 f i libcpmt:xlocale.obj
 0001:00048eab       ?_Getcat@?$collate@D@std@@SAIPAPBVfacet@locale@2@PBV42@@Z 10049eab f i libcpmt:xlocale.obj
 0001:00048f75       ?_Getcat@?$messages@D@std@@SAIPAPBVfacet@locale@2@PBV42@@Z 10049f75 f i libcpmt:xlocale.obj
 0001:00048ff7       ?_Getcat@?$money_get@DV?$istreambuf_iterator@DU?$char_traits@D@std@@@std@@@std@@SAIPAPBVfacet@locale@2@PBV42@@Z 10049ff7 f i libcpmt:xlocale.obj
 0001:00049079       ?_Getcat@?$money_put@DV?$ostreambuf_iterator@DU?$char_traits@D@std@@@std@@@std@@SAIPAPBVfacet@locale@2@PBV42@@Z 1004a079 f i libcpmt:xlocale.obj
 0001:000490fb       ?_Getcat@?$moneypunct@D$00@std@@SAIPAPBVfacet@locale@2@PBV42@@Z 1004a0fb f i libcpmt:xlocale.obj
 0001:000491a0       ?_Getcat@?$moneypunct@D$0A@@std@@SAIPAPBVfacet@locale@2@PBV42@@Z 1004a1a0 f i libcpmt:xlocale.obj
 0001:00049246       ?_Getcat@?$time_get@DV?$istreambuf_iterator@DU?$char_traits@D@std@@@std@@@std@@SAIPAPBVfacet@locale@2@PBV42@@Z 1004a246 f i libcpmt:xlocale.obj
 0001:000492cd       ?_Getcat@?$time_put@DV?$ostreambuf_iterator@DU?$char_traits@D@std@@@std@@@std@@SAIPAPBVfacet@locale@2@PBV42@@Z 1004a2cd f i libcpmt:xlocale.obj
 0001:0004934c       ?_Getfmt@?$time_get@DV?$istreambuf_iterator@DU?$char_traits@D@std@@@std@@@std@@IBE?AV?$istreambuf_iterator@DU?$char_traits@D@std@@@2@V32@0AAVios_base@2@AAHPAUtm@@PBD@Z 1004a34c f i libcpmt:xlocale.obj
 0001:000494c8       ?_Getint@?$time_get@DV?$istreambuf_iterator@DU?$char_traits@D@std@@@std@@@std@@ABAHAAV?$istreambuf_iterator@DU?$char_traits@D@std@@@2@0HHAAHABV?$ctype@D@2@@Z 1004a4c8 f i libcpmt:xlocale.obj
 0001:000496f6       ?_Getmfld@?$money_get@DV?$istreambuf_iterator@DU?$char_traits@D@std@@@std@@@std@@ABE?AV?$basic_string@DU?$char_traits@D@std@@V?$allocator@D@2@@2@AAV?$istreambuf_iterator@DU?$char_traits@D@std@@@2@0_NAAVios_base@2@AAY0M@D@Z 1004a6f6 f i libcpmt:xlocale.obj
 0001:0004a3ab       ?_Gettnames@_Locinfo@std@@QBE?AV_Timevec@2@XZ 1004b3ab f i libcpmt:xlocale.obj
 0001:0004a3c2       ?_Init@?$_Mpunct@D@std@@IAEXABV_Locinfo@2@_N@Z 1004b3c2 f i libcpmt:xlocale.obj
 0001:0004a4cd       ?_Init@?$collate@D@std@@IAEXABV_Locinfo@2@@Z 1004b4cd f i libcpmt:xlocale.obj
 0001:0004a4e3       ?_Init@?$messages@D@std@@IAEXABV_Locinfo@2@@Z 1004b4e3 f i libcpmt:xlocale.obj
 0001:0004a4e6       ?_Init@?$money_get@DV?$istreambuf_iterator@DU?$char_traits@D@std@@@std@@@std@@IAEXABV_Locinfo@2@@Z 1004b4e6 f i libcpmt:xlocale.obj
 0001:0004a4e9       ?_Init@?$money_put@DV?$ostreambuf_iterator@DU?$char_traits@D@std@@@std@@@std@@IAEXABV_Locinfo@2@@Z 1004b4e9 f i libcpmt:xlocale.obj
 0001:0004a4ec       ?_Init@?$time_get@DV?$istreambuf_iterator@DU?$char_traits@D@std@@@std@@@std@@IAEXABV_Locinfo@2@@Z 1004b4ec f i libcpmt:xlocale.obj
 0001:0004a548       ?_Init@?$time_put@DV?$ostreambuf_iterator@DU?$char_traits@D@std@@@std@@@std@@IAEXABV_Locinfo@2@@Z 1004b548 f i libcpmt:xlocale.obj
 0001:0004a564       ?_Makexloc@_Locimp@locale@std@@CAXABV_Locinfo@3@HPAV123@PBV23@@Z 1004b564 f   libcpmt:xlocale.obj
 0001:0004a972       ?_Makpat@?$_Mpunct@D@std@@AAEXAAUpattern@money_base@2@III@Z 1004b972 f i libcpmt:xlocale.obj
 0001:0004a9c3       ?_Put@?$money_put@DV?$ostreambuf_iterator@DU?$char_traits@D@std@@@std@@@std@@CA?AV?$ostreambuf_iterator@DU?$char_traits@D@std@@@2@V32@V?$_String_const_iterator@V?$_String_val@U?$_Simple_types@D@std@@@std@@@2@I@Z 1004b9c3 f i libcpmt:xlocale.obj
 0001:0004aa07       ?_Putmfld@?$money_put@DV?$ostreambuf_iterator@DU?$char_traits@D@std@@@std@@@std@@ABE?AV?$ostreambuf_iterator@DU?$char_traits@D@std@@@2@V32@_NAAVios_base@2@D1V?$basic_string@DU?$char_traits@D@std@@V?$allocator@D@2@@2@D@Z 1004ba07 f i libcpmt:xlocale.obj
 0001:0004b0ae       ?_Rep@?$money_put@DV?$ostreambuf_iterator@DU?$char_traits@D@std@@@std@@@std@@CA?AV?$ostreambuf_iterator@DU?$char_traits@D@std@@@2@V32@DI@Z 1004c0ae f i libcpmt:xlocale.obj
 0001:0004b0e5       ?_Tidy@?$_Mpunct@D@std@@AAEXXZ 1004c0e5 f i libcpmt:xlocale.obj
 0001:0004b117       ?_Tidy@?$time_get@DV?$istreambuf_iterator@DU?$char_traits@D@std@@@std@@@std@@AAEXXZ 1004c117 f i libcpmt:xlocale.obj
 0001:0004b13f       ?begin@?$basic_string@DU?$char_traits@D@std@@V?$allocator@D@2@@std@@QAE?AV?$_String_iterator@V?$_String_val@U?$_Simple_types@D@std@@@std@@@2@XZ 1004c13f f i libcpmt:xlocale.obj
 0001:0004b158       ?curr_symbol@?$_Mpunct@D@std@@QBE?AV?$basic_string@DU?$char_traits@D@std@@V?$allocator@D@2@@2@XZ 1004c158 f i libcpmt:xlocale.obj
 0001:0004b185       ?date_order@?$time_get@DV?$istreambuf_iterator@DU?$char_traits@D@std@@@std@@@std@@QBE?AW4dateorder@time_base@2@XZ 1004c185 f i libcpmt:xlocale.obj
 0001:0004b1a3       ?decimal_point@?$_Mpunct@D@std@@QBEDXZ 1004c1a3 f i libcpmt:xlocale.obj
 0001:0004b1c1       ?do_close@?$messages@D@std@@MBEXH@Z 1004c1c1 f i libcpmt:xlocale.obj
 0001:0004b1c4       ?do_compare@?$collate@D@std@@MBEHPBD000@Z 1004c1c4 f i libcpmt:xlocale.obj
 0001:0004b201       ?do_curr_symbol@?$_Mpunct@D@std@@MBE?AV?$basic_string@DU?$char_traits@D@std@@V?$allocator@D@2@@2@XZ 1004c201 f i libcpmt:xlocale.obj
 0001:0004b21b       ?do_date_order@?$time_get@DV?$istreambuf_iterator@DU?$char_traits@D@std@@@std@@@std@@MBE?AW4dateorder@time_base@2@XZ 1004c21b f i libcpmt:xlocale.obj
 0001:0004b21f       ?do_decimal_point@?$_Mpunct@D@std@@MBEDXZ 1004c21f f i libcpmt:xlocale.obj
 0001:0004b223       ?do_frac_digits@?$_Mpunct@D@std@@MBEHXZ 1004c223 f i libcpmt:xlocale.obj
 0001:0004b227       ?do_get@?$messages@D@std@@MBE?AV?$basic_string@DU?$char_traits@D@std@@V?$allocator@D@2@@2@HHHABV32@@Z 1004c227 f i libcpmt:xlocale.obj
 0001:0004b24f       ?do_get@?$money_get@DV?$istreambuf_iterator@DU?$char_traits@D@std@@@std@@@std@@MBE?AV?$istreambuf_iterator@DU?$char_traits@D@std@@@2@V32@0_NAAVios_base@2@AAHAAO@Z 1004c24f f i libcpmt:xlocale.obj
 0001:0004b321       ?do_get@?$money_get@DV?$istreambuf_iterator@DU?$char_traits@D@std@@@std@@@std@@MBE?AV?$istreambuf_iterator@DU?$char_traits@D@std@@@2@V32@0_NAAVios_base@2@AAHAAV?$basic_string@DU?$char_traits@D@std@@V?$allocator@D@2@@2@@Z 1004c321 f i libcpmt:xlocale.obj
 0001:0004b427       ?do_get@?$time_get@DV?$istreambuf_iterator@DU?$char_traits@D@std@@@std@@@std@@MBE?AV?$istreambuf_iterator@DU?$char_traits@D@std@@@2@V32@0AAVios_base@2@AAHPAUtm@@DD@Z 1004c427 f i libcpmt:xlocale.obj
 0001:0004b8b5       ?do_get_date@?$time_get@DV?$istreambuf_iterator@DU?$char_traits@D@std@@@std@@@std@@MBE?AV?$istreambuf_iterator@DU?$char_traits@D@std@@@2@V32@0AAVios_base@2@AAHPAUtm@@@Z 1004c8b5 f i libcpmt:xlocale.obj
 0001:0004be66       ?do_get_monthname@?$time_get@DV?$istreambuf_iterator@DU?$char_traits@D@std@@@std@@@std@@MBE?AV?$istreambuf_iterator@DU?$char_traits@D@std@@@2@V32@0AAVios_base@2@AAHPAUtm@@@Z 1004ce66 f i libcpmt:xlocale.obj
 0001:0004beb6       ?do_get_time@?$time_get@DV?$istreambuf_iterator@DU?$char_traits@D@std@@@std@@@std@@MBE?AV?$istreambuf_iterator@DU?$char_traits@D@std@@@2@V32@0AAVios_base@2@AAHPAUtm@@@Z 1004ceb6 f i libcpmt:xlocale.obj
 0001:0004c020       ?do_get_weekday@?$time_get@DV?$istreambuf_iterator@DU?$char_traits@D@std@@@std@@@std@@MBE?AV?$istreambuf_iterator@DU?$char_traits@D@std@@@2@V32@0AAVios_base@2@AAHPAUtm@@@Z 1004d020 f i libcpmt:xlocale.obj
 0001:0004c070       ?do_get_year@?$time_get@DV?$istreambuf_iterator@DU?$char_traits@D@std@@@std@@@std@@MBE?AV?$istreambuf_iterator@DU?$char_traits@D@std@@@2@V32@0AAVios_base@2@AAHPAUtm@@@Z 1004d070 f i libcpmt:xlocale.obj
 0001:0004c12b       ?do_grouping@?$_Mpunct@D@std@@MBE?AV?$basic_string@DU?$char_traits@D@std@@V?$allocator@D@2@@2@XZ 1004d12b f i libcpmt:xlocale.obj
 0001:0004c145       ?do_hash@?$collate@D@std@@MBEJPBD0@Z 1004d145 f i libcpmt:xlocale.obj
 0001:0004c16a       ?do_neg_format@?$_Mpunct@D@std@@MBE?AUpattern@money_base@2@XZ 1004d16a f i libcpmt:xlocale.obj
 0001:0004c17c       ?do_negative_sign@?$_Mpunct@D@std@@MBE?AV?$basic_string@DU?$char_traits@D@std@@V?$allocator@D@2@@2@XZ 1004d17c f i libcpmt:xlocale.obj
 0001:0004c196       ?do_open@?$messages@D@std@@MBEHABV?$basic_string@DU?$char_traits@D@std@@V?$allocator@D@2@@2@ABVlocale@2@@Z 1004d196 f i libcpmt:xlocale.obj
 0001:0004c19c       ?do_pos_format@?$_Mpunct@D@std@@MBE?AUpattern@money_base@2@XZ 1004d19c f i libcpmt:xlocale.obj
 0001:0004c1ae       ?do_positive_sign@?$_Mpunct@D@std@@MBE?AV?$basic_string@DU?$char_traits@D@std@@V?$allocator@D@2@@2@XZ 1004d1ae f i libcpmt:xlocale.obj
 0001:0004c1c8       ?do_put@?$money_put@DV?$ostreambuf_iterator@DU?$char_traits@D@std@@@std@@@std@@MBE?AV?$ostreambuf_iterator@DU?$char_traits@D@std@@@2@V32@_NAAVios_base@2@DABV?$basic_string@DU?$char_traits@D@std@@V?$allocator@D@2@@2@@Z 1004d1c8 f i libcpmt:xlocale.obj
 0001:0004c36c       ?do_put@?$money_put@DV?$ostreambuf_iterator@DU?$char_traits@D@std@@@std@@@std@@MBE?AV?$ostreambuf_iterator@DU?$char_traits@D@std@@@2@V32@_NAAVios_base@2@DO@Z 1004d36c f i libcpmt:xlocale.obj
 0001:0004c529       ?do_put@?$time_put@DV?$ostreambuf_iterator@DU?$char_traits@D@std@@@std@@@std@@MBE?AV?$ostreambuf_iterator@DU?$char_traits@D@std@@@2@V32@AAVios_base@2@DPBUtm@@DD@Z 1004d529 f i libcpmt:xlocale.obj
 0001:0004c62b       ?do_thousands_sep@?$_Mpunct@D@std@@MBEDXZ 1004d62b f i libcpmt:xlocale.obj
 0001:0004c62f       ?do_transform@?$collate@D@std@@MBE?AV?$basic_string@DU?$char_traits@D@std@@V?$allocator@D@2@@2@PBD0@Z 1004d62f f i libcpmt:xlocale.obj
 0001:0004c6cf       ?end@?$basic_string@DU?$char_traits@D@std@@V?$allocator@D@2@@std@@QAE?AV?$_String_iterator@V?$_String_val@U?$_Simple_types@D@std@@@std@@@2@XZ 1004d6cf f i libcpmt:xlocale.obj
 0001:0004c6f0       ?frac_digits@?$_Mpunct@D@std@@QBEHXZ 1004d6f0 f i libcpmt:xlocale.obj
 0001:0004c70e       ?get_monthname@?$time_get@DV?$istreambuf_iterator@DU?$char_traits@D@std@@@std@@@std@@QBE?AV?$istreambuf_iterator@DU?$char_traits@D@std@@@2@V32@0AAVios_base@2@AAHPAUtm@@@Z 1004d70e f i libcpmt:xlocale.obj
 0001:0004c754       ?get_weekday@?$time_get@DV?$istreambuf_iterator@DU?$char_traits@D@std@@@std@@@std@@QBE?AV?$istreambuf_iterator@DU?$char_traits@D@std@@@2@V32@0AAVios_base@2@AAHPAUtm@@@Z 1004d754 f i libcpmt:xlocale.obj
 0001:0004c79a       ?get_year@?$time_get@DV?$istreambuf_iterator@DU?$char_traits@D@std@@@std@@@std@@QBE?AV?$istreambuf_iterator@DU?$char_traits@D@std@@@2@V32@0AAVios_base@2@AAHPAUtm@@@Z 1004d79a f i libcpmt:xlocale.obj
 0001:0004c7e0       ?grouping@?$_Mpunct@D@std@@QBE?AV?$basic_string@DU?$char_traits@D@std@@V?$allocator@D@2@@2@XZ 1004d7e0 f i libcpmt:xlocale.obj
 0001:0004c80d       ?is@?$ctype@D@std@@QBE_NFD@Z 1004d80d f i libcpmt:xlocale.obj
 0001:0004c82c       ?narrow@?$ctype@D@std@@QBEDDD@Z 1004d82c f i libcpmt:xlocale.obj
 0001:0004c859       ?neg_format@?$_Mpunct@D@std@@QBE?AUpattern@money_base@2@XZ 1004d859 f i libcpmt:xlocale.obj
 0001:0004c886       ?negative_sign@?$_Mpunct@D@std@@QBE?AV?$basic_string@DU?$char_traits@D@std@@V?$allocator@D@2@@2@XZ 1004d886 f i libcpmt:xlocale.obj
 0001:0004c8b3       ?pos_format@?$_Mpunct@D@std@@QBE?AUpattern@money_base@2@XZ 1004d8b3 f i libcpmt:xlocale.obj
 0001:0004c8e0       ?positive_sign@?$_Mpunct@D@std@@QBE?AV?$basic_string@DU?$char_traits@D@std@@V?$allocator@D@2@@2@XZ 1004d8e0 f i libcpmt:xlocale.obj
 0001:0004c90d       ?thousands_sep@?$_Mpunct@D@std@@QBEDXZ 1004d90d f i libcpmt:xlocale.obj
 0001:0004c92b       ?widen@?$ctype@D@std@@QBEDD@Z 1004d92b f i libcpmt:xlocale.obj
 0001:0004c954       __Stolx                    1004d954 f   libcpmt:xstol.obj
 0001:0004ca22       __Stoul                    1004da22 f   libcpmt:xstoul.obj
 0001:0004ca40       __Stoulx                   1004da40 f   libcpmt:xstoul.obj
 0001:0004cc0f       __Stoll                    1004dc0f f   libcpmt:xstoll.obj
 0001:0004cc2d       __Stollx                   1004dc2d f   libcpmt:xstoll.obj
 0001:0004cd2e       __Stoull                   1004dd2e f   libcpmt:xstoull.obj
 0001:0004cd4c       __Stoullx                  1004dd4c f   libcpmt:xstoull.obj
 0001:0004cfa5       __Getcoll                  1004dfa5 f   libcpmt:xstrcoll.obj
 0001:0004cfce       __Strcoll                  1004dfce f   libcpmt:xstrcoll.obj
 0001:0004d085       __Getdateorder             1004e085 f   libcpmt:xdateord.obj
 0001:0004d110       __Mbrtowc                  1004e110 f   libcpmt:xmbtowc.obj
 0001:0004d2fa       __Wcscoll                  1004e2fa f   libcpmt:xwcscoll.obj
 0001:0004d3a4       _wmemcmp                   1004e3a4 f i libcpmt:xwcscoll.obj
 0001:0004d3e7       __Wcsxfrm                  1004e3e7 f   libcpmt:xwcsxfrm.obj
 0001:0004d4dc       __Getwctype                1004e4dc f   libcpmt:xgetwctype.obj
 0001:0004d504       __Getwctypes               1004e504 f   libcpmt:xgetwctype.obj
 0001:0004d52a       __Towlower                 1004e52a f   libcpmt:xtowlower.obj
 0001:0004d5a2       __Towupper                 1004e5a2 f   libcpmt:xtowupper.obj
 0001:0004d61f       __Strxfrm                  1004e61f f   libcpmt:xstrxfrm.obj
 0001:0004d6f3       ___crtCompareStringA       1004e6f3 f   libcpmt:StlCompareStringA.obj
 0001:0004d9fb       ___crtCompareStringW       1004e9fb f   libcpmt:StlCompareStringW.obj
 0001:0004da74       ___crtLCMapStringW         1004ea74 f   libcpmt:StlLCMapStringW.obj
 0001:0004dabc       _GetModuleHandleA@4        1004eabc f   kernel32:KERNEL32.dll
 0001:0004dac2       _GetProcAddress@8          1004eac2 f   kernel32:KERNEL32.dll
 0001:0004dac8       _FindFirstFileA@8          1004eac8 f   kernel32:KERNEL32.dll
 0001:0004dace       _FindNextFileA@8           1004eace f   kernel32:KERNEL32.dll
 0001:0004dad4       _CloseHandle@4             1004ead4 f   kernel32:KERNEL32.dll
 0001:0004dada       _ReleaseSemaphore@12       1004eada f   kernel32:KERNEL32.dll
 0001:0004dae0       _ReleaseMutex@4            1004eae0 f   kernel32:KERNEL32.dll
 0001:0004dae6       _WaitForSingleObject@8     1004eae6 f   kernel32:KERNEL32.dll
 0001:0004daec       _CreateMutexA@12           1004eaec f   kernel32:KERNEL32.dll
 0001:0004daf2       _CreateThread@24           1004eaf2 f   kernel32:KERNEL32.dll
 0001:0004daf8       _TerminateThread@8         1004eaf8 f   kernel32:KERNEL32.dll
 0001:0004dafe       _CreateSemaphoreA@16       1004eafe f   kernel32:KERNEL32.dll
 0001:0004db04       _UnhandledExceptionFilter@4 1004eb04 f   kernel32:KERNEL32.dll
 0001:0004db0a       _SetUnhandledExceptionFilter@4 1004eb0a f   kernel32:KERNEL32.dll
 0001:0004db10       _GetCurrentProcess@0       1004eb10 f   kernel32:KERNEL32.dll
 0001:0004db16       _TerminateProcess@8        1004eb16 f   kernel32:KERNEL32.dll
 0001:0004db1c       _IsProcessorFeaturePresent@4 1004eb1c f   kernel32:KERNEL32.dll
 0001:0004db22       _QueryPerformanceCounter@4 1004eb22 f   kernel32:KERNEL32.dll
 0001:0004db28       _GetCurrentProcessId@0     1004eb28 f   kernel32:KERNEL32.dll
 0001:0004db2e       _GetCurrentThreadId@0      1004eb2e f   kernel32:KERNEL32.dll
 0001:0004db34       _GetSystemTimeAsFileTime@4 1004eb34 f   kernel32:KERNEL32.dll
 0001:0004db3a       _InitializeSListHead@4     1004eb3a f   kernel32:KERNEL32.dll
 0001:0004db40       _IsDebuggerPresent@0       1004eb40 f   kernel32:KERNEL32.dll
 0001:0004db46       _GetStartupInfoW@4         1004eb46 f   kernel32:KERNEL32.dll
 0001:0004db4c       _GetModuleHandleW@4        1004eb4c f   kernel32:KERNEL32.dll
 0001:0004db52       _WideCharToMultiByte@32    1004eb52 f   kernel32:KERNEL32.dll
 0001:0004db58       _GetLastError@0            1004eb58 f   kernel32:KERNEL32.dll
 0001:0004db5e       _FormatMessageW@28         1004eb5e f   kernel32:KERNEL32.dll
 0001:0004db64       _EnterCriticalSection@4    1004eb64 f   kernel32:KERNEL32.dll
 0001:0004db6a       _LeaveCriticalSection@4    1004eb6a f   kernel32:KERNEL32.dll
 0001:0004db70       _DeleteCriticalSection@4   1004eb70 f   kernel32:KERNEL32.dll
 0001:0004db76       _MultiByteToWideChar@24    1004eb76 f   kernel32:KERNEL32.dll
 0001:0004db7c       _EncodePointer@4           1004eb7c f   kernel32:KERNEL32.dll
 0001:0004db82       _DecodePointer@4           1004eb82 f   kernel32:KERNEL32.dll
 0001:0004db88       _SetLastError@4            1004eb88 f   kernel32:KERNEL32.dll
 0001:0004db8e       _InitializeCriticalSectionAndSpinCount@8 1004eb8e f   kernel32:KERNEL32.dll
 0001:0004db94       _CreateEventW@16           1004eb94 f   kernel32:KERNEL32.dll
 0001:0004db9a       _SwitchToThread@0          1004eb9a f   kernel32:KERNEL32.dll
 0001:0004dba0       _TlsAlloc@0                1004eba0 f   kernel32:KERNEL32.dll
 0001:0004dba6       _TlsGetValue@4             1004eba6 f   kernel32:KERNEL32.dll
 0001:0004dbac       _TlsSetValue@8             1004ebac f   kernel32:KERNEL32.dll
 0001:0004dbb2       _TlsFree@4                 1004ebb2 f   kernel32:KERNEL32.dll
 0001:0004dbb8       _GetTickCount@0            1004ebb8 f   kernel32:KERNEL32.dll
 0001:0004dbbe       _CompareStringW@24         1004ebbe f   kernel32:KERNEL32.dll
 0001:0004dbc4       _LCMapStringW@24           1004ebc4 f   kernel32:KERNEL32.dll
 0001:0004dbca       _GetLocaleInfoW@16         1004ebca f   kernel32:KERNEL32.dll
 0001:0004dbd0       _GetStringTypeW@16         1004ebd0 f   kernel32:KERNEL32.dll
 0001:0004dbd6       _GetCPInfo@8               1004ebd6 f   kernel32:KERNEL32.dll
 0001:0004dbe0       _memcpy                    1004ebe0 f   libvcruntime:memcpy.obj
 0001:0004e2c0       _strchr                    1004f2c0 f   libvcruntime:strchr.obj
 0001:0004e32e       ___from_strstr_to_strchr   1004f32e     libvcruntime:strchr.obj
 0001:0004e440       _memmove                   1004f440 f   libvcruntime:memmove.obj
 0001:0004eb20       _memset                    1004fb20 f   libvcruntime:memset.obj
 0001:0004ecd0       ??$__crt_fast_decode_pointer@P6AXXZ@@YAP6AXXZQ6AXXZ@Z 1004fcd0 f i libvcruntime:purevirt.obj
 0001:0004ece9       ??$__crt_fast_encode_pointer@P6AXXZ@@YAP6AXXZQ6AXXZ@Z 1004fce9 f i libvcruntime:purevirt.obj
 0001:0004ed0d       ??$__crt_interlocked_exchange_pointer@$$A6AXXZP6AXXZ@@YAP6AXXZPDS6AXXZQ6AXXZ@Z 1004fd0d f i libvcruntime:purevirt.obj
 0001:0004ed1d       ??$__crt_interlocked_read_pointer@$$A6AXXZ@@YAP6AXXZPDS6AXXZ@Z 1004fd1d f i libvcruntime:purevirt.obj
 0001:0004ed29       ?__crt_interlocked_read_32@@YAHPDH@Z 1004fd29 f i libvcruntime:purevirt.obj
 0001:0004ed35       __get_purecall_handler     1004fd35 f   libvcruntime:purevirt.obj
 0001:0004ed4f       __purecall                 1004fd4f f   libvcruntime:purevirt.obj
 0001:0004ed72       __set_purecall_handler     1004fd72 f   libvcruntime:purevirt.obj
 0001:0004eda0       ___DestructExceptionObject 1004fda0 f   libvcruntime:ehhelpers.obj
 0001:0004ee68       ?_CallMemberFunction0@@YGXQAX0@Z 1004fe68 f i libvcruntime:ehhelpers.obj
 0001:0004ee78       ?raw_name@type_info@@QBEPBDXZ 1004fe78 f i libvcruntime:ehhelpers.obj
 0001:0004ee7c       __IsExceptionObjectToBeDestroyed 1004fe7c f   libvcruntime:ehhelpers.obj
 0001:0004eeab       __SetWinRTOutOfMemoryExceptionCallback 1004feab f   libvcruntime:ehhelpers.obj
 0001:0004eebb       ___AdjustPointer           1004febb f   libvcruntime:ehhelpers.obj
 0001:0004eee9       ___FrameUnwindFilter       1004fee9 f   libvcruntime:ehhelpers.obj
 0001:0004ef3f       ___GetPlatformExceptionInfo 1004ff3f f   libvcruntime:ehhelpers.obj
 0001:0004ef9e       ___current_exception       1004ff9e f   libvcruntime:ehhelpers.obj
 0001:0004efa9       ___current_exception_context 1004ffa9 f   libvcruntime:ehhelpers.obj
 0001:0004efb4       ___processing_throw        1004ffb4 f   libvcruntime:ehhelpers.obj
 0001:0004efbf       ___std_terminate           1004ffbf f   libvcruntime:ehhelpers.obj
 0001:0004efc4       __is_exception_typeof      1004ffc4 f   libvcruntime:ehhelpers.obj
 0001:0004f091       ??$?RD@__crt_public_free_policy@@QBEXQBD@Z 10050091 f i libvcruntime:std_exception.obj
 0001:0004f0a5       ??0?$__crt_unique_heap_ptr@DU__crt_public_free_policy@@@@QAE@QAD@Z 100500a5 f i libvcruntime:std_exception.obj
 0001:0004f0b6       ??1?$__crt_unique_heap_ptr@DU__crt_public_free_policy@@@@QAE@XZ 100500b6 f i libvcruntime:std_exception.obj
 0001:0004f0ca       ??B?$__crt_unique_heap_ptr@DU__crt_public_free_policy@@@@QBE_NXZ 100500ca f i libvcruntime:std_exception.obj
 0001:0004f0d1       ?detach@?$__crt_unique_heap_ptr@DU__crt_public_free_policy@@@@QAEPADXZ 100500d1 f i libvcruntime:std_exception.obj
 0001:0004f0d7       ?get@?$__crt_unique_heap_ptr@DU__crt_public_free_policy@@@@QBEPADXZ 100500d7 f i libvcruntime:std_exception.obj
 0001:0004f0da       ?is_valid@?$__crt_unique_heap_ptr@DU__crt_public_free_policy@@@@QBE_NXZ 100500da f i libvcruntime:std_exception.obj
 0001:0004f0e1       ?release@?$__crt_unique_heap_ptr@DU__crt_public_free_policy@@@@QAEXXZ 100500e1 f i libvcruntime:std_exception.obj
 0001:0004f0f5       ___std_exception_copy      100500f5 f   libvcruntime:std_exception.obj
 0001:0004f170       ___std_exception_destroy   10050170 f   libvcruntime:std_exception.obj
 0001:0004f196       __CxxThrowException@8      10050196 f   libvcruntime:throw.obj
 0001:0004f21e       ??$?0AAViterator@TryBlockMap@__FrameHandler3@@AAV012@$0A@@?$pair@Viterator@TryBlockMap@__FrameHandler3@@V123@@std@@QAE@AAViterator@TryBlockMap@__FrameHandler3@@0@Z 1005021e f i libvcruntime:trnsctrl.obj
 0001:0004f24b       ??$forward@AAViterator@TryBlockMap@__FrameHandler3@@@std@@YAAAViterator@TryBlockMap@__FrameHandler3@@AAV123@@Z 1005024b f i libvcruntime:trnsctrl.obj
 0001:0004f255       ??0iterator@TryBlockMap@__FrameHandler3@@QAE@AAV12@I@Z 10050255 f i libvcruntime:trnsctrl.obj
 0001:0004f26e       ?GetRangeOfTrysToCheck@__FrameHandler3@@SA?AU?$pair@Viterator@TryBlockMap@__FrameHandler3@@V123@@std@@AAVTryBlockMap@1@HH@Z 1005026e f   libvcruntime:trnsctrl.obj
 0001:0004f310       ?_CallCatchBlock2@@YAPAXPAUEHRegistrationNode@@PBU_s_FuncInfo@@PAXHK@Z 10050310 f   libvcruntime:trnsctrl.obj
 0001:0004f385       ?_CallSETranslator@@YAHPAUEHExceptionRecord@@PAUEHRegistrationNode@@PAX2PBU_s_FuncInfo@@H1@Z 10050385 f   libvcruntime:trnsctrl.obj
 0001:0004f496       ?_JumpToContinuation@@YGXPAXPAUEHRegistrationNode@@@Z 10050496 f   libvcruntime:trnsctrl.obj
 0001:0004f4d2       ?_UnwindNestedFrames@@YGXPAUEHRegistrationNode@@PAUEHExceptionRecord@@@Z 100504d2 f   libvcruntime:trnsctrl.obj
 0001:0004f539       ?getFuncInfo@TryBlockMap@__FrameHandler3@@QAEPBU_s_FuncInfo@@XZ 10050539 f i libvcruntime:trnsctrl.obj
 0001:0004f53c       __CatchGuardHandler        1005053c f   libvcruntime:trnsctrl.obj
 0001:0004f579       __CreateFrameInfo          10050579 f   libvcruntime:trnsctrl.obj
 0001:0004f5a6       __FindAndUnlinkFrame       100505a6 f   libvcruntime:trnsctrl.obj
 0001:0004f5fc       __TranslatorGuardHandler   100505fc f   libvcruntime:trnsctrl.obj
 0001:0004f6c0       ___CxxFrameHandler         100506c0 f   libvcruntime:trnsctrl.obj
 0001:0004f703       ___CxxFrameHandler2        10050703 f   libvcruntime:trnsctrl.obj
 0001:0004f746       ___CxxFrameHandler3        10050746 f   libvcruntime:trnsctrl.obj
 0001:0004f789       ___CxxLongjmpUnwind@4      10050789 f   libvcruntime:trnsctrl.obj
 0001:0004f7c0       _memchr                    100507c0 f   libvcruntime:memchr.obj
 0001:0004f8e0       __except_handler4          100508e0 f   libvcruntime:chandler4.obj
 0001:0004fa9c       ??$?RD@__crt_internal_free_policy@@QBEXQBD@Z 10050a9c f i libvcruntime:std_type_info.obj
 0001:0004fab0       ??$?RX@__crt_internal_free_policy@@QBEXQBX@Z 10050ab0 f i libvcruntime:std_type_info.obj
 0001:0004fac4       ??$__crt_interlocked_compare_exchange_pointer@$$CBDPAD$$T@@YAPBDPDSBDQAD$$T@Z 10050ac4 f i libvcruntime:std_type_info.obj
 0001:0004fada       ??$__crt_interlocked_read_pointer@$$CBD@@YAPBDPDSBD@Z 10050ada f i libvcruntime:std_type_info.obj
 0001:0004fae6       ??0?$__crt_unique_heap_ptr@DU__crt_internal_free_policy@@@@QAE@QAD@Z 10050ae6 f i libvcruntime:std_type_info.obj
 0001:0004faf7       ??0?$__crt_unique_heap_ptr@XU__crt_internal_free_policy@@@@QAE@QAX@Z 10050af7 f i libvcruntime:std_type_info.obj
 0001:0004fb08       ??1?$__crt_unique_heap_ptr@DU__crt_internal_free_policy@@@@QAE@XZ 10050b08 f i libvcruntime:std_type_info.obj
 0001:0004fb1c       ??1?$__crt_unique_heap_ptr@XU__crt_internal_free_policy@@@@QAE@XZ 10050b1c f i libvcruntime:std_type_info.obj
 0001:0004fb3c       ??B?$__crt_unique_heap_ptr@DU__crt_internal_free_policy@@@@QBE_NXZ 10050b3c f i libvcruntime:std_type_info.obj
 0001:0004fb43       ??B?$__crt_unique_heap_ptr@XU__crt_internal_free_policy@@@@QBE_NXZ 10050b43 f i libvcruntime:std_type_info.obj
 0001:0004fb72       ?detach@?$__crt_unique_heap_ptr@XU__crt_internal_free_policy@@@@QAEPAXXZ 10050b72 f i libvcruntime:std_type_info.obj
 0001:0004fb78       ?get@?$__crt_unique_heap_ptr@DU__crt_internal_free_policy@@@@QBEPADXZ 10050b78 f i libvcruntime:std_type_info.obj
 0001:0004fb7b       ?get@?$__crt_unique_heap_ptr@XU__crt_internal_free_policy@@@@QBEPAXXZ 10050b7b f i libvcruntime:std_type_info.obj
 0001:0004fb7e       ?is_valid@?$__crt_unique_heap_ptr@DU__crt_internal_free_policy@@@@QBE_NXZ 10050b7e f i libvcruntime:std_type_info.obj
 0001:0004fb85       ?is_valid@?$__crt_unique_heap_ptr@XU__crt_internal_free_policy@@@@QBE_NXZ 10050b85 f i libvcruntime:std_type_info.obj
 0001:0004fb8c       ?release@?$__crt_unique_heap_ptr@DU__crt_internal_free_policy@@@@QAEXXZ 10050b8c f i libvcruntime:std_type_info.obj
 0001:0004fba0       ?release@?$__crt_unique_heap_ptr@XU__crt_internal_free_policy@@@@QAEXXZ 10050ba0 f i libvcruntime:std_type_info.obj
 0001:0004fbb4       ___std_type_info_compare   10050bb4 f   libvcruntime:std_type_info.obj
 0001:0004fbff       ___std_type_info_destroy_list 10050bff f   libvcruntime:std_type_info.obj
 0001:0004fc2a       ___std_type_info_hash      10050c2a f   libvcruntime:std_type_info.obj
 0001:0004fc59       ___std_type_info_name      10050c59 f   libvcruntime:std_type_info.obj
 0001:0004fd4c       ___vcrt_initialize         10050d4c f   libvcruntime:initialization.obj
 0001:0004fd7f       ___vcrt_thread_attach      10050d7f f   libvcruntime:initialization.obj
 0001:0004fd8c       ___vcrt_thread_detach      10050d8c f   libvcruntime:initialization.obj
 0001:0004fd99       ___vcrt_uninitialize       10050d99 f   libvcruntime:initialization.obj
 0001:0004fdbf       ___vcrt_uninitialize_critical 10050dbf f   libvcruntime:initialization.obj
 0001:0004fdca       ___uncaught_exception      10050dca f   libvcruntime:uncaught_exception.obj
 0001:0004ff14       _memcmp                    10050f14 f   libvcruntime:memcmp.obj
 0001:000523f9       ??$?B$$A6AXXZ@__crt_fast_encoded_nullptr_t@@QBEP6AXXZXZ 100533f9 f i libvcruntime:purevirt_data.obj
 0001:000523ff       ?__crt_fast_encode_pointer@@YA?AU__crt_fast_encoded_nullptr_t@@$$T@Z 100533ff f i libvcruntime:purevirt_data.obj
 0001:0005240a       ___vcrt_initialize_pure_virtual_call_handler 1005340a f   libvcruntime:purevirt_data.obj
 0001:00052417       ??$?RU__vcrt_ptd@@@__crt_internal_free_policy@@QBEXQBU__vcrt_ptd@@@Z 10053417 f i libvcruntime:per_thread_data.obj
 0001:0005242b       ??0?$__crt_unique_heap_ptr@U__vcrt_ptd@@U__crt_internal_free_policy@@@@QAE@QAU__vcrt_ptd@@@Z 1005342b f i libvcruntime:per_thread_data.obj
 0001:0005244e       ??1?$__crt_unique_heap_ptr@U__vcrt_ptd@@U__crt_internal_free_policy@@@@QAE@XZ 1005344e f i libvcruntime:per_thread_data.obj
 0001:0005246d       ??B?$__crt_unique_heap_ptr@U__vcrt_ptd@@U__crt_internal_free_policy@@@@QBE_NXZ 1005346d f i libvcruntime:per_thread_data.obj
 0001:00052474       ?detach@?$__crt_unique_heap_ptr@U__vcrt_ptd@@U__crt_internal_free_policy@@@@QAEPAU__vcrt_ptd@@XZ 10053474 f i libvcruntime:per_thread_data.obj
 0001:0005247a       ?get@?$__crt_unique_heap_ptr@U__vcrt_ptd@@U__crt_internal_free_policy@@@@QBEPAU__vcrt_ptd@@XZ 1005347a f i libvcruntime:per_thread_data.obj
 0001:0005247d       ?is_valid@?$__crt_unique_heap_ptr@U__vcrt_ptd@@U__crt_internal_free_policy@@@@QBE_NXZ 1005347d f i libvcruntime:per_thread_data.obj
 0001:00052484       ?release@?$__crt_unique_heap_ptr@U__vcrt_ptd@@U__crt_internal_free_policy@@@@QAEXXZ 10053484 f i libvcruntime:per_thread_data.obj
 0001:000524b8       ___vcrt_freefls@4          100534b8 f   libvcruntime:per_thread_data.obj
 0001:000524db       ___vcrt_freeptd            100534db f   libvcruntime:per_thread_data.obj
 0001:0005251e       ___vcrt_getptd             1005351e f   libvcruntime:per_thread_data.obj
 0001:0005252f       ___vcrt_getptd_noexit      1005352f f   libvcruntime:per_thread_data.obj
 0001:000525e5       ___vcrt_getptd_noinit      100535e5 f   libvcruntime:per_thread_data.obj
 0001:00052629       ___vcrt_initialize_ptd     10053629 f   libvcruntime:per_thread_data.obj
 0001:00052668       ___vcrt_uninitialize_ptd   10053668 f   libvcruntime:per_thread_data.obj
 0001:00052f3c       ??$TypeMatchHelper@V__FrameHandler3@@@@YAHPBU_s_HandlerType@@PBU_s_CatchableType@@PBU_s_ThrowInfo@@@Z 10053f3c f i libvcruntime:frame.obj
 0001:00052fed       ??$__InternalCxxFrameHandler@V__FrameHandler3@@@@YA?AW4_EXCEPTION_DISPOSITION@@PAUEHExceptionRecord@@PAUEHRegistrationNode@@PAU_CONTEXT@@PAXPBU_s_FuncInfo@@H1E@Z 10053fed f i libvcruntime:frame.obj
 0001:0005312f       ??0HandlerMap@__FrameHandler3@@QAE@PBU_s_TryBlockMapEntry@@PAX@Z 1005412f f i libvcruntime:frame.obj
 0001:0005314b       ??0TryBlockMap@__FrameHandler3@@QAE@PBU_s_FuncInfo@@PAX@Z 1005414b f i libvcruntime:frame.obj
 0001:00053164       ??0bad_exception@std@@QAE@ABV01@@Z 10054164 f i libvcruntime:frame.obj
 0001:00053185       ??0bad_exception@std@@QAE@XZ 10054185 f i libvcruntime:frame.obj
 0001:000531a3       ??0iterator@HandlerMap@__FrameHandler3@@QAE@AAV12@I@Z 100541a3 f i libvcruntime:frame.obj
 0001:000531bc       ??1bad_exception@std@@UAE@XZ 100541bc f i libvcruntime:frame.obj
 0001:000531d1       ??8iterator@HandlerMap@__FrameHandler3@@QBE_NABV012@@Z 100541d1 f i libvcruntime:frame.obj
 0001:000531e8       ??8type_info@@QBE_NABV0@@Z 100541e8 f i libvcruntime:frame.obj
 0001:0005320e       ??9iterator@HandlerMap@__FrameHandler3@@QBE_NABV012@@Z 1005420e f i libvcruntime:frame.obj
 0001:00053225       ??Diterator@HandlerMap@__FrameHandler3@@QAEPBU_s_HandlerType@@XZ 10054225 f i libvcruntime:frame.obj
 0001:00053234       ??Diterator@TryBlockMap@__FrameHandler3@@QAEPBU_s_TryBlockMapEntry@@XZ 10054234 f i libvcruntime:frame.obj
 0001:00053243       ??Eiterator@HandlerMap@__FrameHandler3@@QAEAAV012@XZ 10054243 f i libvcruntime:frame.obj
 0001:00053249       ??Eiterator@TryBlockMap@__FrameHandler3@@QAEAAV012@XZ 10054249 f i libvcruntime:frame.obj
 0001:0005324f       ??Miterator@TryBlockMap@__FrameHandler3@@QBE_NABV012@@Z 1005424f f i libvcruntime:frame.obj
 0001:00053266       ??_Gbad_exception@std@@UAEPAXI@Z 10054266 f i libvcruntime:frame.obj
 0001:00053266       ??_Ebad_exception@std@@UAEPAXI@Z 10054266 f i libvcruntime:frame.obj
 0001:0005329e       ?BuildCatchObject@__FrameHandler3@@SAXPAUEHExceptionRecord@@PAXPBU_s_HandlerType@@PBU_s_CatchableType@@@Z 1005429e f   libvcruntime:frame.obj
 0001:000532a3       ?BuildCatchObjectHelper@__FrameHandler3@@SAHPAUEHExceptionRecord@@PAXPBU_s_HandlerType@@PBU_s_CatchableType@@@Z 100542a3 f   libvcruntime:frame.obj
 0001:00053587       ?FrameUnwindToEmptyState@__FrameHandler3@@SAXPAUEHRegistrationNode@@PAXPBU_s_FuncInfo@@@Z 10054587 f   libvcruntime:frame.obj
 0001:000535a5       ?FrameUnwindToState@__FrameHandler3@@SAXPAUEHRegistrationNode@@PAXPBU_s_FuncInfo@@H@Z 100545a5 f   libvcruntime:frame.obj
 0001:000536c7       ?GetMaxState@__FrameHandler3@@SAHPAXPBU_s_FuncInfo@@@Z 100546c7 f i libvcruntime:frame.obj
 0001:000537db       ?TypeMatch@__FrameHandler3@@SAHPBU_s_HandlerType@@PBU_s_CatchableType@@PBU_s_ThrowInfo@@@Z 100547db f   libvcruntime:frame.obj
 0001:000537e6       ?_CallMemberFunction1@@YGXQAX00@Z 100547e6 f i libvcruntime:frame.obj
 0001:000537fa       ?_CallMemberFunction2@@YGXQAX00H@Z 100547fa f i libvcruntime:frame.obj
 0001:00053811       ?_ValidateExecute@@YA_NP6GHXZ@Z 10054811 f i libvcruntime:frame.obj
 0001:00053820       ?_ValidateRead@@YA_NPBXI@Z 10054820 f i libvcruntime:frame.obj
 0001:0005382f       ?_ValidateWrite@@YA_NPAXI@Z 1005482f f i libvcruntime:frame.obj
 0001:0005383e       ?begin@HandlerMap@__FrameHandler3@@QAE?AViterator@12@XZ 1005483e f i libvcruntime:frame.obj
 0001:00053852       ?end@HandlerMap@__FrameHandler3@@QAE?AViterator@12@XZ 10054852 f i libvcruntime:frame.obj
 0001:00053867       ?getESTypes@__FrameHandler3@@SAPBU_s_ESTypeList@@PBU_s_FuncInfo@@@Z 10054867 f i libvcruntime:frame.obj
 0001:00053874       ?getLastEntry@HandlerMap@__FrameHandler3@@QAEPBU_s_HandlerType@@XZ 10054874 f i libvcruntime:frame.obj
 0001:00053885       ?getMagicNum@__FrameHandler3@@SAIPBU_s_FuncInfo@@@Z 10054885 f i libvcruntime:frame.obj
 0001:00053897       ?getNumTryBlocks@TryBlockMap@__FrameHandler3@@QAEIXZ 10054897 f i libvcruntime:frame.obj
 0001:0005389d       ?isEHs@__FrameHandler3@@SA_NPBU_s_FuncInfo@@@Z 1005489d f i libvcruntime:frame.obj
 0001:000538ad       ?isNoExcept@__FrameHandler3@@SA_NPBU_s_FuncInfo@@@Z 100548ad f i libvcruntime:frame.obj
 0001:000538c1       ___BuildCatchObject        100548c1 f   libvcruntime:frame.obj
 0001:000538c6       ___BuildCatchObjectHelper  100548c6 f   libvcruntime:frame.obj
 0001:000538d1       ___TypeMatch               100548d1 f   libvcruntime:frame.obj
 0001:000538dc       ___vcrt_EncodePointer      100548dc f i libvcruntime:frame.obj
 0001:000538f0       __CallSettingFrame@12      100548f0 f   libvcruntime:lowhelpr.obj
 0001:00053917       __NLG_Return               10054917     libvcruntime:lowhelpr.obj
 0001:0005395c       ___except_validate_context_record 1005495c f   libvcruntime:jbcxrval.obj
 0001:00053998       ___except_validate_jump_buffer 10054998 f   libvcruntime:jbcxrval.obj
 0001:000539d0       ___except_validate_jump_buffer_common 100549d0 f i libvcruntime:jbcxrval.obj
 0001:00053a20       __local_unwind4            10054a20 f   libvcruntime:exsup4.obj
 0001:00053af8       __seh_longjmp_unwind4@4    10054af8 f   libvcruntime:exsup4.obj
 0001:00053b20       @_EH4_CallFilterFunc@8     10054b20 f   libvcruntime:exsup4.obj
 0001:00053b38       @_EH4_TransferToHandler@8  10054b38 f   libvcruntime:exsup4.obj
 0001:00053b54       @_EH4_GlobalUnwind2@8      10054b54 f   libvcruntime:exsup4.obj
 0001:00053b70       @_EH4_LocalUnwind@16       10054b70 f   libvcruntime:exsup4.obj
 0001:00053be0       ??0Block@_HeapManager@@QAE@XZ 10054be0 f i libvcruntime:undname.obj
 0001:00053be6       ??0DName@@QAE@AAPBDD@Z     10054be6 f   libvcruntime:undname.obj
 0001:00053cc4       ??0DName@@QAE@ABV0@@Z      10054cc4 f i libvcruntime:undname.obj
 0001:00053cdf       ??0DName@@QAE@D@Z          10054cdf f   libvcruntime:undname.obj
 0001:00053d0d       ??0DName@@QAE@PAV0@@Z      10054d0d f   libvcruntime:undname.obj
 0001:00053d67       ??0DName@@QAE@PBD@Z        10054d67 f   libvcruntime:undname.obj
 0001:00053da6       ??0DName@@QAE@W4DNameStatus@@@Z 10054da6 f   libvcruntime:undname.obj
 0001:00053df6       ??0DName@@QAE@XZ           10054df6 f i libvcruntime:undname.obj
 0001:00053e02       ??0DName@@QAE@_J@Z         10054e02 f   libvcruntime:undname.obj
 0001:00053eb1       ??0DName@@QAE@_K@Z         10054eb1 f   libvcruntime:undname.obj
 0001:00053f30       ??0DNameNode@@IAE@XZ       10054f30 f i libvcruntime:undname.obj
 0001:00053f3b       ??0Replicator@@QAE@XZ      10054f3b f i libvcruntime:undname.obj
 0001:00053f4c       ??0UnDecorator@@QAE@PBDP6APADJ@ZK@Z 10054f4c f i libvcruntime:undname.obj
 0001:00053fab       ??0charNode@@QAE@D@Z       10054fab f i libvcruntime:undname.obj
 0001:00053fc5       ??0pDNameNode@@QAE@PAVDName@@@Z 10054fc5 f   libvcruntime:undname.obj
 0001:00053ff7       ??0pairNode@@QAE@PBVDNameNode@@0@Z 10054ff7 f i libvcruntime:undname.obj
 0001:0005401d       ??0pcharNode@@QAE@PBDH@Z   1005501d f   libvcruntime:undname.obj
 0001:00054093       ??2@YAPAXIAAV_HeapManager@@H@Z 10055093 f i libvcruntime:undname.obj
 0001:000540ad       ??4DName@@QAEAAV0@ABV0@@Z  100550ad f   libvcruntime:undname.obj
 0001:000540c8       ??4DName@@QAEAAV0@D@Z      100550c8 f i libvcruntime:undname.obj
 0001:000540f6       ??4DName@@QAEAAV0@PAV0@@Z  100550f6 f   libvcruntime:undname.obj
 0001:00054148       ??4DName@@QAEAAV0@PBD@Z    10055148 f   libvcruntime:undname.obj
 0001:0005417d       ??4DName@@QAEAAV0@W4DNameStatus@@@Z 1005517d f   libvcruntime:undname.obj
 0001:000541bb       ??AReplicator@@QBE?AVDName@@H@Z 100551bb f   libvcruntime:undname.obj
 0001:00054212       ??H@YA?AVDName@@DABV0@@Z   10055212 f i libvcruntime:undname.obj
 0001:0005423c       ??H@YA?AVDName@@PBDABV0@@Z 1005523c f i libvcruntime:undname.obj
 0001:00054266       ??H@YA?AVDName@@W4DNameStatus@@ABV0@@Z 10055266 f i libvcruntime:undname.obj
 0001:00054290       ??HDName@@QBE?AV0@ABV0@@Z  10055290 f   libvcruntime:undname.obj
 0001:000542ba       ??HDName@@QBE?AV0@D@Z      100552ba f   libvcruntime:undname.obj
 0001:000542e4       ??HDName@@QBE?AV0@PAV0@@Z  100552e4 f   libvcruntime:undname.obj
 0001:0005430e       ??HDName@@QBE?AV0@PBD@Z    1005530e f   libvcruntime:undname.obj
 0001:00054338       ??HDName@@QBE?AV0@W4DNameStatus@@@Z 10055338 f   libvcruntime:undname.obj
 0001:00054362       ??YDName@@QAEAAV0@ABV0@@Z  10055362 f   libvcruntime:undname.obj
 0001:000543b3       ??YDName@@QAEAAV0@D@Z      100553b3 f   libvcruntime:undname.obj
 0001:00054417       ??YDName@@QAEAAV0@PAV0@@Z  10055417 f   libvcruntime:undname.obj
 0001:00054495       ??YDName@@QAEAAV0@PBD@Z    10055495 f   libvcruntime:undname.obj
 0001:0005450e       ??YDName@@QAEAAV0@W4DNameStatus@@@Z 1005550e f   libvcruntime:undname.obj
 0001:0005455e       ??YReplicator@@QAEAAV0@ABVDName@@@Z 1005555e f   libvcruntime:undname.obj
 0001:000545ba       ??_5DName@@QAEAAV0@ABV0@@Z 100555ba f   libvcruntime:undname.obj
 0001:000545dd       ?Constructor@_HeapManager@@QAEXP6APAXI@ZP6AXPAX@Z@Z 100555dd f i libvcruntime:undname.obj
 0001:00054601       ?Destructor@_HeapManager@@QAEXXZ 10055601 f i libvcruntime:undname.obj
 0001:00054647       ?UScore@UnDecorator@@SAPBDW4Tokens@@@Z 10055647 f   libvcruntime:undname.obj
 0001:0005466d       ?append@DName@@AAEXPBVDNameNode@@@Z 1005566d f   libvcruntime:undname.obj
 0001:000546c4       ?composeDeclaration@UnDecorator@@CA?AVDName@@ABV2@@Z 100556c4 f i libvcruntime:undname.obj
 0001:000556d8       ?doAccessSpecifiers@UnDecorator@@SAHXZ 100566d8 f i libvcruntime:undname.obj
 0001:000556e9       ?doAllocationLanguage@UnDecorator@@SAHXZ 100566e9 f i libvcruntime:undname.obj
 0001:000556fa       ?doAllocationModel@UnDecorator@@SAHXZ 100566fa f i libvcruntime:undname.obj
 0001:0005570b       ?doEcsu@UnDecorator@@SAHXZ 1005670b f i libvcruntime:undname.obj
 0001:0005571c       ?doEllipsis@UnDecorator@@SAHXZ 1005671c f i libvcruntime:undname.obj
 0001:0005572d       ?doFunctionReturns@UnDecorator@@SAHXZ 1005672d f i libvcruntime:undname.obj
 0001:0005573e       ?doMSKeywords@UnDecorator@@SAHXZ 1005673e f i libvcruntime:undname.obj
 0001:0005574e       ?doMemberTypes@UnDecorator@@SAHXZ 1005674e f i libvcruntime:undname.obj
 0001:0005575f       ?doNameOnly@UnDecorator@@SAHXZ 1005675f f i libvcruntime:undname.obj
 0001:0005576c       ?doNoIdentCharCheck@UnDecorator@@SAHXZ 1005676c f i libvcruntime:undname.obj
 0001:00055779       ?doPchar@DName@@AAEXPBDH@Z 10056779 f   libvcruntime:undname.obj
 0001:00055820       ?doPtr64@UnDecorator@@SAHXZ 10056820 f i libvcruntime:undname.obj
 0001:00055831       ?doRestrictionSpec@UnDecorator@@SAHXZ 10056831 f i libvcruntime:undname.obj
 0001:00055842       ?doThisTypes@UnDecorator@@SAHXZ 10056842 f i libvcruntime:undname.obj
 0001:00055858       ?doThrowTypes@UnDecorator@@SAHXZ 10056858 f i libvcruntime:undname.obj
 0001:00055869       ?doTypeOnly@UnDecorator@@SAHXZ 10056869 f i libvcruntime:undname.obj
 0001:00055876       ?doUnderScore@UnDecorator@@SAHXZ 10056876 f i libvcruntime:undname.obj
 0001:00055883       ?getArgumentList@UnDecorator@@CA?AVDName@@XZ 10056883 f   libvcruntime:undname.obj
 0001:000559b6       ?getArgumentTypes@UnDecorator@@CA?AVDName@@XZ 100569b6 f   libvcruntime:undname.obj
 0001:00055ab2       ?getArrayType@UnDecorator@@CA?AVDName@@ABV2@@Z 10056ab2 f i libvcruntime:undname.obj
 0001:00055ccf       ?getBasedType@UnDecorator@@CA?AVDName@@XZ 10056ccf f   libvcruntime:undname.obj
 0001:00055d8d       ?getBasicDataType@UnDecorator@@CA?AVDName@@ABV2@@Z 10056d8d f   libvcruntime:undname.obj
 0001:00056263       ?getCHPEName@UnDecorator@@QAEPADPADH@Z 10057263 f i libvcruntime:undname.obj
 0001:00056379       ?getCallIndex@UnDecorator@@CA?AVDName@@XZ 10057379 f i libvcruntime:undname.obj
 0001:00056392       ?getCallingConvention@UnDecorator@@CA?AVDName@@XZ 10057392 f   libvcruntime:undname.obj
 0001:00056499       ?getDataIndirectType@UnDecorator@@CA?AVDName@@ABV2@PBD0H@Z 10057499 f   libvcruntime:undname.obj
 0001:00056bfd       ?getDataIndirectType@UnDecorator@@CA?AVDName@@XZ 10057bfd f i libvcruntime:undname.obj
 0001:00056c3b       ?getDataType@UnDecorator@@CA?AVDName@@PAV2@@Z 10057c3b f   libvcruntime:undname.obj
 0001:00056d31       ?getDecoratedName@UnDecorator@@CA?AVDName@@XZ 10057d31 f   libvcruntime:undname.obj
 0001:00057003       ?getDimension@UnDecorator@@CA?AVDName@@_N@Z 10058003 f   libvcruntime:undname.obj
 0001:00057169       ?getDispatchTarget@UnDecorator@@CA?AVDName@@XZ 10058169 f   libvcruntime:undname.obj
 0001:000571d2       ?getDisplacement@UnDecorator@@CA?AVDName@@XZ 100581d2 f i libvcruntime:undname.obj
 0001:000571eb       ?getECSUDataType@UnDecorator@@CA?AVDName@@XZ 100581eb f   libvcruntime:undname.obj
 0001:00057349       ?getECSUName@UnDecorator@@CA?AVDName@@XZ 10058349 f i libvcruntime:undname.obj
 0001:0005735e       ?getEnumType@UnDecorator@@CA?AVDName@@XZ 1005835e f i libvcruntime:undname.obj
 0001:0005748a       ?getExtendedDataIndirectType@UnDecorator@@CA?AVDName@@AAPBDAA_NH@Z 1005848a f   libvcruntime:undname.obj
 0001:000576ae       ?getExternalDataType@UnDecorator@@CA?AVDName@@ABV2@@Z 100586ae f i libvcruntime:undname.obj
 0001:0005772e       ?getFunctionIndirectType@UnDecorator@@CA?AVDName@@ABV2@@Z 1005872e f   libvcruntime:undname.obj
 0001:00057bfc       ?getGuardNumber@UnDecorator@@CA?AVDName@@XZ 10058bfc f i libvcruntime:undname.obj
 0001:00057c15       ?getLastChar@DName@@QBEDXZ 10058c15 f i libvcruntime:undname.obj
 0001:00057c3d       ?getLastChar@DNameStatusNode@@UBEDXZ 10058c3d f i libvcruntime:undname.obj
 0001:00057c4c       ?getLastChar@charNode@@UBEDXZ 10058c4c f i libvcruntime:undname.obj
 0001:00057c50       ?getLastChar@pDNameNode@@UBEDXZ 10058c50 f i libvcruntime:undname.obj
 0001:00057c61       ?getLastChar@pairNode@@UBEDXZ 10058c61 f i libvcruntime:undname.obj
 0001:00057ca3       ?getLastChar@pcharNode@@UBEDXZ 10058ca3 f i libvcruntime:undname.obj
 0001:00057cb9       ?getLexicalFrame@UnDecorator@@CA?AVDName@@XZ 10058cb9 f i libvcruntime:undname.obj
 0001:00057d07       ?getMemory@_HeapManager@@QAEPAXIH@Z 10058d07 f   libvcruntime:undname.obj
 0001:00057daf       ?getNoexcept@UnDecorator@@CA?AVDName@@XZ 10058daf f   libvcruntime:undname.obj
 0001:00057e05       ?getNumberOfDimensions@UnDecorator@@CAHXZ 10058e05 f   libvcruntime:undname.obj
 0001:00057e7e       ?getOperatorName@UnDecorator@@CA?AVDName@@_NPA_N@Z 10058e7e f i libvcruntime:undname.obj
 0001:0005866c       ?getPointerType@UnDecorator@@CA?AVDName@@ABV2@0@Z 1005966c f i libvcruntime:undname.obj
 0001:00058691       ?getPointerTypeArray@UnDecorator@@CA?AVDName@@ABV2@0@Z 10059691 f i libvcruntime:undname.obj
 0001:000586b6       ?getPrimaryDataType@UnDecorator@@CA?AVDName@@ABV2@@Z 100596b6 f   libvcruntime:undname.obj
 0001:00058913       ?getPtrRefDataType@UnDecorator@@CA?AVDName@@ABV2@H@Z 10059913 f   libvcruntime:undname.obj
 0001:00058a86       ?getPtrRefType@UnDecorator@@CA?AVDName@@ABV2@0PBD@Z 10059a86 f   libvcruntime:undname.obj
 0001:00058bbe       ?getReferenceType@UnDecorator@@CA?AVDName@@ABV2@0PBD@Z 10059bbe f i libvcruntime:undname.obj
 0001:00058be1       ?getRestrictionSpec@UnDecorator@@CA?AVDName@@XZ 10059be1 f   libvcruntime:undname.obj
 0001:00058d18       ?getReturnType@UnDecorator@@CA?AVDName@@PAV2@@Z 10059d18 f   libvcruntime:undname.obj
 0001:00058d52       ?getScope@UnDecorator@@CA?AVDName@@XZ 10059d52 f   libvcruntime:undname.obj
 0001:000591cb       ?getScopedName@UnDecorator@@CA?AVDName@@XZ 1005a1cb f   libvcruntime:undname.obj
 0001:000592d4       ?getSignedDimension@UnDecorator@@CA?AVDName@@XZ 1005a2d4 f   libvcruntime:undname.obj
 0001:00059339       ?getStorageConvention@UnDecorator@@CA?AVDName@@XZ 1005a339 f i libvcruntime:undname.obj
 0001:0005934e       ?getString@DName@@QBEPADPAD0@Z 1005a34e f i libvcruntime:undname.obj
 0001:00059386       ?getString@DName@@QBEPADPADH@Z 1005a386 f i libvcruntime:undname.obj
 0001:000593f1       ?getString@DNameStatusNode@@UBEPADPAD0@Z 1005a3f1 f i libvcruntime:undname.obj
 0001:00059421       ?getString@charNode@@UBEPADPAD0@Z 1005a421 f i libvcruntime:undname.obj
 0001:0005943b       ?getString@pDNameNode@@UBEPADPAD0@Z 1005a43b f i libvcruntime:undname.obj
 0001:00059457       ?getString@pairNode@@UBEPADPAD0@Z 1005a457 f i libvcruntime:undname.obj
 0001:000594ae       ?getString@pcharNode@@UBEPADPAD0@Z 1005a4ae f i libvcruntime:undname.obj
 0001:000594cf       ?getStringEncoding@UnDecorator@@CA?AVDName@@PBDH@Z 1005a4cf f   libvcruntime:undname.obj
 0001:000595ab       ?getStringHelper@@YAPADPADPBD1H@Z 1005a5ab f i libvcruntime:undname.obj
 0001:000595ef       ?getSymbolName@UnDecorator@@CA?AVDName@@XZ 1005a5ef f i libvcruntime:undname.obj
 0001:00059649       ?getTemplateArgumentList@UnDecorator@@CA?AVDName@@XZ 1005a649 f   libvcruntime:undname.obj
 0001:0005998d       ?getTemplateConstant@UnDecorator@@CA?AVDName@@XZ 1005a98d f   libvcruntime:undname.obj
 0001:00059d8b       ?getTemplateName@UnDecorator@@CA?AVDName@@_N@Z 1005ad8b f   libvcruntime:undname.obj
 0001:00059f45       ?getThisType@UnDecorator@@CA?AVDName@@XZ 1005af45 f i libvcruntime:undname.obj
 0001:00059f84       ?getThrowTypes@UnDecorator@@CA?AVDName@@XZ 1005af84 f   libvcruntime:undname.obj
 0001:00059faf       ?getTypeEncoding@UnDecorator@@CAHXZ 1005afaf f i libvcruntime:undname.obj
 0001:0005a3a1       ?getUndecoratedName@UnDecorator@@QAEPADPADH@Z 1005b3a1 f i libvcruntime:undname.obj
 0001:0005a496       ?getVCallThunkType@UnDecorator@@CA?AVDName@@XZ 1005b496 f i libvcruntime:undname.obj
 0001:0005a4ee       ?getVbTableType@UnDecorator@@CA?AVDName@@ABV2@@Z 1005b4ee f i libvcruntime:undname.obj
 0001:0005a508       ?getVdispMapType@UnDecorator@@CA?AVDName@@ABV2@@Z 1005b508 f i libvcruntime:undname.obj
 0001:0005a571       ?getVfTableType@UnDecorator@@CA?AVDName@@ABV2@@Z 1005b571 f i libvcruntime:undname.obj
 0001:0005a72c       ?getZName@UnDecorator@@CA?AVDName@@_N0@Z 1005b72c f   libvcruntime:undname.obj
 0001:0005a9aa       ?haveTemplateParameters@UnDecorator@@SAHXZ 1005b9aa f i libvcruntime:undname.obj
 0001:0005a9b7       ?isArray@DName@@QBEHXZ     1005b9b7 f i libvcruntime:undname.obj
 0001:0005a9c3       ?isComArray@DName@@QBEHXZ  1005b9c3 f i libvcruntime:undname.obj
 0001:0005a9cf       ?isEmpty@DName@@QBEHXZ     1005b9cf f i libvcruntime:undname.obj
 0001:0005a9d9       ?isFull@Replicator@@QBEHXZ 1005b9d9 f i libvcruntime:undname.obj
 0001:0005a9e4       ?isNoTE@DName@@QBEHXZ      1005b9e4 f i libvcruntime:undname.obj
 0001:0005a9f0       ?isPinPtr@DName@@QBEHXZ    1005b9f0 f i libvcruntime:undname.obj
 0001:0005a9fc       ?isPtrRef@DName@@QBEHXZ    1005b9fc f i libvcruntime:undname.obj
 0001:0005aa08       ?isUDC@DName@@QBEHXZ       1005ba08 f i libvcruntime:undname.obj
 0001:0005aa1d       ?isUDTThunk@DName@@QBEHXZ  1005ba1d f i libvcruntime:undname.obj
 0001:0005aa32       ?isVCallThunk@DName@@QBEHXZ 1005ba32 f i libvcruntime:undname.obj
 0001:0005aa3e       ?isValid@DName@@QBEHXZ     1005ba3e f i libvcruntime:undname.obj
 0001:0005aa4a       ?length@DName@@QBEHXZ      1005ba4a f i libvcruntime:undname.obj
 0001:0005aa70       ?length@DNameStatusNode@@UBEHXZ 1005ba70 f i libvcruntime:undname.obj
 0001:0005aa74       ?length@charNode@@UBEHXZ   1005ba74 f i libvcruntime:undname.obj
 0001:0005aa78       ?length@pDNameNode@@UBEHXZ 1005ba78 f i libvcruntime:undname.obj
 0001:0005aa89       ?length@pairNode@@UBEHXZ   1005ba89 f i libvcruntime:undname.obj
 0001:0005aae0       ?length@pcharNode@@UBEHXZ  1005bae0 f i libvcruntime:undname.obj
 0001:0005aae4       ?make@DNameStatusNode@@SAPBV1@W4DNameStatus@@@Z 1005bae4 f i libvcruntime:undname.obj
 0001:0005ab07       ?parseDecoratedName@UnDecorator@@CA?AVDName@@XZ 1005bb07 f   libvcruntime:undname.obj
 0001:0005ac30       ?setIsArray@DName@@QAEXXZ  1005bc30 f i libvcruntime:undname.obj
 0001:0005ac3a       ?setIsComArray@DName@@QAEXXZ 1005bc3a f i libvcruntime:undname.obj
 0001:0005ac44       ?setIsNoTE@DName@@QAEXXZ   1005bc44 f i libvcruntime:undname.obj
 0001:0005ac4e       ?setIsPinPtr@DName@@QAEXXZ 1005bc4e f i libvcruntime:undname.obj
 0001:0005ac58       ?setIsUDC@DName@@QAEXXZ    1005bc58 f i libvcruntime:undname.obj
 0001:0005ac68       ?setIsVCallThunk@DName@@QAEXXZ 1005bc68 f i libvcruntime:undname.obj
 0001:0005ac72       ?setPtrRef@DName@@QAEAAV1@XZ 1005bc72 f i libvcruntime:undname.obj
 0001:0005ac7e       ?status@DName@@QBE?AW4DNameStatus@@XZ 1005bc7e f i libvcruntime:undname.obj
 0001:0005ad03       ___unDName                 1005bd03 f   libvcruntime:undname.obj
 0001:0005ad2e       ___unDNameEx               1005bd2e f   libvcruntime:undname.obj
 0001:0005adf4       _unDNameGenerateCHPE       1005bdf4 f   libvcruntime:undname.obj
 0001:0005ae67       ___vcrt_initialize_locks   1005be67 f   libvcruntime:locks.obj
 0001:0005aeb2       ___vcrt_lock               1005beb2 f   libvcruntime:locks.obj
 0001:0005aecc       ___vcrt_uninitialize_locks 1005becc f   libvcruntime:locks.obj
 0001:0005af06       ___vcrt_unlock             1005bf06 f   libvcruntime:locks.obj
 0001:0005af20       ??$?BX@__crt_fast_encoded_nullptr_t@@QBEPAXXZ 1005bf20 f i libvcruntime:winapi_downlevel.obj
 0001:0005af26       ??$__crt_fast_decode_pointer@PAX@@YAPAXQAX@Z 1005bf26 f i libvcruntime:winapi_downlevel.obj
 0001:0005af3f       ??$__crt_fast_encode_pointer@PAX@@YAPAXQAX@Z 1005bf3f f i libvcruntime:winapi_downlevel.obj
 0001:0005af63       ??$__crt_interlocked_exchange_pointer@UHINSTANCE__@@PAU1@@@YAPAUHINSTANCE__@@PDSAU0@QAU0@@Z 1005bf63 f i libvcruntime:winapi_downlevel.obj
 0001:0005af73       ??$__crt_interlocked_exchange_pointer@UHINSTANCE__@@PAX@@YAPAUHINSTANCE__@@PDSAU0@QAX@Z 1005bf73 f i libvcruntime:winapi_downlevel.obj
 0001:0005af83       ??$__crt_interlocked_exchange_pointer@XPAX@@YAPAXPDSAXQAX@Z 1005bf83 f i libvcruntime:winapi_downlevel.obj
 0001:0005af93       ??$__crt_interlocked_read_pointer@UHINSTANCE__@@@@YAPAUHINSTANCE__@@PDSAU0@@Z 1005bf93 f i libvcruntime:winapi_downlevel.obj
 0001:0005af9f       ??$__crt_interlocked_read_pointer@X@@YAPAXPDSAX@Z 1005bf9f f i libvcruntime:winapi_downlevel.obj
 0001:0005b2d3       ___vcrt_FlsAlloc           1005c2d3 f   libvcruntime:winapi_downlevel.obj
 0001:0005b31c       ___vcrt_FlsFree            1005c31c f   libvcruntime:winapi_downlevel.obj
 0001:0005b365       ___vcrt_FlsGetValue        1005c365 f   libvcruntime:winapi_downlevel.obj
 0001:0005b3ae       ___vcrt_FlsSetValue        1005c3ae f   libvcruntime:winapi_downlevel.obj
 0001:0005b3fb       ___vcrt_InitializeCriticalSectionEx 1005c3fb f   libvcruntime:winapi_downlevel.obj
 0001:0005b453       ___vcrt_initialize_winapi_thunks 1005c453 f   libvcruntime:winapi_downlevel.obj
 0001:0005b486       ___vcrt_uninitialize_winapi_thunks 1005c486 f   libvcruntime:winapi_downlevel.obj
 0001:0005b4dd       __get_unexpected           1005c4dd f   libvcruntime:unexpected.obj
 0001:0005b4f3       _set_unexpected            1005c4f3 f   libvcruntime:unexpected.obj
 0001:0005b518       _unexpected                1005c518 f   libvcruntime:unexpected.obj
 0001:0005b53c       ?GetCurrentState@__FrameHandler3@@SAHPAUEHRegistrationNode@@PAXPBU_s_FuncInfo@@@Z 1005c53c f   libvcruntime:ehstate.obj
 0001:0005b560       ?SetState@__FrameHandler3@@SAXPAUEHRegistrationNode@@PBU_s_FuncInfo@@H@Z 1005c560 f   libvcruntime:ehstate.obj
 0001:0005b580       __global_unwind2           1005c580 f   libvcruntime:exsup.obj
 0001:0005b5e6       __local_unwind2            1005c5e6 f   libvcruntime:exsup.obj
 0001:0005b66a       __abnormal_termination     1005c66a f   libvcruntime:exsup.obj
 0001:0005b690       __NLG_Notify1              1005c690 f   libvcruntime:exsup.obj
 0001:0005b69c       __NLG_Notify               1005c69c f   libvcruntime:exsup.obj
 0001:0005b6b3       __NLG_Dispatch             1005c6b3     libvcruntime:exsup.obj
 0001:0005b6b3       __NLG_Dispatch2            1005c6b3     libvcruntime:exsup.obj
 0001:0005b6bb       __NLG_Call                 1005c6bb f   libvcruntime:exsup.obj
 0001:0005b6bd       __NLG_Return2              1005c6bd     libvcruntime:exsup.obj
 0001:0005b70d       _malloc                    1005c70d f   libucrt:malloc.obj
 0001:0005b71a       _free                      1005c71a f   libucrt:free.obj
 0001:0005b73e       ??$?RPAU__crt_stdio_stream_data@@@__crt_internal_free_policy@@QBEXQBQAU__crt_stdio_stream_data@@@Z 1005c73e f i libucrt:_file.obj
 0001:0005b754       ??0?$__crt_unique_heap_ptr@PAU__crt_stdio_stream_data@@U__crt_internal_free_policy@@@@QAE@QAPAU__crt_stdio_stream_data@@@Z 1005c754 f i libucrt:_file.obj
 0001:0005b768       ??0__crt_stdio_stream@@QAE@QAU_iobuf@@@Z 1005c768 f i libucrt:_file.obj
 0001:0005b77c       ??1?$__crt_unique_heap_ptr@PAU__crt_stdio_stream_data@@U__crt_internal_free_policy@@@@QAE@XZ 1005c77c f i libucrt:_file.obj
 0001:0005b792       ??C__crt_stdio_stream@@QBEPAU__crt_stdio_stream_data@@XZ 1005c792 f i libucrt:_file.obj
 0001:0005b795       ?detach@?$__crt_unique_heap_ptr@PAU__crt_stdio_stream_data@@U__crt_internal_free_policy@@@@QAEPAPAU__crt_stdio_stream_data@@XZ 1005c795 f i libucrt:_file.obj
 0001:0005b79b       ?release@?$__crt_unique_heap_ptr@PAU__crt_stdio_stream_data@@U__crt_internal_free_policy@@@@QAEXXZ 1005c79b f i libucrt:_file.obj
 0001:0005b7b1       ___acrt_initialize_stdio   1005c7b1 f   libucrt:_file.obj
 0001:0005b8ab       ___acrt_iob_func           1005c8ab f   libucrt:_file.obj
 0001:0005b8bf       ___acrt_uninitialize_stdio 1005c8bf f   libucrt:_file.obj
 0001:0005b91e       __get_stream_buffer_pointers 1005c91e f   libucrt:_file.obj
 0001:0005b975       __lock_file                1005c975 f   libucrt:_file.obj
 0001:0005b98e       __unlock_file              1005c98e f   libucrt:_file.obj
 0001:0005b9a7       ??$?0ABV?$stream_output_adapter@D@__crt_stdio_output@@AB_KABQBDABQAU__crt_locale_pointers@@ABQAD@?$format_validation_base@DV?$stream_output_adapter@D@__crt_stdio_output@@@__crt_stdio_output@@IAE@ABV?$stream_output_adapter@D@1@AB_KABQBDABQAU__crt_locale_pointers@@ABQAD@Z 1005c9a7 f i libucrt:output.obj
 0001:0005b9d2       ??$?0ABV?$stream_output_adapter@D@__crt_stdio_output@@AB_KABQBDABQAU__crt_locale_pointers@@ABQAD@?$positional_parameter_base@DV?$stream_output_adapter@D@__crt_stdio_output@@@__crt_stdio_output@@IAE@ABV?$stream_output_adapter@D@1@AB_KABQBDABQAU__crt_locale_pointers@@ABQAD@Z 1005c9d2 f i libucrt:output.obj
 0001:0005ba2c       ??$?0ABV?$stream_output_adapter@D@__crt_stdio_output@@AB_KABQBDABQAU__crt_locale_pointers@@ABQAD@?$standard_base@DV?$stream_output_adapter@D@__crt_stdio_output@@@__crt_stdio_output@@IAE@ABV?$stream_output_adapter@D@1@AB_KABQBDABQAU__crt_locale_pointers@@ABQAD@Z 1005ca2c f i libucrt:output.obj
 0001:0005ba6e       ??$?0ABV?$stream_output_adapter@_W@__crt_stdio_output@@AB_KABQB_WABQAU__crt_locale_pointers@@ABQAD@?$format_validation_base@_WV?$stream_output_adapter@_W@__crt_stdio_output@@@__crt_stdio_output@@IAE@ABV?$stream_output_adapter@_W@1@AB_KABQB_WABQAU__crt_locale_pointers@@ABQAD@Z 1005ca6e f i libucrt:output.obj
 0001:0005ba99       ??$?0ABV?$stream_output_adapter@_W@__crt_stdio_output@@AB_KABQB_WABQAU__crt_locale_pointers@@ABQAD@?$positional_parameter_base@_WV?$stream_output_adapter@_W@__crt_stdio_output@@@__crt_stdio_output@@IAE@ABV?$stream_output_adapter@_W@1@AB_KABQB_WABQAU__crt_locale_pointers@@ABQAD@Z 1005ca99 f i libucrt:output.obj
 0001:0005baf3       ??$?0ABV?$stream_output_adapter@_W@__crt_stdio_output@@AB_KABQB_WABQAU__crt_locale_pointers@@ABQAD@?$standard_base@_WV?$stream_output_adapter@_W@__crt_stdio_output@@@__crt_stdio_output@@IAE@ABV?$stream_output_adapter@_W@1@AB_KABQB_WABQAU__crt_locale_pointers@@ABQAD@Z 1005caf3 f i libucrt:output.obj
 0001:0005bb35       ??$?0ABV?$string_output_adapter@D@__crt_stdio_output@@AB_KABQBDABQAU__crt_locale_pointers@@ABQAD@?$format_validation_base@DV?$string_output_adapter@D@__crt_stdio_output@@@__crt_stdio_output@@IAE@ABV?$string_output_adapter@D@1@AB_KABQBDABQAU__crt_locale_pointers@@ABQAD@Z 1005cb35 f i libucrt:output.obj
 0001:0005bb60       ??$?0ABV?$string_output_adapter@D@__crt_stdio_output@@AB_KABQBDABQAU__crt_locale_pointers@@ABQAD@?$positional_parameter_base@DV?$string_output_adapter@D@__crt_stdio_output@@@__crt_stdio_output@@IAE@ABV?$string_output_adapter@D@1@AB_KABQBDABQAU__crt_locale_pointers@@ABQAD@Z 1005cb60 f i libucrt:output.obj
 0001:0005bbba       ??$?0ABV?$string_output_adapter@D@__crt_stdio_output@@AB_KABQBDABQAU__crt_locale_pointers@@ABQAD@?$standard_base@DV?$string_output_adapter@D@__crt_stdio_output@@@__crt_stdio_output@@IAE@ABV?$string_output_adapter@D@1@AB_KABQBDABQAU__crt_locale_pointers@@ABQAD@Z 1005cbba f i libucrt:output.obj
 0001:0005bbfc       ??$?0ABV?$string_output_adapter@_W@__crt_stdio_output@@AB_KABQB_WABQAU__crt_locale_pointers@@ABQAD@?$format_validation_base@_WV?$string_output_adapter@_W@__crt_stdio_output@@@__crt_stdio_output@@IAE@ABV?$string_output_adapter@_W@1@AB_KABQB_WABQAU__crt_locale_pointers@@ABQAD@Z 1005cbfc f i libucrt:output.obj
 0001:0005bc27       ??$?0ABV?$string_output_adapter@_W@__crt_stdio_output@@AB_KABQB_WABQAU__crt_locale_pointers@@ABQAD@?$positional_parameter_base@_WV?$string_output_adapter@_W@__crt_stdio_output@@@__crt_stdio_output@@IAE@ABV?$string_output_adapter@_W@1@AB_KABQB_WABQAU__crt_locale_pointers@@ABQAD@Z 1005cc27 f i libucrt:output.obj
 0001:0005bc81       ??$?0ABV?$string_output_adapter@_W@__crt_stdio_output@@AB_KABQB_WABQAU__crt_locale_pointers@@ABQAD@?$standard_base@_WV?$string_output_adapter@_W@__crt_stdio_output@@@__crt_stdio_output@@IAE@ABV?$string_output_adapter@_W@1@AB_KABQB_WABQAU__crt_locale_pointers@@ABQAD@Z 1005cc81 f i libucrt:output.obj
 0001:0005c04d       ??$__crt_interlocked_read@J@@YAJPDJ@Z 1005d04d f i libucrt:output.obj
 0001:0005d2b7       ??$count@D@formatting_buffer@__crt_stdio_output@@QBEIXZ 1005e2b7 f i libucrt:output.obj
 0001:0005d2d5       ??$count@_W@formatting_buffer@__crt_stdio_output@@QBEIXZ 1005e2d5 f i libucrt:output.obj
 0001:0005d2f4       ??$data@D@formatting_buffer@__crt_stdio_output@@QAEPADXZ 1005e2f4 f i libucrt:output.obj
 0001:0005d304       ??$data@_W@formatting_buffer@__crt_stdio_output@@QAEPA_WXZ 1005e304 f i libucrt:output.obj
 0001:0005d314       ??$ensure_buffer_is_big_enough@D@formatting_buffer@__crt_stdio_output@@QAE_NI@Z 1005e314 f i libucrt:output.obj
 0001:0005d3b2       ??$ensure_buffer_is_big_enough@_W@formatting_buffer@__crt_stdio_output@@QAE_NI@Z 1005e3b2 f i libucrt:output.obj
 0001:0005d452       ??$extract_argument_from_va_list@C_J@?$positional_parameter_base@DV?$stream_output_adapter@D@__crt_stdio_output@@@__crt_stdio_output@@IAE_NAA_J@Z 1005e452 f i libucrt:output.obj
 0001:0005d4e9       ??$extract_argument_from_va_list@C_J@?$positional_parameter_base@DV?$string_output_adapter@D@__crt_stdio_output@@@__crt_stdio_output@@IAE_NAA_J@Z 1005e4e9 f i libucrt:output.obj
 0001:0005d580       ??$extract_argument_from_va_list@C_J@?$positional_parameter_base@_WV?$stream_output_adapter@_W@__crt_stdio_output@@@__crt_stdio_output@@IAE_NAA_J@Z 1005e580 f i libucrt:output.obj
 0001:0005d617       ??$extract_argument_from_va_list@C_J@?$positional_parameter_base@_WV?$string_output_adapter@_W@__crt_stdio_output@@@__crt_stdio_output@@IAE_NAA_J@Z 1005e617 f i libucrt:output.obj
 0001:0005d6ae       ??$extract_argument_from_va_list@C_J@?$standard_base@DV?$stream_output_adapter@D@__crt_stdio_output@@@__crt_stdio_output@@IAE_NAA_J@Z 1005e6ae f i libucrt:output.obj
 0001:0005d6d4       ??$extract_argument_from_va_list@C_J@?$standard_base@DV?$string_output_adapter@D@__crt_stdio_output@@@__crt_stdio_output@@IAE_NAA_J@Z 1005e6d4 f i libucrt:output.obj
 0001:0005d6fa       ??$extract_argument_from_va_list@C_J@?$standard_base@_WV?$stream_output_adapter@_W@__crt_stdio_output@@@__crt_stdio_output@@IAE_NAA_J@Z 1005e6fa f i libucrt:output.obj
 0001:0005d720       ??$extract_argument_from_va_list@C_J@?$standard_base@_WV?$string_output_adapter@_W@__crt_stdio_output@@@__crt_stdio_output@@IAE_NAA_J@Z 1005e720 f i libucrt:output.obj
 0001:0005d746       ??$extract_argument_from_va_list@E_J@?$positional_parameter_base@DV?$stream_output_adapter@D@__crt_stdio_output@@@__crt_stdio_output@@IAE_NAA_J@Z 1005e746 f i libucrt:output.obj
 0001:0005d7dd       ??$extract_argument_from_va_list@E_J@?$positional_parameter_base@DV?$string_output_adapter@D@__crt_stdio_output@@@__crt_stdio_output@@IAE_NAA_J@Z 1005e7dd f i libucrt:output.obj
 0001:0005d874       ??$extract_argument_from_va_list@E_J@?$positional_parameter_base@_WV?$stream_output_adapter@_W@__crt_stdio_output@@@__crt_stdio_output@@IAE_NAA_J@Z 1005e874 f i libucrt:output.obj
 0001:0005d90b       ??$extract_argument_from_va_list@E_J@?$positional_parameter_base@_WV?$string_output_adapter@_W@__crt_stdio_output@@@__crt_stdio_output@@IAE_NAA_J@Z 1005e90b f i libucrt:output.obj
 0001:0005d9a2       ??$extract_argument_from_va_list@E_J@?$standard_base@DV?$stream_output_adapter@D@__crt_stdio_output@@@__crt_stdio_output@@IAE_NAA_J@Z 1005e9a2 f i libucrt:output.obj
 0001:0005d9c8       ??$extract_argument_from_va_list@E_J@?$standard_base@DV?$string_output_adapter@D@__crt_stdio_output@@@__crt_stdio_output@@IAE_NAA_J@Z 1005e9c8 f i libucrt:output.obj
 0001:0005d9ee       ??$extract_argument_from_va_list@E_J@?$standard_base@_WV?$stream_output_adapter@_W@__crt_stdio_output@@@__crt_stdio_output@@IAE_NAA_J@Z 1005e9ee f i libucrt:output.obj
 0001:0005da14       ??$extract_argument_from_va_list@E_J@?$standard_base@_WV?$string_output_adapter@_W@__crt_stdio_output@@@__crt_stdio_output@@IAE_NAA_J@Z 1005ea14 f i libucrt:output.obj
 0001:0005da3a       ??$extract_argument_from_va_list@F_J@?$positional_parameter_base@DV?$stream_output_adapter@D@__crt_stdio_output@@@__crt_stdio_output@@IAE_NAA_J@Z 1005ea3a f i libucrt:output.obj
 0001:0005dad1       ??$extract_argument_from_va_list@F_J@?$positional_parameter_base@DV?$string_output_adapter@D@__crt_stdio_output@@@__crt_stdio_output@@IAE_NAA_J@Z 1005ead1 f i libucrt:output.obj
 0001:0005db68       ??$extract_argument_from_va_list@F_J@?$positional_parameter_base@_WV?$stream_output_adapter@_W@__crt_stdio_output@@@__crt_stdio_output@@IAE_NAA_J@Z 1005eb68 f i libucrt:output.obj
 0001:0005dbff       ??$extract_argument_from_va_list@F_J@?$positional_parameter_base@_WV?$string_output_adapter@_W@__crt_stdio_output@@@__crt_stdio_output@@IAE_NAA_J@Z 1005ebff f i libucrt:output.obj
 0001:0005dc96       ??$extract_argument_from_va_list@F_J@?$standard_base@DV?$stream_output_adapter@D@__crt_stdio_output@@@__crt_stdio_output@@IAE_NAA_J@Z 1005ec96 f i libucrt:output.obj
 0001:0005dcbc       ??$extract_argument_from_va_list@F_J@?$standard_base@DV?$string_output_adapter@D@__crt_stdio_output@@@__crt_stdio_output@@IAE_NAA_J@Z 1005ecbc f i libucrt:output.obj
 0001:0005dce2       ??$extract_argument_from_va_list@F_J@?$standard_base@_WV?$stream_output_adapter@_W@__crt_stdio_output@@@__crt_stdio_output@@IAE_NAA_J@Z 1005ece2 f i libucrt:output.obj
 0001:0005dd08       ??$extract_argument_from_va_list@F_J@?$standard_base@_WV?$string_output_adapter@_W@__crt_stdio_output@@@__crt_stdio_output@@IAE_NAA_J@Z 1005ed08 f i libucrt:output.obj
 0001:0005dd2e       ??$extract_argument_from_va_list@GD@?$positional_parameter_base@DV?$stream_output_adapter@D@__crt_stdio_output@@@__crt_stdio_output@@IAE_NAAD@Z 1005ed2e f i libucrt:output.obj
 0001:0005ddc4       ??$extract_argument_from_va_list@GD@?$positional_parameter_base@DV?$string_output_adapter@D@__crt_stdio_output@@@__crt_stdio_output@@IAE_NAAD@Z 1005edc4 f i libucrt:output.obj
 0001:0005de5a       ??$extract_argument_from_va_list@GD@?$standard_base@DV?$stream_output_adapter@D@__crt_stdio_output@@@__crt_stdio_output@@IAE_NAAD@Z 1005ee5a f i libucrt:output.obj
 0001:0005de7a       ??$extract_argument_from_va_list@GD@?$standard_base@DV?$string_output_adapter@D@__crt_stdio_output@@@__crt_stdio_output@@IAE_NAAD@Z 1005ee7a f i libucrt:output.obj
 0001:0005de9a       ??$extract_argument_from_va_list@G_J@?$positional_parameter_base@DV?$stream_output_adapter@D@__crt_stdio_output@@@__crt_stdio_output@@IAE_NAA_J@Z 1005ee9a f i libucrt:output.obj
 0001:0005df31       ??$extract_argument_from_va_list@G_J@?$positional_parameter_base@DV?$string_output_adapter@D@__crt_stdio_output@@@__crt_stdio_output@@IAE_NAA_J@Z 1005ef31 f i libucrt:output.obj
 0001:0005dfc8       ??$extract_argument_from_va_list@G_J@?$positional_parameter_base@_WV?$stream_output_adapter@_W@__crt_stdio_output@@@__crt_stdio_output@@IAE_NAA_J@Z 1005efc8 f i libucrt:output.obj
 0001:0005e05f       ??$extract_argument_from_va_list@G_J@?$positional_parameter_base@_WV?$string_output_adapter@_W@__crt_stdio_output@@@__crt_stdio_output@@IAE_NAA_J@Z 1005f05f f i libucrt:output.obj
 0001:0005e0f6       ??$extract_argument_from_va_list@G_J@?$standard_base@DV?$stream_output_adapter@D@__crt_stdio_output@@@__crt_stdio_output@@IAE_NAA_J@Z 1005f0f6 f i libucrt:output.obj
 0001:0005e11c       ??$extract_argument_from_va_list@G_J@?$standard_base@DV?$string_output_adapter@D@__crt_stdio_output@@@__crt_stdio_output@@IAE_NAA_J@Z 1005f11c f i libucrt:output.obj
 0001:0005e142       ??$extract_argument_from_va_list@G_J@?$standard_base@_WV?$stream_output_adapter@_W@__crt_stdio_output@@@__crt_stdio_output@@IAE_NAA_J@Z 1005f142 f i libucrt:output.obj
 0001:0005e168       ??$extract_argument_from_va_list@G_J@?$standard_base@_WV?$string_output_adapter@_W@__crt_stdio_output@@@__crt_stdio_output@@IAE_NAA_J@Z 1005f168 f i libucrt:output.obj
 0001:0005e18e       ??$extract_argument_from_va_list@H_J@?$positional_parameter_base@DV?$stream_output_adapter@D@__crt_stdio_output@@@__crt_stdio_output@@IAE_NAA_J@Z 1005f18e f i libucrt:output.obj
 0001:0005e222       ??$extract_argument_from_va_list@H_J@?$positional_parameter_base@DV?$string_output_adapter@D@__crt_stdio_output@@@__crt_stdio_output@@IAE_NAA_J@Z 1005f222 f i libucrt:output.obj
 0001:0005e2b6       ??$extract_argument_from_va_list@H_J@?$positional_parameter_base@_WV?$stream_output_adapter@_W@__crt_stdio_output@@@__crt_stdio_output@@IAE_NAA_J@Z 1005f2b6 f i libucrt:output.obj
 0001:0005e34a       ??$extract_argument_from_va_list@H_J@?$positional_parameter_base@_WV?$string_output_adapter@_W@__crt_stdio_output@@@__crt_stdio_output@@IAE_NAA_J@Z 1005f34a f i libucrt:output.obj
 0001:0005e3de       ??$extract_argument_from_va_list@H_J@?$standard_base@DV?$stream_output_adapter@D@__crt_stdio_output@@@__crt_stdio_output@@IAE_NAA_J@Z 1005f3de f i libucrt:output.obj
 0001:0005e403       ??$extract_argument_from_va_list@H_J@?$standard_base@DV?$string_output_adapter@D@__crt_stdio_output@@@__crt_stdio_output@@IAE_NAA_J@Z 1005f403 f i libucrt:output.obj
 0001:0005e428       ??$extract_argument_from_va_list@H_J@?$standard_base@_WV?$stream_output_adapter@_W@__crt_stdio_output@@@__crt_stdio_output@@IAE_NAA_J@Z 1005f428 f i libucrt:output.obj
 0001:0005e44d       ??$extract_argument_from_va_list@H_J@?$standard_base@_WV?$string_output_adapter@_W@__crt_stdio_output@@@__crt_stdio_output@@IAE_NAA_J@Z 1005f44d f i libucrt:output.obj
 0001:0005e472       ??$extract_argument_from_va_list@I_J@?$positional_parameter_base@DV?$stream_output_adapter@D@__crt_stdio_output@@@__crt_stdio_output@@IAE_NAA_J@Z 1005f472 f i libucrt:output.obj
 0001:0005e512       ??$extract_argument_from_va_list@I_J@?$positional_parameter_base@DV?$string_output_adapter@D@__crt_stdio_output@@@__crt_stdio_output@@IAE_NAA_J@Z 1005f512 f i libucrt:output.obj
 0001:0005e5b2       ??$extract_argument_from_va_list@I_J@?$positional_parameter_base@_WV?$stream_output_adapter@_W@__crt_stdio_output@@@__crt_stdio_output@@IAE_NAA_J@Z 1005f5b2 f i libucrt:output.obj
 0001:0005e652       ??$extract_argument_from_va_list@I_J@?$positional_parameter_base@_WV?$string_output_adapter@_W@__crt_stdio_output@@@__crt_stdio_output@@IAE_NAA_J@Z 1005f652 f i libucrt:output.obj
 0001:0005e6f2       ??$extract_argument_from_va_list@I_J@?$standard_base@DV?$stream_output_adapter@D@__crt_stdio_output@@@__crt_stdio_output@@IAE_NAA_J@Z 1005f6f2 f i libucrt:output.obj
 0001:0005e717       ??$extract_argument_from_va_list@I_J@?$standard_base@DV?$string_output_adapter@D@__crt_stdio_output@@@__crt_stdio_output@@IAE_NAA_J@Z 1005f717 f i libucrt:output.obj
 0001:0005e73c       ??$extract_argument_from_va_list@I_J@?$standard_base@_WV?$stream_output_adapter@_W@__crt_stdio_output@@@__crt_stdio_output@@IAE_NAA_J@Z 1005f73c f i libucrt:output.obj
 0001:0005e761       ??$extract_argument_from_va_list@I_J@?$standard_base@_WV?$string_output_adapter@_W@__crt_stdio_output@@@__crt_stdio_output@@IAE_NAA_J@Z 1005f761 f i libucrt:output.obj
 0001:0005e786       ??$extract_argument_from_va_list@PADPAD@?$positional_parameter_base@DV?$stream_output_adapter@D@__crt_stdio_output@@@__crt_stdio_output@@IAE_NAAPAD@Z 1005f786 f i libucrt:output.obj
 0001:0005e81c       ??$extract_argument_from_va_list@PADPAD@?$positional_parameter_base@DV?$string_output_adapter@D@__crt_stdio_output@@@__crt_stdio_output@@IAE_NAAPAD@Z 1005f81c f i libucrt:output.obj
 0001:0005e8b2       ??$extract_argument_from_va_list@PADPAD@?$positional_parameter_base@_WV?$stream_output_adapter@_W@__crt_stdio_output@@@__crt_stdio_output@@IAE_NAAPAD@Z 1005f8b2 f i libucrt:output.obj
 0001:0005e948       ??$extract_argument_from_va_list@PADPAD@?$positional_parameter_base@_WV?$string_output_adapter@_W@__crt_stdio_output@@@__crt_stdio_output@@IAE_NAAPAD@Z 1005f948 f i libucrt:output.obj
 0001:0005e9de       ??$extract_argument_from_va_list@PADPAD@?$standard_base@DV?$stream_output_adapter@D@__crt_stdio_output@@@__crt_stdio_output@@IAE_NAAPAD@Z 1005f9de f i libucrt:output.obj
 0001:0005e9fe       ??$extract_argument_from_va_list@PADPAD@?$standard_base@DV?$string_output_adapter@D@__crt_stdio_output@@@__crt_stdio_output@@IAE_NAAPAD@Z 1005f9fe f i libucrt:output.obj
 0001:0005ea1e       ??$extract_argument_from_va_list@PADPAD@?$standard_base@_WV?$stream_output_adapter@_W@__crt_stdio_output@@@__crt_stdio_output@@IAE_NAAPAD@Z 1005fa1e f i libucrt:output.obj
 0001:0005ea3e       ??$extract_argument_from_va_list@PADPAD@?$standard_base@_WV?$string_output_adapter@_W@__crt_stdio_output@@@__crt_stdio_output@@IAE_NAAPAD@Z 1005fa3e f i libucrt:output.obj
 0001:0005ee36       ??$extract_argument_from_va_list@PAXPAX@?$positional_parameter_base@DV?$stream_output_adapter@D@__crt_stdio_output@@@__crt_stdio_output@@IAE_NAAPAX@Z 1005fe36 f i libucrt:output.obj
 0001:0005eecc       ??$extract_argument_from_va_list@PAXPAX@?$positional_parameter_base@DV?$string_output_adapter@D@__crt_stdio_output@@@__crt_stdio_output@@IAE_NAAPAX@Z 1005fecc f i libucrt:output.obj
 0001:0005ef62       ??$extract_argument_from_va_list@PAXPAX@?$positional_parameter_base@_WV?$stream_output_adapter@_W@__crt_stdio_output@@@__crt_stdio_output@@IAE_NAAPAX@Z 1005ff62 f i libucrt:output.obj
 0001:0005eff8       ??$extract_argument_from_va_list@PAXPAX@?$positional_parameter_base@_WV?$string_output_adapter@_W@__crt_stdio_output@@@__crt_stdio_output@@IAE_NAAPAX@Z 1005fff8 f i libucrt:output.obj
 0001:0005f08e       ??$extract_argument_from_va_list@PAXPAX@?$standard_base@DV?$stream_output_adapter@D@__crt_stdio_output@@@__crt_stdio_output@@IAE_NAAPAX@Z 1006008e f i libucrt:output.obj
 0001:0005f0ae       ??$extract_argument_from_va_list@PAXPAX@?$standard_base@DV?$string_output_adapter@D@__crt_stdio_output@@@__crt_stdio_output@@IAE_NAAPAX@Z 100600ae f i libucrt:output.obj
 0001:0005f0ce       ??$extract_argument_from_va_list@PAXPAX@?$standard_base@_WV?$stream_output_adapter@_W@__crt_stdio_output@@@__crt_stdio_output@@IAE_NAAPAX@Z 100600ce f i libucrt:output.obj
 0001:0005f0ee       ??$extract_argument_from_va_list@PAXPAX@?$standard_base@_WV?$string_output_adapter@_W@__crt_stdio_output@@@__crt_stdio_output@@IAE_NAAPAX@Z 100600ee f i libucrt:output.obj
 0001:0005f10e       ??$extract_argument_from_va_list@U_CRT_DOUBLE@@U1@@?$positional_parameter_base@DV?$stream_output_adapter@D@__crt_stdio_output@@@__crt_stdio_output@@IAE_NAAU_CRT_DOUBLE@@@Z 1006010e f i libucrt:output.obj
 0001:0005f1b5       ??$extract_argument_from_va_list@U_CRT_DOUBLE@@U1@@?$positional_parameter_base@DV?$string_output_adapter@D@__crt_stdio_output@@@__crt_stdio_output@@IAE_NAAU_CRT_DOUBLE@@@Z 100601b5 f i libucrt:output.obj
 0001:0005f25c       ??$extract_argument_from_va_list@U_CRT_DOUBLE@@U1@@?$positional_parameter_base@_WV?$stream_output_adapter@_W@__crt_stdio_output@@@__crt_stdio_output@@IAE_NAAU_CRT_DOUBLE@@@Z 1006025c f i libucrt:output.obj
 0001:0005f303       ??$extract_argument_from_va_list@U_CRT_DOUBLE@@U1@@?$positional_parameter_base@_WV?$string_output_adapter@_W@__crt_stdio_output@@@__crt_stdio_output@@IAE_NAAU_CRT_DOUBLE@@@Z 10060303 f i libucrt:output.obj
 0001:0005f3aa       ??$extract_argument_from_va_list@U_CRT_DOUBLE@@U1@@?$standard_base@DV?$stream_output_adapter@D@__crt_stdio_output@@@__crt_stdio_output@@IAE_NAAU_CRT_DOUBLE@@@Z 100603aa f i libucrt:output.obj
 0001:0005f3d2       ??$extract_argument_from_va_list@U_CRT_DOUBLE@@U1@@?$standard_base@DV?$string_output_adapter@D@__crt_stdio_output@@@__crt_stdio_output@@IAE_NAAU_CRT_DOUBLE@@@Z 100603d2 f i libucrt:output.obj
 0001:0005f3fa       ??$extract_argument_from_va_list@U_CRT_DOUBLE@@U1@@?$standard_base@_WV?$stream_output_adapter@_W@__crt_stdio_output@@@__crt_stdio_output@@IAE_NAAU_CRT_DOUBLE@@@Z 100603fa f i libucrt:output.obj
 0001:0005f422       ??$extract_argument_from_va_list@U_CRT_DOUBLE@@U1@@?$standard_base@_WV?$string_output_adapter@_W@__crt_stdio_output@@@__crt_stdio_output@@IAE_NAAU_CRT_DOUBLE@@@Z 10060422 f i libucrt:output.obj
 0001:0005f44a       ??$extract_argument_from_va_list@_J_J@?$positional_parameter_base@DV?$stream_output_adapter@D@__crt_stdio_output@@@__crt_stdio_output@@IAE_NAA_J@Z 1006044a f i libucrt:output.obj
 0001:0005f4f1       ??$extract_argument_from_va_list@_J_J@?$positional_parameter_base@DV?$string_output_adapter@D@__crt_stdio_output@@@__crt_stdio_output@@IAE_NAA_J@Z 100604f1 f i libucrt:output.obj
 0001:0005f598       ??$extract_argument_from_va_list@_J_J@?$positional_parameter_base@_WV?$stream_output_adapter@_W@__crt_stdio_output@@@__crt_stdio_output@@IAE_NAA_J@Z 10060598 f i libucrt:output.obj
 0001:0005f63f       ??$extract_argument_from_va_list@_J_J@?$positional_parameter_base@_WV?$string_output_adapter@_W@__crt_stdio_output@@@__crt_stdio_output@@IAE_NAA_J@Z 1006063f f i libucrt:output.obj
 0001:0005f6e6       ??$extract_argument_from_va_list@_J_J@?$standard_base@DV?$stream_output_adapter@D@__crt_stdio_output@@@__crt_stdio_output@@IAE_NAA_J@Z 100606e6 f i libucrt:output.obj
 0001:0005f70e       ??$extract_argument_from_va_list@_J_J@?$standard_base@DV?$string_output_adapter@D@__crt_stdio_output@@@__crt_stdio_output@@IAE_NAA_J@Z 1006070e f i libucrt:output.obj
 0001:0005f736       ??$extract_argument_from_va_list@_J_J@?$standard_base@_WV?$stream_output_adapter@_W@__crt_stdio_output@@@__crt_stdio_output@@IAE_NAA_J@Z 10060736 f i libucrt:output.obj
 0001:0005f75e       ??$extract_argument_from_va_list@_J_J@?$standard_base@_WV?$string_output_adapter@_W@__crt_stdio_output@@@__crt_stdio_output@@IAE_NAA_J@Z 1006075e f i libucrt:output.obj
 0001:0005f786       ??$extract_argument_from_va_list@_K_J@?$positional_parameter_base@DV?$stream_output_adapter@D@__crt_stdio_output@@@__crt_stdio_output@@IAE_NAA_J@Z 10060786 f i libucrt:output.obj
 0001:0005f82d       ??$extract_argument_from_va_list@_K_J@?$positional_parameter_base@DV?$string_output_adapter@D@__crt_stdio_output@@@__crt_stdio_output@@IAE_NAA_J@Z 1006082d f i libucrt:output.obj
 0001:0005f8d4       ??$extract_argument_from_va_list@_K_J@?$positional_parameter_base@_WV?$stream_output_adapter@_W@__crt_stdio_output@@@__crt_stdio_output@@IAE_NAA_J@Z 100608d4 f i libucrt:output.obj
 0001:0005f97b       ??$extract_argument_from_va_list@_K_J@?$positional_parameter_base@_WV?$string_output_adapter@_W@__crt_stdio_output@@@__crt_stdio_output@@IAE_NAA_J@Z 1006097b f i libucrt:output.obj
 0001:0005fa22       ??$extract_argument_from_va_list@_K_J@?$standard_base@DV?$stream_output_adapter@D@__crt_stdio_output@@@__crt_stdio_output@@IAE_NAA_J@Z 10060a22 f i libucrt:output.obj
 0001:0005fa4a       ??$extract_argument_from_va_list@_K_J@?$standard_base@DV?$string_output_adapter@D@__crt_stdio_output@@@__crt_stdio_output@@IAE_NAA_J@Z 10060a4a f i libucrt:output.obj
 0001:0005fa72       ??$extract_argument_from_va_list@_K_J@?$standard_base@_WV?$stream_output_adapter@_W@__crt_stdio_output@@@__crt_stdio_output@@IAE_NAA_J@Z 10060a72 f i libucrt:output.obj
 0001:0005fa9a       ??$extract_argument_from_va_list@_K_J@?$standard_base@_WV?$string_output_adapter@_W@__crt_stdio_output@@@__crt_stdio_output@@IAE_NAA_J@Z 10060a9a f i libucrt:output.obj
 0001:0005fac2       ??$extract_argument_from_va_list@_W_W@?$positional_parameter_base@DV?$stream_output_adapter@D@__crt_stdio_output@@@__crt_stdio_output@@IAE_NAA_W@Z 10060ac2 f i libucrt:output.obj
 0001:0005fb5d       ??$extract_argument_from_va_list@_W_W@?$positional_parameter_base@DV?$string_output_adapter@D@__crt_stdio_output@@@__crt_stdio_output@@IAE_NAA_W@Z 10060b5d f i libucrt:output.obj
 0001:0005fbf8       ??$extract_argument_from_va_list@_W_W@?$positional_parameter_base@_WV?$stream_output_adapter@_W@__crt_stdio_output@@@__crt_stdio_output@@IAE_NAA_W@Z 10060bf8 f i libucrt:output.obj
 0001:0005fc93       ??$extract_argument_from_va_list@_W_W@?$positional_parameter_base@_WV?$string_output_adapter@_W@__crt_stdio_output@@@__crt_stdio_output@@IAE_NAA_W@Z 10060c93 f i libucrt:output.obj
 0001:0005fd2e       ??$extract_argument_from_va_list@_W_W@?$standard_base@DV?$stream_output_adapter@D@__crt_stdio_output@@@__crt_stdio_output@@IAE_NAA_W@Z 10060d2e f i libucrt:output.obj
 0001:0005fd51       ??$extract_argument_from_va_list@_W_W@?$standard_base@DV?$string_output_adapter@D@__crt_stdio_output@@@__crt_stdio_output@@IAE_NAA_W@Z 10060d51 f i libucrt:output.obj
 0001:0005fd74       ??$extract_argument_from_va_list@_W_W@?$standard_base@_WV?$stream_output_adapter@_W@__crt_stdio_output@@@__crt_stdio_output@@IAE_NAA_W@Z 10060d74 f i libucrt:output.obj
 0001:0005fd97       ??$extract_argument_from_va_list@_W_W@?$standard_base@_WV?$string_output_adapter@_W@__crt_stdio_output@@@__crt_stdio_output@@IAE_NAA_W@Z 10060d97 f i libucrt:output.obj
 0001:0005fdba       ??$get_parameter_type@D@?$positional_parameter_base@DV?$stream_output_adapter@D@__crt_stdio_output@@@__crt_stdio_output@@CA?AW4parameter_type@01@PAD@Z 10060dba f i libucrt:output.obj
 0001:0005fdbe       ??$get_parameter_type@D@?$positional_parameter_base@DV?$string_output_adapter@D@__crt_stdio_output@@@__crt_stdio_output@@CA?AW4parameter_type@01@PAD@Z 10060dbe f i libucrt:output.obj
 0001:0005fdc2       ??$get_parameter_type@D@?$positional_parameter_base@_WV?$stream_output_adapter@_W@__crt_stdio_output@@@__crt_stdio_output@@CA?AW4parameter_type@01@PAD@Z 10060dc2 f i libucrt:output.obj
 0001:0005fdc6       ??$get_parameter_type@D@?$positional_parameter_base@_WV?$string_output_adapter@_W@__crt_stdio_output@@@__crt_stdio_output@@CA?AW4parameter_type@01@PAD@Z 10060dc6 f i libucrt:output.obj
 0001:0005fdda       ??$get_parameter_type@X@?$positional_parameter_base@DV?$stream_output_adapter@D@__crt_stdio_output@@@__crt_stdio_output@@CA?AW4parameter_type@01@PAX@Z 10060dda f i libucrt:output.obj
 0001:0005fdde       ??$get_parameter_type@X@?$positional_parameter_base@DV?$string_output_adapter@D@__crt_stdio_output@@@__crt_stdio_output@@CA?AW4parameter_type@01@PAX@Z 10060dde f i libucrt:output.obj
 0001:0005fde2       ??$get_parameter_type@X@?$positional_parameter_base@_WV?$stream_output_adapter@_W@__crt_stdio_output@@@__crt_stdio_output@@CA?AW4parameter_type@01@PAX@Z 10060de2 f i libucrt:output.obj
 0001:0005fde6       ??$get_parameter_type@X@?$positional_parameter_base@_WV?$string_output_adapter@_W@__crt_stdio_output@@@__crt_stdio_output@@CA?AW4parameter_type@01@PAX@Z 10060de6 f i libucrt:output.obj
 0001:0005fdea       ??$is_character_specifier@D@?$positional_parameter_base@DV?$stream_output_adapter@D@__crt_stdio_output@@@__crt_stdio_output@@CA_ND@Z 10060dea f i libucrt:output.obj
 0001:0005fe08       ??$is_character_specifier@D@?$positional_parameter_base@DV?$string_output_adapter@D@__crt_stdio_output@@@__crt_stdio_output@@CA_ND@Z 10060e08 f i libucrt:output.obj
 0001:0005fe26       ??$is_character_specifier@_W@?$positional_parameter_base@_WV?$stream_output_adapter@_W@__crt_stdio_output@@@__crt_stdio_output@@CA_N_W@Z 10060e26 f i libucrt:output.obj
 0001:0005fe47       ??$is_character_specifier@_W@?$positional_parameter_base@_WV?$string_output_adapter@_W@__crt_stdio_output@@@__crt_stdio_output@@CA_N_W@Z 10060e47 f i libucrt:output.obj
 0001:0005fe68       ??$is_integral_specifier@D@?$positional_parameter_base@DV?$stream_output_adapter@D@__crt_stdio_output@@@__crt_stdio_output@@CA_ND@Z 10060e68 f i libucrt:output.obj
 0001:0005fe9f       ??$is_integral_specifier@D@?$positional_parameter_base@DV?$string_output_adapter@D@__crt_stdio_output@@@__crt_stdio_output@@CA_ND@Z 10060e9f f i libucrt:output.obj
 0001:0005fed6       ??$is_integral_specifier@_W@?$positional_parameter_base@_WV?$stream_output_adapter@_W@__crt_stdio_output@@@__crt_stdio_output@@CA_N_W@Z 10060ed6 f i libucrt:output.obj
 0001:0005ff1f       ??$is_integral_specifier@_W@?$positional_parameter_base@_WV?$string_output_adapter@_W@__crt_stdio_output@@@__crt_stdio_output@@CA_N_W@Z 10060f1f f i libucrt:output.obj
 0001:0005ff68       ??$is_pointer_specifier@D@?$positional_parameter_base@DV?$stream_output_adapter@D@__crt_stdio_output@@@__crt_stdio_output@@CA_ND@Z 10060f68 f i libucrt:output.obj
 0001:0005ff79       ??$is_pointer_specifier@D@?$positional_parameter_base@DV?$string_output_adapter@D@__crt_stdio_output@@@__crt_stdio_output@@CA_ND@Z 10060f79 f i libucrt:output.obj
 0001:0005ff8a       ??$is_pointer_specifier@_W@?$positional_parameter_base@_WV?$stream_output_adapter@_W@__crt_stdio_output@@@__crt_stdio_output@@CA_N_W@Z 10060f8a f i libucrt:output.obj
 0001:0005ff9c       ??$is_pointer_specifier@_W@?$positional_parameter_base@_WV?$string_output_adapter@_W@__crt_stdio_output@@@__crt_stdio_output@@CA_N_W@Z 10060f9c f i libucrt:output.obj
 0001:0005ffae       ??$is_string_specifier@D@?$positional_parameter_base@DV?$stream_output_adapter@D@__crt_stdio_output@@@__crt_stdio_output@@CA_ND@Z 10060fae f i libucrt:output.obj
 0001:0005ffcc       ??$is_string_specifier@D@?$positional_parameter_base@DV?$string_output_adapter@D@__crt_stdio_output@@@__crt_stdio_output@@CA_ND@Z 10060fcc f i libucrt:output.obj
 0001:0005ffea       ??$is_string_specifier@_W@?$positional_parameter_base@_WV?$stream_output_adapter@_W@__crt_stdio_output@@@__crt_stdio_output@@CA_N_W@Z 10060fea f i libucrt:output.obj
 0001:0006000b       ??$is_string_specifier@_W@?$positional_parameter_base@_WV?$string_output_adapter@_W@__crt_stdio_output@@@__crt_stdio_output@@CA_N_W@Z 1006100b f i libucrt:output.obj
 0001:0006002c       ??$is_wide_character_specifier@D@__crt_stdio_output@@YA_N_KDW4length_modifier@0@@Z 1006102c f i libucrt:output.obj
 0001:00060069       ??$is_wide_character_specifier@_W@__crt_stdio_output@@YA_N_K_WW4length_modifier@0@@Z 10061069 f i libucrt:output.obj
 0001:000600ca       ??$peek_va_arg@C@__crt_stdio_output@@YACPAD@Z 100610ca f i libucrt:output.obj
 0001:000600d9       ??$peek_va_arg@E@__crt_stdio_output@@YAEPAD@Z 100610d9 f i libucrt:output.obj
 0001:000600e8       ??$peek_va_arg@F@__crt_stdio_output@@YAFPAD@Z 100610e8 f i libucrt:output.obj
 0001:000600f8       ??$peek_va_arg@G@__crt_stdio_output@@YAGPAD@Z 100610f8 f i libucrt:output.obj
 0001:00060108       ??$peek_va_arg@H@__crt_stdio_output@@YAHPAD@Z 10061108 f i libucrt:output.obj
 0001:00060117       ??$peek_va_arg@I@__crt_stdio_output@@YAIPAD@Z 10061117 f i libucrt:output.obj
 0001:00060126       ??$peek_va_arg@PAD@__crt_stdio_output@@YAPADPAD@Z 10061126 f i libucrt:output.obj
 0001:00060171       ??$peek_va_arg@PAX@__crt_stdio_output@@YAPAXPAD@Z 10061171 f i libucrt:output.obj
 0001:00060180       ??$peek_va_arg@U_CRT_DOUBLE@@@__crt_stdio_output@@YA?AU_CRT_DOUBLE@@PAD@Z 10061180 f i libucrt:output.obj
 0001:00060192       ??$peek_va_arg@_J@__crt_stdio_output@@YA_JPAD@Z 10061192 f i libucrt:output.obj
 0001:000601a4       ??$peek_va_arg@_K@__crt_stdio_output@@YA_KPAD@Z 100611a4 f i libucrt:output.obj
 0001:000601b6       ??$peek_va_arg@_W@__crt_stdio_output@@YA_WPAD@Z 100611b6 f i libucrt:output.obj
 0001:000601c6       ??$puttc_nolock@ABDPAU_iobuf@@@?$__crt_char_traits@D@@SAHABD$$QAPAU_iobuf@@@Z 100611c6 f i libucrt:output.obj
 0001:000601e6       ??$puttc_nolock@AB_WPAU_iobuf@@@?$__crt_char_traits@_W@@SAGAB_W$$QAPAU_iobuf@@@Z 100611e6 f i libucrt:output.obj
 0001:00060206       ??$read_va_arg@C@__crt_stdio_output@@YACAAPAD@Z 10061206 f i libucrt:output.obj
 0001:0006021c       ??$read_va_arg@E@__crt_stdio_output@@YAEAAPAD@Z 1006121c f i libucrt:output.obj
 0001:00060232       ??$read_va_arg@F@__crt_stdio_output@@YAFAAPAD@Z 10061232 f i libucrt:output.obj
 0001:00060249       ??$read_va_arg@G@__crt_stdio_output@@YAGAAPAD@Z 10061249 f i libucrt:output.obj
 0001:00060260       ??$read_va_arg@H@__crt_stdio_output@@YAHAAPAD@Z 10061260 f i libucrt:output.obj
 0001:00060276       ??$read_va_arg@I@__crt_stdio_output@@YAIAAPAD@Z 10061276 f i libucrt:output.obj
 0001:0006028c       ??$read_va_arg@PAD@__crt_stdio_output@@YAPADAAPAD@Z 1006128c f i libucrt:output.obj
 0001:000603aa       ??$read_va_arg@PAX@__crt_stdio_output@@YAPAXAAPAD@Z 100613aa f i libucrt:output.obj
 0001:000603c0       ??$read_va_arg@U_CRT_DOUBLE@@@__crt_stdio_output@@YA?AU_CRT_DOUBLE@@AAPAD@Z 100613c0 f i libucrt:output.obj
 0001:000603db       ??$read_va_arg@_J@__crt_stdio_output@@YA_JAAPAD@Z 100613db f i libucrt:output.obj
 0001:000603f5       ??$read_va_arg@_K@__crt_stdio_output@@YA_KAAPAD@Z 100613f5 f i libucrt:output.obj
 0001:0006040f       ??$read_va_arg@_W@__crt_stdio_output@@YA_WAAPAD@Z 1006140f f i libucrt:output.obj
 0001:00060426       ??$scratch_count@D@formatting_buffer@__crt_stdio_output@@QBEIXZ 10061426 f i libucrt:output.obj
 0001:0006042b       ??$scratch_data@D@formatting_buffer@__crt_stdio_output@@QAEPADXZ 1006142b f i libucrt:output.obj
 0001:00060450       ??$tcstol@AAPBDPAPADH@?$__crt_char_traits@D@@SAJAAPBD$$QAPAPAD$$QAH@Z 10061450 f i libucrt:output.obj
 0001:00060475       ??$tcstol@AAPB_WPAPA_WH@?$__crt_char_traits@_W@@SAJAAPB_W$$QAPAPA_W$$QAH@Z 10061475 f i libucrt:output.obj
 0001:0006049a       ??$tcstol@PBDPAPADH@?$__crt_char_traits@D@@SAJ$$QAPBD$$QAPAPAD$$QAH@Z 1006149a f i libucrt:output.obj
 0001:000604bf       ??$tcstol@PB_WPAPA_WH@?$__crt_char_traits@_W@@SAJ$$QAPB_W$$QAPAPA_W$$QAH@Z 100614bf f i libucrt:output.obj
 0001:000604e4       ??$type_case_integer_parse_into_buffer@I@?$output_processor@DV?$stream_output_adapter@D@__crt_stdio_output@@V?$format_validation_base@DV?$stream_output_adapter@D@__crt_stdio_output@@@2@@__crt_stdio_output@@AAEXII_N@Z 100614e4 f i libucrt:output.obj
 0001:00060573       ??$type_case_integer_parse_into_buffer@I@?$output_processor@DV?$stream_output_adapter@D@__crt_stdio_output@@V?$positional_parameter_base@DV?$stream_output_adapter@D@__crt_stdio_output@@@2@@__crt_stdio_output@@AAEXII_N@Z 10061573 f i libucrt:output.obj
 0001:00060602       ??$type_case_integer_parse_into_buffer@I@?$output_processor@DV?$stream_output_adapter@D@__crt_stdio_output@@V?$standard_base@DV?$stream_output_adapter@D@__crt_stdio_output@@@2@@__crt_stdio_output@@AAEXII_N@Z 10061602 f i libucrt:output.obj
 0001:00060691       ??$type_case_integer_parse_into_buffer@I@?$output_processor@DV?$string_output_adapter@D@__crt_stdio_output@@V?$format_validation_base@DV?$string_output_adapter@D@__crt_stdio_output@@@2@@__crt_stdio_output@@AAEXII_N@Z 10061691 f i libucrt:output.obj
 0001:00060720       ??$type_case_integer_parse_into_buffer@I@?$output_processor@DV?$string_output_adapter@D@__crt_stdio_output@@V?$positional_parameter_base@DV?$string_output_adapter@D@__crt_stdio_output@@@2@@__crt_stdio_output@@AAEXII_N@Z 10061720 f i libucrt:output.obj
 0001:000607af       ??$type_case_integer_parse_into_buffer@I@?$output_processor@DV?$string_output_adapter@D@__crt_stdio_output@@V?$standard_base@DV?$string_output_adapter@D@__crt_stdio_output@@@2@@__crt_stdio_output@@AAEXII_N@Z 100617af f i libucrt:output.obj
 0001:0006083e       ??$type_case_integer_parse_into_buffer@I@?$output_processor@_WV?$stream_output_adapter@_W@__crt_stdio_output@@V?$format_validation_base@_WV?$stream_output_adapter@_W@__crt_stdio_output@@@2@@__crt_stdio_output@@AAEXII_N@Z 1006183e f i libucrt:output.obj
 0001:000608e6       ??$type_case_integer_parse_into_buffer@I@?$output_processor@_WV?$stream_output_adapter@_W@__crt_stdio_output@@V?$positional_parameter_base@_WV?$stream_output_adapter@_W@__crt_stdio_output@@@2@@__crt_stdio_output@@AAEXII_N@Z 100618e6 f i libucrt:output.obj
 0001:0006098e       ??$type_case_integer_parse_into_buffer@I@?$output_processor@_WV?$stream_output_adapter@_W@__crt_stdio_output@@V?$standard_base@_WV?$stream_output_adapter@_W@__crt_stdio_output@@@2@@__crt_stdio_output@@AAEXII_N@Z 1006198e f i libucrt:output.obj
 0001:00060a36       ??$type_case_integer_parse_into_buffer@I@?$output_processor@_WV?$string_output_adapter@_W@__crt_stdio_output@@V?$format_validation_base@_WV?$string_output_adapter@_W@__crt_stdio_output@@@2@@__crt_stdio_output@@AAEXII_N@Z 10061a36 f i libucrt:output.obj
 0001:00060ade       ??$type_case_integer_parse_into_buffer@I@?$output_processor@_WV?$string_output_adapter@_W@__crt_stdio_output@@V?$positional_parameter_base@_WV?$string_output_adapter@_W@__crt_stdio_output@@@2@@__crt_stdio_output@@AAEXII_N@Z 10061ade f i libucrt:output.obj
 0001:00060b86       ??$type_case_integer_parse_into_buffer@I@?$output_processor@_WV?$string_output_adapter@_W@__crt_stdio_output@@V?$standard_base@_WV?$string_output_adapter@_W@__crt_stdio_output@@@2@@__crt_stdio_output@@AAEXII_N@Z 10061b86 f i libucrt:output.obj
 0001:00060c2e       ??$type_case_integer_parse_into_buffer@_K@?$output_processor@DV?$stream_output_adapter@D@__crt_stdio_output@@V?$format_validation_base@DV?$stream_output_adapter@D@__crt_stdio_output@@@2@@__crt_stdio_output@@AAEX_KI_N@Z 10061c2e f i libucrt:output.obj
 0001:00060ce2       ??$type_case_integer_parse_into_buffer@_K@?$output_processor@DV?$stream_output_adapter@D@__crt_stdio_output@@V?$positional_parameter_base@DV?$stream_output_adapter@D@__crt_stdio_output@@@2@@__crt_stdio_output@@AAEX_KI_N@Z 10061ce2 f i libucrt:output.obj
 0001:00060d96       ??$type_case_integer_parse_into_buffer@_K@?$output_processor@DV?$stream_output_adapter@D@__crt_stdio_output@@V?$standard_base@DV?$stream_output_adapter@D@__crt_stdio_output@@@2@@__crt_stdio_output@@AAEX_KI_N@Z 10061d96 f i libucrt:output.obj
 0001:00060e4a       ??$type_case_integer_parse_into_buffer@_K@?$output_processor@DV?$string_output_adapter@D@__crt_stdio_output@@V?$format_validation_base@DV?$string_output_adapter@D@__crt_stdio_output@@@2@@__crt_stdio_output@@AAEX_KI_N@Z 10061e4a f i libucrt:output.obj
 0001:00060efe       ??$type_case_integer_parse_into_buffer@_K@?$output_processor@DV?$string_output_adapter@D@__crt_stdio_output@@V?$positional_parameter_base@DV?$string_output_adapter@D@__crt_stdio_output@@@2@@__crt_stdio_output@@AAEX_KI_N@Z 10061efe f i libucrt:output.obj
 0001:00060fb2       ??$type_case_integer_parse_into_buffer@_K@?$output_processor@DV?$string_output_adapter@D@__crt_stdio_output@@V?$standard_base@DV?$string_output_adapter@D@__crt_stdio_output@@@2@@__crt_stdio_output@@AAEX_KI_N@Z 10061fb2 f i libucrt:output.obj
 0001:00061066       ??$type_case_integer_parse_into_buffer@_K@?$output_processor@_WV?$stream_output_adapter@_W@__crt_stdio_output@@V?$format_validation_base@_WV?$stream_output_adapter@_W@__crt_stdio_output@@@2@@__crt_stdio_output@@AAEX_KI_N@Z 10062066 f i libucrt:output.obj
 0001:00061133       ??$type_case_integer_parse_into_buffer@_K@?$output_processor@_WV?$stream_output_adapter@_W@__crt_stdio_output@@V?$positional_parameter_base@_WV?$stream_output_adapter@_W@__crt_stdio_output@@@2@@__crt_stdio_output@@AAEX_KI_N@Z 10062133 f i libucrt:output.obj
 0001:00061200       ??$type_case_integer_parse_into_buffer@_K@?$output_processor@_WV?$stream_output_adapter@_W@__crt_stdio_output@@V?$standard_base@_WV?$stream_output_adapter@_W@__crt_stdio_output@@@2@@__crt_stdio_output@@AAEX_KI_N@Z 10062200 f i libucrt:output.obj
 0001:000612cd       ??$type_case_integer_parse_into_buffer@_K@?$output_processor@_WV?$string_output_adapter@_W@__crt_stdio_output@@V?$format_validation_base@_WV?$string_output_adapter@_W@__crt_stdio_output@@@2@@__crt_stdio_output@@AAEX_KI_N@Z 100622cd f i libucrt:output.obj
 0001:0006139a       ??$type_case_integer_parse_into_buffer@_K@?$output_processor@_WV?$string_output_adapter@_W@__crt_stdio_output@@V?$positional_parameter_base@_WV?$string_output_adapter@_W@__crt_stdio_output@@@2@@__crt_stdio_output@@AAEX_KI_N@Z 1006239a f i libucrt:output.obj
 0001:00061467       ??$type_case_integer_parse_into_buffer@_K@?$output_processor@_WV?$string_output_adapter@_W@__crt_stdio_output@@V?$standard_base@_WV?$string_output_adapter@_W@__crt_stdio_output@@@2@@__crt_stdio_output@@AAEX_KI_N@Z 10062467 f i libucrt:output.obj
 0001:00061534       ??$write_multiple_characters@V?$stream_output_adapter@D@__crt_stdio_output@@D@__crt_stdio_output@@YAXABV?$stream_output_adapter@D@0@DHQAH@Z 10062534 f i libucrt:output.obj
 0001:0006157d       ??$write_multiple_characters@V?$stream_output_adapter@_W@__crt_stdio_output@@D@__crt_stdio_output@@YAXABV?$stream_output_adapter@_W@0@DHQAH@Z 1006257d f i libucrt:output.obj
 0001:000615cd       ??$write_multiple_characters@V?$string_output_adapter@D@__crt_stdio_output@@D@__crt_stdio_output@@YAXABV?$string_output_adapter@D@0@DHQAH@Z 100625cd f i libucrt:output.obj
 0001:00061604       ??$write_multiple_characters@V?$string_output_adapter@_W@__crt_stdio_output@@D@__crt_stdio_output@@YAXABV?$string_output_adapter@_W@0@DHQAH@Z 10062604 f i libucrt:output.obj
 0001:00061875       ??0?$common_data@D@__crt_stdio_output@@IAE@XZ 10062875 f i libucrt:output.obj
 0001:000618cd       ??0?$common_data@_W@__crt_stdio_output@@IAE@XZ 100628cd f i libucrt:output.obj
 0001:0006192c       ??0?$output_adapter_data@DV?$stream_output_adapter@D@__crt_stdio_output@@@__crt_stdio_output@@IAE@ABV?$stream_output_adapter@D@1@_KQBDQAU__crt_locale_pointers@@QAD@Z 1006292c f i libucrt:output.obj
 0001:00061977       ??0?$output_adapter_data@DV?$string_output_adapter@D@__crt_stdio_output@@@__crt_stdio_output@@IAE@ABV?$string_output_adapter@D@1@_KQBDQAU__crt_locale_pointers@@QAD@Z 10062977 f i libucrt:output.obj
 0001:000619c2       ??0?$output_adapter_data@_WV?$stream_output_adapter@_W@__crt_stdio_output@@@__crt_stdio_output@@IAE@ABV?$stream_output_adapter@_W@1@_KQB_WQAU__crt_locale_pointers@@QAD@Z 100629c2 f i libucrt:output.obj
 0001:00061a0d       ??0?$output_adapter_data@_WV?$string_output_adapter@_W@__crt_stdio_output@@@__crt_stdio_output@@IAE@ABV?$string_output_adapter@_W@1@_KQB_WQAU__crt_locale_pointers@@QAD@Z 10062a0d f i libucrt:output.obj
 0001:00061a58       ??0?$output_processor@DV?$stream_output_adapter@D@__crt_stdio_output@@V?$format_validation_base@DV?$stream_output_adapter@D@__crt_stdio_output@@@2@@__crt_stdio_output@@QAE@ABV?$stream_output_adapter@D@1@_KQBDQAU__crt_locale_pointers@@QAD@Z 10062a58 f i libucrt:output.obj
 0001:00061a90       ??0?$output_processor@DV?$stream_output_adapter@D@__crt_stdio_output@@V?$positional_parameter_base@DV?$stream_output_adapter@D@__crt_stdio_output@@@2@@__crt_stdio_output@@QAE@ABV?$stream_output_adapter@D@1@_KQBDQAU__crt_locale_pointers@@QAD@Z 10062a90 f i libucrt:output.obj
 0001:00061ac0       ??0?$output_processor@DV?$stream_output_adapter@D@__crt_stdio_output@@V?$standard_base@DV?$stream_output_adapter@D@__crt_stdio_output@@@2@@__crt_stdio_output@@QAE@ABV?$stream_output_adapter@D@1@_KQBDQAU__crt_locale_pointers@@QAD@Z 10062ac0 f i libucrt:output.obj
 0001:00061af8       ??0?$output_processor@DV?$string_output_adapter@D@__crt_stdio_output@@V?$format_validation_base@DV?$string_output_adapter@D@__crt_stdio_output@@@2@@__crt_stdio_output@@QAE@ABV?$string_output_adapter@D@1@_KQBDQAU__crt_locale_pointers@@QAD@Z 10062af8 f i libucrt:output.obj
 0001:00061b30       ??0?$output_processor@DV?$string_output_adapter@D@__crt_stdio_output@@V?$positional_parameter_base@DV?$string_output_adapter@D@__crt_stdio_output@@@2@@__crt_stdio_output@@QAE@ABV?$string_output_adapter@D@1@_KQBDQAU__crt_locale_pointers@@QAD@Z 10062b30 f i libucrt:output.obj
 0001:00061b60       ??0?$output_processor@DV?$string_output_adapter@D@__crt_stdio_output@@V?$standard_base@DV?$string_output_adapter@D@__crt_stdio_output@@@2@@__crt_stdio_output@@QAE@ABV?$string_output_adapter@D@1@_KQBDQAU__crt_locale_pointers@@QAD@Z 10062b60 f i libucrt:output.obj
 0001:00061b98       ??0?$output_processor@_WV?$stream_output_adapter@_W@__crt_stdio_output@@V?$format_validation_base@_WV?$stream_output_adapter@_W@__crt_stdio_output@@@2@@__crt_stdio_output@@QAE@ABV?$stream_output_adapter@_W@1@_KQB_WQAU__crt_locale_pointers@@QAD@Z 10062b98 f i libucrt:output.obj
 0001:00061bd0       ??0?$output_processor@_WV?$stream_output_adapter@_W@__crt_stdio_output@@V?$positional_parameter_base@_WV?$stream_output_adapter@_W@__crt_stdio_output@@@2@@__crt_stdio_output@@QAE@ABV?$stream_output_adapter@_W@1@_KQB_WQAU__crt_locale_pointers@@QAD@Z 10062bd0 f i libucrt:output.obj
 0001:00061c00       ??0?$output_processor@_WV?$stream_output_adapter@_W@__crt_stdio_output@@V?$standard_base@_WV?$stream_output_adapter@_W@__crt_stdio_output@@@2@@__crt_stdio_output@@QAE@ABV?$stream_output_adapter@_W@1@_KQB_WQAU__crt_locale_pointers@@QAD@Z 10062c00 f i libucrt:output.obj
 0001:00061c38       ??0?$output_processor@_WV?$string_output_adapter@_W@__crt_stdio_output@@V?$format_validation_base@_WV?$string_output_adapter@_W@__crt_stdio_output@@@2@@__crt_stdio_output@@QAE@ABV?$string_output_adapter@_W@1@_KQB_WQAU__crt_locale_pointers@@QAD@Z 10062c38 f i libucrt:output.obj
 0001:00061c70       ??0?$output_processor@_WV?$string_output_adapter@_W@__crt_stdio_output@@V?$positional_parameter_base@_WV?$string_output_adapter@_W@__crt_stdio_output@@@2@@__crt_stdio_output@@QAE@ABV?$string_output_adapter@_W@1@_KQB_WQAU__crt_locale_pointers@@QAD@Z 10062c70 f i libucrt:output.obj
 0001:00061ca0       ??0?$output_processor@_WV?$string_output_adapter@_W@__crt_stdio_output@@V?$standard_base@_WV?$string_output_adapter@_W@__crt_stdio_output@@@2@@__crt_stdio_output@@QAE@ABV?$string_output_adapter@_W@1@_KQB_WQAU__crt_locale_pointers@@QAD@Z 10062ca0 f i libucrt:output.obj
 0001:00061cd8       ??0?$stream_output_adapter@D@__crt_stdio_output@@QAE@QAU_iobuf@@@Z 10062cd8 f i libucrt:output.obj
 0001:00061cec       ??0?$stream_output_adapter@_W@__crt_stdio_output@@QAE@QAU_iobuf@@@Z 10062cec f i libucrt:output.obj
 0001:00061d00       ??0?$string_output_adapter@D@__crt_stdio_output@@QAE@QAU?$string_output_adapter_context@D@1@@Z 10062d00 f i libucrt:output.obj
 0001:00061d14       ??0?$string_output_adapter@_W@__crt_stdio_output@@QAE@QAU?$string_output_adapter_context@_W@1@@Z 10062d14 f i libucrt:output.obj
 0001:00061d28       ??0_LocaleUpdate@@QAE@QAU__crt_locale_pointers@@@Z 10062d28 f i libucrt:output.obj
 0001:00061dcb       ??0__acrt_stdio_temporary_buffering_guard@@QAE@QAU_iobuf@@@Z 10062dcb f i libucrt:output.obj
 0001:00061df0       ??0__crt_deferred_errno_cache@@QAE@XZ 10062df0 f i libucrt:output.obj
 0001:00061df6       ??0__crt_errno_guard@@QAE@QAH@Z 10062df6 f i libucrt:output.obj
 0001:00061e14       ??0formatting_buffer@__crt_stdio_output@@QAE@XZ 10062e14 f i libucrt:output.obj
 0001:00061e29       ??1?$common_data@D@__crt_stdio_output@@QAE@XZ 10062e29 f i libucrt:output.obj
 0001:00061e33       ??1?$common_data@_W@__crt_stdio_output@@QAE@XZ 10062e33 f i libucrt:output.obj
 0001:00061e3d       ??1?$format_validation_base@DV?$stream_output_adapter@D@__crt_stdio_output@@@__crt_stdio_output@@QAE@XZ 10062e3d f i libucrt:output.obj
 0001:00061e47       ??1?$format_validation_base@DV?$string_output_adapter@D@__crt_stdio_output@@@__crt_stdio_output@@QAE@XZ 10062e47 f i libucrt:output.obj
 0001:00061e51       ??1?$format_validation_base@_WV?$stream_output_adapter@_W@__crt_stdio_output@@@__crt_stdio_output@@QAE@XZ 10062e51 f i libucrt:output.obj
 0001:00061e5b       ??1?$format_validation_base@_WV?$string_output_adapter@_W@__crt_stdio_output@@@__crt_stdio_output@@QAE@XZ 10062e5b f i libucrt:output.obj
 0001:00061e65       ??1?$output_adapter_data@DV?$stream_output_adapter@D@__crt_stdio_output@@@__crt_stdio_output@@QAE@XZ 10062e65 f i libucrt:output.obj
 0001:00061e6f       ??1?$output_adapter_data@DV?$string_output_adapter@D@__crt_stdio_output@@@__crt_stdio_output@@QAE@XZ 10062e6f f i libucrt:output.obj
 0001:00061e79       ??1?$output_adapter_data@_WV?$stream_output_adapter@_W@__crt_stdio_output@@@__crt_stdio_output@@QAE@XZ 10062e79 f i libucrt:output.obj
 0001:00061e83       ??1?$output_adapter_data@_WV?$string_output_adapter@_W@__crt_stdio_output@@@__crt_stdio_output@@QAE@XZ 10062e83 f i libucrt:output.obj
 0001:00061e8d       ??1?$output_processor@DV?$stream_output_adapter@D@__crt_stdio_output@@V?$format_validation_base@DV?$stream_output_adapter@D@__crt_stdio_output@@@2@@__crt_stdio_output@@QAE@XZ 10062e8d f i libucrt:output.obj
 0001:00061e97       ??1?$output_processor@DV?$stream_output_adapter@D@__crt_stdio_output@@V?$positional_parameter_base@DV?$stream_output_adapter@D@__crt_stdio_output@@@2@@__crt_stdio_output@@QAE@XZ 10062e97 f i libucrt:output.obj
 0001:00061ea1       ??1?$output_processor@DV?$stream_output_adapter@D@__crt_stdio_output@@V?$standard_base@DV?$stream_output_adapter@D@__crt_stdio_output@@@2@@__crt_stdio_output@@QAE@XZ 10062ea1 f i libucrt:output.obj
 0001:00061eab       ??1?$output_processor@DV?$string_output_adapter@D@__crt_stdio_output@@V?$format_validation_base@DV?$string_output_adapter@D@__crt_stdio_output@@@2@@__crt_stdio_output@@QAE@XZ 10062eab f i libucrt:output.obj
 0001:00061eb5       ??1?$output_processor@DV?$string_output_adapter@D@__crt_stdio_output@@V?$positional_parameter_base@DV?$string_output_adapter@D@__crt_stdio_output@@@2@@__crt_stdio_output@@QAE@XZ 10062eb5 f i libucrt:output.obj
 0001:00061ebf       ??1?$output_processor@DV?$string_output_adapter@D@__crt_stdio_output@@V?$standard_base@DV?$string_output_adapter@D@__crt_stdio_output@@@2@@__crt_stdio_output@@QAE@XZ 10062ebf f i libucrt:output.obj
 0001:00061ec9       ??1?$output_processor@_WV?$stream_output_adapter@_W@__crt_stdio_output@@V?$format_validation_base@_WV?$stream_output_adapter@_W@__crt_stdio_output@@@2@@__crt_stdio_output@@QAE@XZ 10062ec9 f i libucrt:output.obj
 0001:00061ed3       ??1?$output_processor@_WV?$stream_output_adapter@_W@__crt_stdio_output@@V?$positional_parameter_base@_WV?$stream_output_adapter@_W@__crt_stdio_output@@@2@@__crt_stdio_output@@QAE@XZ 10062ed3 f i libucrt:output.obj
 0001:00061edd       ??1?$output_processor@_WV?$stream_output_adapter@_W@__crt_stdio_output@@V?$standard_base@_WV?$stream_output_adapter@_W@__crt_stdio_output@@@2@@__crt_stdio_output@@QAE@XZ 10062edd f i libucrt:output.obj
 0001:00061ee7       ??1?$output_processor@_WV?$string_output_adapter@_W@__crt_stdio_output@@V?$format_validation_base@_WV?$string_output_adapter@_W@__crt_stdio_output@@@2@@__crt_stdio_output@@QAE@XZ 10062ee7 f i libucrt:output.obj
 0001:00061ef1       ??1?$output_processor@_WV?$string_output_adapter@_W@__crt_stdio_output@@V?$positional_parameter_base@_WV?$string_output_adapter@_W@__crt_stdio_output@@@2@@__crt_stdio_output@@QAE@XZ 10062ef1 f i libucrt:output.obj
 0001:00061efb       ??1?$output_processor@_WV?$string_output_adapter@_W@__crt_stdio_output@@V?$standard_base@_WV?$string_output_adapter@_W@__crt_stdio_output@@@2@@__crt_stdio_output@@QAE@XZ 10062efb f i libucrt:output.obj
 0001:00061f05       ??1?$positional_parameter_base@DV?$stream_output_adapter@D@__crt_stdio_output@@@__crt_stdio_output@@QAE@XZ 10062f05 f i libucrt:output.obj
 0001:00061f0f       ??1?$positional_parameter_base@DV?$string_output_adapter@D@__crt_stdio_output@@@__crt_stdio_output@@QAE@XZ 10062f0f f i libucrt:output.obj
 0001:00061f19       ??1?$positional_parameter_base@_WV?$stream_output_adapter@_W@__crt_stdio_output@@@__crt_stdio_output@@QAE@XZ 10062f19 f i libucrt:output.obj
 0001:00061f23       ??1?$positional_parameter_base@_WV?$string_output_adapter@_W@__crt_stdio_output@@@__crt_stdio_output@@QAE@XZ 10062f23 f i libucrt:output.obj
 0001:00061f2d       ??1?$standard_base@DV?$stream_output_adapter@D@__crt_stdio_output@@@__crt_stdio_output@@QAE@XZ 10062f2d f i libucrt:output.obj
 0001:00061f37       ??1?$standard_base@DV?$string_output_adapter@D@__crt_stdio_output@@@__crt_stdio_output@@QAE@XZ 10062f37 f i libucrt:output.obj
 0001:00061f41       ??1?$standard_base@_WV?$stream_output_adapter@_W@__crt_stdio_output@@@__crt_stdio_output@@QAE@XZ 10062f41 f i libucrt:output.obj
 0001:00061f4b       ??1?$standard_base@_WV?$string_output_adapter@_W@__crt_stdio_output@@@__crt_stdio_output@@QAE@XZ 10062f4b f i libucrt:output.obj
 0001:00061f55       ??1_LocaleUpdate@@QAE@XZ   10062f55 f i libucrt:output.obj
 0001:00061f69       ??1__acrt_stdio_temporary_buffering_guard@@QAE@XZ 10062f69 f i libucrt:output.obj
 0001:00061f7b       ??1__crt_errno_guard@@QAE@XZ 10062f7b f i libucrt:output.obj
 0001:00061f90       ??1formatting_buffer@__crt_stdio_output@@QAE@XZ 10062f90 f i libucrt:output.obj
 0001:00061fb0       ??4?$__crt_unique_heap_ptr@DU__crt_internal_free_policy@@@@QAEAAV0@$$QAV0@@Z 10062fb0 f i libucrt:output.obj
 0001:0006268b       ?GetLocaleT@_LocaleUpdate@@QAEPAU__crt_locale_pointers@@XZ 1006368b f i libucrt:output.obj
 0001:0006268f       ?adjust_hexit@?$output_processor@DV?$stream_output_adapter@D@__crt_stdio_output@@V?$format_validation_base@DV?$stream_output_adapter@D@__crt_stdio_output@@@2@@__crt_stdio_output@@CADH_N@Z 1006368f f i libucrt:output.obj
 0001:000626a8       ?adjust_hexit@?$output_processor@DV?$stream_output_adapter@D@__crt_stdio_output@@V?$positional_parameter_base@DV?$stream_output_adapter@D@__crt_stdio_output@@@2@@__crt_stdio_output@@CADH_N@Z 100636a8 f i libucrt:output.obj
 0001:000626c1       ?adjust_hexit@?$output_processor@DV?$stream_output_adapter@D@__crt_stdio_output@@V?$standard_base@DV?$stream_output_adapter@D@__crt_stdio_output@@@2@@__crt_stdio_output@@CADH_N@Z 100636c1 f i libucrt:output.obj
 0001:000626da       ?adjust_hexit@?$output_processor@DV?$string_output_adapter@D@__crt_stdio_output@@V?$format_validation_base@DV?$string_output_adapter@D@__crt_stdio_output@@@2@@__crt_stdio_output@@CADH_N@Z 100636da f i libucrt:output.obj
 0001:000626f3       ?adjust_hexit@?$output_processor@DV?$string_output_adapter@D@__crt_stdio_output@@V?$positional_parameter_base@DV?$string_output_adapter@D@__crt_stdio_output@@@2@@__crt_stdio_output@@CADH_N@Z 100636f3 f i libucrt:output.obj
 0001:0006270c       ?adjust_hexit@?$output_processor@DV?$string_output_adapter@D@__crt_stdio_output@@V?$standard_base@DV?$string_output_adapter@D@__crt_stdio_output@@@2@@__crt_stdio_output@@CADH_N@Z 1006370c f i libucrt:output.obj
 0001:00062725       ?adjust_hexit@?$output_processor@_WV?$stream_output_adapter@_W@__crt_stdio_output@@V?$format_validation_base@_WV?$stream_output_adapter@_W@__crt_stdio_output@@@2@@__crt_stdio_output@@CADH_N@Z 10063725 f i libucrt:output.obj
 0001:0006273e       ?adjust_hexit@?$output_processor@_WV?$stream_output_adapter@_W@__crt_stdio_output@@V?$positional_parameter_base@_WV?$stream_output_adapter@_W@__crt_stdio_output@@@2@@__crt_stdio_output@@CADH_N@Z 1006373e f i libucrt:output.obj
 0001:00062757       ?adjust_hexit@?$output_processor@_WV?$stream_output_adapter@_W@__crt_stdio_output@@V?$standard_base@_WV?$stream_output_adapter@_W@__crt_stdio_output@@@2@@__crt_stdio_output@@CADH_N@Z 10063757 f i libucrt:output.obj
 0001:00062770       ?adjust_hexit@?$output_processor@_WV?$string_output_adapter@_W@__crt_stdio_output@@V?$format_validation_base@_WV?$string_output_adapter@_W@__crt_stdio_output@@@2@@__crt_stdio_output@@CADH_N@Z 10063770 f i libucrt:output.obj
 0001:00062789       ?adjust_hexit@?$output_processor@_WV?$string_output_adapter@_W@__crt_stdio_output@@V?$positional_parameter_base@_WV?$string_output_adapter@_W@__crt_stdio_output@@@2@@__crt_stdio_output@@CADH_N@Z 10063789 f i libucrt:output.obj
 0001:000627a2       ?adjust_hexit@?$output_processor@_WV?$string_output_adapter@_W@__crt_stdio_output@@V?$standard_base@_WV?$string_output_adapter@_W@__crt_stdio_output@@@2@@__crt_stdio_output@@CADH_N@Z 100637a2 f i libucrt:output.obj
 0001:000627bb       ?advance_to_next_pass@?$positional_parameter_base@DV?$stream_output_adapter@D@__crt_stdio_output@@@__crt_stdio_output@@IAE_NXZ 100637bb f i libucrt:output.obj
 0001:0006281a       ?advance_to_next_pass@?$positional_parameter_base@DV?$string_output_adapter@D@__crt_stdio_output@@@__crt_stdio_output@@IAE_NXZ 1006381a f i libucrt:output.obj
 0001:00062879       ?advance_to_next_pass@?$positional_parameter_base@_WV?$stream_output_adapter@_W@__crt_stdio_output@@@__crt_stdio_output@@IAE_NXZ 10063879 f i libucrt:output.obj
 0001:000628d8       ?advance_to_next_pass@?$positional_parameter_base@_WV?$string_output_adapter@_W@__crt_stdio_output@@@__crt_stdio_output@@IAE_NXZ 100638d8 f i libucrt:output.obj
 0001:00062937       ?advance_to_next_pass@?$standard_base@DV?$stream_output_adapter@D@__crt_stdio_output@@@__crt_stdio_output@@IAE_NXZ 10063937 f i libucrt:output.obj
 0001:0006294c       ?advance_to_next_pass@?$standard_base@DV?$string_output_adapter@D@__crt_stdio_output@@@__crt_stdio_output@@IAE_NXZ 1006394c f i libucrt:output.obj
 0001:00062961       ?advance_to_next_pass@?$standard_base@_WV?$stream_output_adapter@_W@__crt_stdio_output@@@__crt_stdio_output@@IAE_NXZ 10063961 f i libucrt:output.obj
 0001:00062976       ?advance_to_next_pass@?$standard_base@_WV?$string_output_adapter@_W@__crt_stdio_output@@@__crt_stdio_output@@IAE_NXZ 10063976 f i libucrt:output.obj
 0001:0006298b       ?crop_zeroes@__crt_stdio_output@@YAXPADQAU__crt_locale_pointers@@@Z 1006398b f i libucrt:output.obj
 0001:00062a03       ?find_next_state@?$output_processor@DV?$stream_output_adapter@D@__crt_stdio_output@@V?$format_validation_base@DV?$stream_output_adapter@D@__crt_stdio_output@@@2@@__crt_stdio_output@@ABE?AW4state@2@DW432@@Z 10063a03 f i libucrt:output.obj
 0001:00062a55       ?find_next_state@?$output_processor@DV?$stream_output_adapter@D@__crt_stdio_output@@V?$positional_parameter_base@DV?$stream_output_adapter@D@__crt_stdio_output@@@2@@__crt_stdio_output@@ABE?AW4state@2@DW432@@Z 10063a55 f i libucrt:output.obj
 0001:00062aa7       ?find_next_state@?$output_processor@DV?$stream_output_adapter@D@__crt_stdio_output@@V?$standard_base@DV?$stream_output_adapter@D@__crt_stdio_output@@@2@@__crt_stdio_output@@ABE?AW4state@2@DW432@@Z 10063aa7 f i libucrt:output.obj
 0001:00062af5       ?find_next_state@?$output_processor@DV?$string_output_adapter@D@__crt_stdio_output@@V?$format_validation_base@DV?$string_output_adapter@D@__crt_stdio_output@@@2@@__crt_stdio_output@@ABE?AW4state@2@DW432@@Z 10063af5 f i libucrt:output.obj
 0001:00062b47       ?find_next_state@?$output_processor@DV?$string_output_adapter@D@__crt_stdio_output@@V?$positional_parameter_base@DV?$string_output_adapter@D@__crt_stdio_output@@@2@@__crt_stdio_output@@ABE?AW4state@2@DW432@@Z 10063b47 f i libucrt:output.obj
 0001:00062b99       ?find_next_state@?$output_processor@DV?$string_output_adapter@D@__crt_stdio_output@@V?$standard_base@DV?$string_output_adapter@D@__crt_stdio_output@@@2@@__crt_stdio_output@@ABE?AW4state@2@DW432@@Z 10063b99 f i libucrt:output.obj
 0001:00062be7       ?find_next_state@?$output_processor@_WV?$stream_output_adapter@_W@__crt_stdio_output@@V?$format_validation_base@_WV?$stream_output_adapter@_W@__crt_stdio_output@@@2@@__crt_stdio_output@@ABE?AW4state@2@_WW432@@Z 10063be7 f i libucrt:output.obj
 0001:00062c3c       ?find_next_state@?$output_processor@_WV?$stream_output_adapter@_W@__crt_stdio_output@@V?$positional_parameter_base@_WV?$stream_output_adapter@_W@__crt_stdio_output@@@2@@__crt_stdio_output@@ABE?AW4state@2@_WW432@@Z 10063c3c f i libucrt:output.obj
 0001:00062c91       ?find_next_state@?$output_processor@_WV?$stream_output_adapter@_W@__crt_stdio_output@@V?$standard_base@_WV?$stream_output_adapter@_W@__crt_stdio_output@@@2@@__crt_stdio_output@@ABE?AW4state@2@_WW432@@Z 10063c91 f i libucrt:output.obj
 0001:00062ce2       ?find_next_state@?$output_processor@_WV?$string_output_adapter@_W@__crt_stdio_output@@V?$format_validation_base@_WV?$string_output_adapter@_W@__crt_stdio_output@@@2@@__crt_stdio_output@@ABE?AW4state@2@_WW432@@Z 10063ce2 f i libucrt:output.obj
 0001:00062d37       ?find_next_state@?$output_processor@_WV?$string_output_adapter@_W@__crt_stdio_output@@V?$positional_parameter_base@_WV?$string_output_adapter@_W@__crt_stdio_output@@@2@@__crt_stdio_output@@ABE?AW4state@2@_WW432@@Z 10063d37 f i libucrt:output.obj
 0001:00062d8c       ?find_next_state@?$output_processor@_WV?$string_output_adapter@_W@__crt_stdio_output@@V?$standard_base@_WV?$string_output_adapter@_W@__crt_stdio_output@@@2@@__crt_stdio_output@@ABE?AW4state@2@_WW432@@Z 10063d8c f i libucrt:output.obj
 0001:00062ddd       ?force_decimal_point@__crt_stdio_output@@YAXPADQAU__crt_locale_pointers@@@Z 10063ddd f i libucrt:output.obj
 0001:00062e50       ?get@__crt_deferred_errno_cache@@QAEAAHXZ 10063e50 f i libucrt:output.obj
 0001:00062e69       ?get_flags@__crt_stdio_stream@@QBEJXZ 10063e69 f i libucrt:output.obj
 0001:00062e70       ?get_parameter_type@?$positional_parameter_base@DV?$stream_output_adapter@D@__crt_stdio_output@@@__crt_stdio_output@@CA?AW4parameter_type@12@F@Z 10063e70 f i libucrt:output.obj
 0001:00062e74       ?get_parameter_type@?$positional_parameter_base@DV?$stream_output_adapter@D@__crt_stdio_output@@@__crt_stdio_output@@CA?AW4parameter_type@12@G@Z 10063e74 f i libucrt:output.obj
 0001:00062e78       ?get_parameter_type@?$positional_parameter_base@DV?$stream_output_adapter@D@__crt_stdio_output@@@__crt_stdio_output@@CA?AW4parameter_type@12@H@Z 10063e78 f i libucrt:output.obj
 0001:00062e7c       ?get_parameter_type@?$positional_parameter_base@DV?$stream_output_adapter@D@__crt_stdio_output@@@__crt_stdio_output@@CA?AW4parameter_type@12@I@Z 10063e7c f i libucrt:output.obj
 0001:00062e80       ?get_parameter_type@?$positional_parameter_base@DV?$stream_output_adapter@D@__crt_stdio_output@@@__crt_stdio_output@@CA?AW4parameter_type@12@U_CRT_DOUBLE@@@Z 10063e80 f i libucrt:output.obj
 0001:00062e84       ?get_parameter_type@?$positional_parameter_base@DV?$stream_output_adapter@D@__crt_stdio_output@@@__crt_stdio_output@@CA?AW4parameter_type@12@_J@Z 10063e84 f i libucrt:output.obj
 0001:00062e88       ?get_parameter_type@?$positional_parameter_base@DV?$stream_output_adapter@D@__crt_stdio_output@@@__crt_stdio_output@@CA?AW4parameter_type@12@_K@Z 10063e88 f i libucrt:output.obj
 0001:00062e8c       ?get_parameter_type@?$positional_parameter_base@DV?$stream_output_adapter@D@__crt_stdio_output@@@__crt_stdio_output@@CA?AW4parameter_type@12@_W@Z 10063e8c f i libucrt:output.obj
 0001:00062e90       ?get_parameter_type@?$positional_parameter_base@DV?$string_output_adapter@D@__crt_stdio_output@@@__crt_stdio_output@@CA?AW4parameter_type@12@F@Z 10063e90 f i libucrt:output.obj
 0001:00062e94       ?get_parameter_type@?$positional_parameter_base@DV?$string_output_adapter@D@__crt_stdio_output@@@__crt_stdio_output@@CA?AW4parameter_type@12@G@Z 10063e94 f i libucrt:output.obj
 0001:00062e98       ?get_parameter_type@?$positional_parameter_base@DV?$string_output_adapter@D@__crt_stdio_output@@@__crt_stdio_output@@CA?AW4parameter_type@12@H@Z 10063e98 f i libucrt:output.obj
 0001:00062e9c       ?get_parameter_type@?$positional_parameter_base@DV?$string_output_adapter@D@__crt_stdio_output@@@__crt_stdio_output@@CA?AW4parameter_type@12@I@Z 10063e9c f i libucrt:output.obj
 0001:00062ea0       ?get_parameter_type@?$positional_parameter_base@DV?$string_output_adapter@D@__crt_stdio_output@@@__crt_stdio_output@@CA?AW4parameter_type@12@U_CRT_DOUBLE@@@Z 10063ea0 f i libucrt:output.obj
 0001:00062ea4       ?get_parameter_type@?$positional_parameter_base@DV?$string_output_adapter@D@__crt_stdio_output@@@__crt_stdio_output@@CA?AW4parameter_type@12@_J@Z 10063ea4 f i libucrt:output.obj
 0001:00062ea8       ?get_parameter_type@?$positional_parameter_base@DV?$string_output_adapter@D@__crt_stdio_output@@@__crt_stdio_output@@CA?AW4parameter_type@12@_K@Z 10063ea8 f i libucrt:output.obj
 0001:00062eac       ?get_parameter_type@?$positional_parameter_base@DV?$string_output_adapter@D@__crt_stdio_output@@@__crt_stdio_output@@CA?AW4parameter_type@12@_W@Z 10063eac f i libucrt:output.obj
 0001:00062eb0       ?get_parameter_type@?$positional_parameter_base@_WV?$stream_output_adapter@_W@__crt_stdio_output@@@__crt_stdio_output@@CA?AW4parameter_type@12@F@Z 10063eb0 f i libucrt:output.obj
 0001:00062eb4       ?get_parameter_type@?$positional_parameter_base@_WV?$stream_output_adapter@_W@__crt_stdio_output@@@__crt_stdio_output@@CA?AW4parameter_type@12@G@Z 10063eb4 f i libucrt:output.obj
 0001:00062eb8       ?get_parameter_type@?$positional_parameter_base@_WV?$stream_output_adapter@_W@__crt_stdio_output@@@__crt_stdio_output@@CA?AW4parameter_type@12@H@Z 10063eb8 f i libucrt:output.obj
 0001:00062ebc       ?get_parameter_type@?$positional_parameter_base@_WV?$stream_output_adapter@_W@__crt_stdio_output@@@__crt_stdio_output@@CA?AW4parameter_type@12@I@Z 10063ebc f i libucrt:output.obj
 0001:00062ec0       ?get_parameter_type@?$positional_parameter_base@_WV?$stream_output_adapter@_W@__crt_stdio_output@@@__crt_stdio_output@@CA?AW4parameter_type@12@U_CRT_DOUBLE@@@Z 10063ec0 f i libucrt:output.obj
 0001:00062ec4       ?get_parameter_type@?$positional_parameter_base@_WV?$stream_output_adapter@_W@__crt_stdio_output@@@__crt_stdio_output@@CA?AW4parameter_type@12@_J@Z 10063ec4 f i libucrt:output.obj
 0001:00062ec8       ?get_parameter_type@?$positional_parameter_base@_WV?$stream_output_adapter@_W@__crt_stdio_output@@@__crt_stdio_output@@CA?AW4parameter_type@12@_K@Z 10063ec8 f i libucrt:output.obj
 0001:00062ecc       ?get_parameter_type@?$positional_parameter_base@_WV?$stream_output_adapter@_W@__crt_stdio_output@@@__crt_stdio_output@@CA?AW4parameter_type@12@_W@Z 10063ecc f i libucrt:output.obj
 0001:00062ed0       ?get_parameter_type@?$positional_parameter_base@_WV?$string_output_adapter@_W@__crt_stdio_output@@@__crt_stdio_output@@CA?AW4parameter_type@12@F@Z 10063ed0 f i libucrt:output.obj
 0001:00062ed4       ?get_parameter_type@?$positional_parameter_base@_WV?$string_output_adapter@_W@__crt_stdio_output@@@__crt_stdio_output@@CA?AW4parameter_type@12@G@Z 10063ed4 f i libucrt:output.obj
 0001:00062ed8       ?get_parameter_type@?$positional_parameter_base@_WV?$string_output_adapter@_W@__crt_stdio_output@@@__crt_stdio_output@@CA?AW4parameter_type@12@H@Z 10063ed8 f i libucrt:output.obj
 0001:00062edc       ?get_parameter_type@?$positional_parameter_base@_WV?$string_output_adapter@_W@__crt_stdio_output@@@__crt_stdio_output@@CA?AW4parameter_type@12@I@Z 10063edc f i libucrt:output.obj
 0001:00062ee0       ?get_parameter_type@?$positional_parameter_base@_WV?$string_output_adapter@_W@__crt_stdio_output@@@__crt_stdio_output@@CA?AW4parameter_type@12@U_CRT_DOUBLE@@@Z 10063ee0 f i libucrt:output.obj
 0001:00062ee4       ?get_parameter_type@?$positional_parameter_base@_WV?$string_output_adapter@_W@__crt_stdio_output@@@__crt_stdio_output@@CA?AW4parameter_type@12@_J@Z 10063ee4 f i libucrt:output.obj
 0001:00062ee8       ?get_parameter_type@?$positional_parameter_base@_WV?$string_output_adapter@_W@__crt_stdio_output@@@__crt_stdio_output@@CA?AW4parameter_type@12@_K@Z 10063ee8 f i libucrt:output.obj
 0001:00062eec       ?get_parameter_type@?$positional_parameter_base@_WV?$string_output_adapter@_W@__crt_stdio_output@@@__crt_stdio_output@@CA?AW4parameter_type@12@_W@Z 10063eec f i libucrt:output.obj
 0001:00062ef0       ?has_flag@?$output_processor@DV?$stream_output_adapter@D@__crt_stdio_output@@V?$format_validation_base@DV?$stream_output_adapter@D@__crt_stdio_output@@@2@@__crt_stdio_output@@ABE_NI@Z 10063ef0 f i libucrt:output.obj
 0001:00062f06       ?has_flag@?$output_processor@DV?$stream_output_adapter@D@__crt_stdio_output@@V?$positional_parameter_base@DV?$stream_output_adapter@D@__crt_stdio_output@@@2@@__crt_stdio_output@@ABE_NI@Z 10063f06 f i libucrt:output.obj
 0001:00062f1c       ?has_flag@?$output_processor@DV?$stream_output_adapter@D@__crt_stdio_output@@V?$standard_base@DV?$stream_output_adapter@D@__crt_stdio_output@@@2@@__crt_stdio_output@@ABE_NI@Z 10063f1c f i libucrt:output.obj
 0001:00062f32       ?has_flag@?$output_processor@DV?$string_output_adapter@D@__crt_stdio_output@@V?$format_validation_base@DV?$string_output_adapter@D@__crt_stdio_output@@@2@@__crt_stdio_output@@ABE_NI@Z 10063f32 f i libucrt:output.obj
 0001:00062f48       ?has_flag@?$output_processor@DV?$string_output_adapter@D@__crt_stdio_output@@V?$positional_parameter_base@DV?$string_output_adapter@D@__crt_stdio_output@@@2@@__crt_stdio_output@@ABE_NI@Z 10063f48 f i libucrt:output.obj
 0001:00062f5e       ?has_flag@?$output_processor@DV?$string_output_adapter@D@__crt_stdio_output@@V?$standard_base@DV?$string_output_adapter@D@__crt_stdio_output@@@2@@__crt_stdio_output@@ABE_NI@Z 10063f5e f i libucrt:output.obj
 0001:00062f74       ?has_flag@?$output_processor@_WV?$stream_output_adapter@_W@__crt_stdio_output@@V?$format_validation_base@_WV?$stream_output_adapter@_W@__crt_stdio_output@@@2@@__crt_stdio_output@@ABE_NI@Z 10063f74 f i libucrt:output.obj
 0001:00062f8a       ?has_flag@?$output_processor@_WV?$stream_output_adapter@_W@__crt_stdio_output@@V?$positional_parameter_base@_WV?$stream_output_adapter@_W@__crt_stdio_output@@@2@@__crt_stdio_output@@ABE_NI@Z 10063f8a f i libucrt:output.obj
 0001:00062fa0       ?has_flag@?$output_processor@_WV?$stream_output_adapter@_W@__crt_stdio_output@@V?$standard_base@_WV?$stream_output_adapter@_W@__crt_stdio_output@@@2@@__crt_stdio_output@@ABE_NI@Z 10063fa0 f i libucrt:output.obj
 0001:00062fb6       ?has_flag@?$output_processor@_WV?$string_output_adapter@_W@__crt_stdio_output@@V?$format_validation_base@_WV?$string_output_adapter@_W@__crt_stdio_output@@@2@@__crt_stdio_output@@ABE_NI@Z 10063fb6 f i libucrt:output.obj
 0001:00062fcc       ?has_flag@?$output_processor@_WV?$string_output_adapter@_W@__crt_stdio_output@@V?$positional_parameter_base@_WV?$string_output_adapter@_W@__crt_stdio_output@@@2@@__crt_stdio_output@@ABE_NI@Z 10063fcc f i libucrt:output.obj
 0001:00062fe2       ?has_flag@?$output_processor@_WV?$string_output_adapter@_W@__crt_stdio_output@@V?$standard_base@_WV?$string_output_adapter@_W@__crt_stdio_output@@@2@@__crt_stdio_output@@ABE_NI@Z 10063fe2 f i libucrt:output.obj
 0001:00062ff8       ?is_positional_parameter_reappearance_consistent@?$positional_parameter_base@DV?$stream_output_adapter@D@__crt_stdio_output@@@__crt_stdio_output@@AAE_NABUparameter_data@12@W4parameter_type@12@DW4length_modifier@2@@Z 10063ff8 f i libucrt:output.obj
 0001:00063158       ?is_positional_parameter_reappearance_consistent@?$positional_parameter_base@DV?$string_output_adapter@D@__crt_stdio_output@@@__crt_stdio_output@@AAE_NABUparameter_data@12@W4parameter_type@12@DW4length_modifier@2@@Z 10064158 f i libucrt:output.obj
 0001:000632b8       ?is_positional_parameter_reappearance_consistent@?$positional_parameter_base@_WV?$stream_output_adapter@_W@__crt_stdio_output@@@__crt_stdio_output@@AAE_NABUparameter_data@12@W4parameter_type@12@_WW4length_modifier@2@@Z 100642b8 f i libucrt:output.obj
 0001:00063418       ?is_positional_parameter_reappearance_consistent@?$positional_parameter_base@_WV?$string_output_adapter@_W@__crt_stdio_output@@@__crt_stdio_output@@AAE_NABUparameter_data@12@W4parameter_type@12@_WW4length_modifier@2@@Z 10064418 f i libucrt:output.obj
 0001:00063578       ?is_string_backed@__crt_stdio_stream@@QBE_NXZ 10064578 f i libucrt:output.obj
 0001:00063587       ?narrow_null_string@?$output_processor@DV?$stream_output_adapter@D@__crt_stdio_output@@V?$format_validation_base@DV?$stream_output_adapter@D@__crt_stdio_output@@@2@@__crt_stdio_output@@CAPADXZ 10064587 f i libucrt:output.obj
 0001:0006358d       ?narrow_null_string@?$output_processor@DV?$stream_output_adapter@D@__crt_stdio_output@@V?$positional_parameter_base@DV?$stream_output_adapter@D@__crt_stdio_output@@@2@@__crt_stdio_output@@CAPADXZ 1006458d f i libucrt:output.obj
 0001:00063593       ?narrow_null_string@?$output_processor@DV?$stream_output_adapter@D@__crt_stdio_output@@V?$standard_base@DV?$stream_output_adapter@D@__crt_stdio_output@@@2@@__crt_stdio_output@@CAPADXZ 10064593 f i libucrt:output.obj
 0001:00063599       ?narrow_null_string@?$output_processor@DV?$string_output_adapter@D@__crt_stdio_output@@V?$format_validation_base@DV?$string_output_adapter@D@__crt_stdio_output@@@2@@__crt_stdio_output@@CAPADXZ 10064599 f i libucrt:output.obj
 0001:0006359f       ?narrow_null_string@?$output_processor@DV?$string_output_adapter@D@__crt_stdio_output@@V?$positional_parameter_base@DV?$string_output_adapter@D@__crt_stdio_output@@@2@@__crt_stdio_output@@CAPADXZ 1006459f f i libucrt:output.obj
 0001:000635a5       ?narrow_null_string@?$output_processor@DV?$string_output_adapter@D@__crt_stdio_output@@V?$standard_base@DV?$string_output_adapter@D@__crt_stdio_output@@@2@@__crt_stdio_output@@CAPADXZ 100645a5 f i libucrt:output.obj
 0001:000635ab       ?narrow_null_string@?$output_processor@_WV?$stream_output_adapter@_W@__crt_stdio_output@@V?$format_validation_base@_WV?$stream_output_adapter@_W@__crt_stdio_output@@@2@@__crt_stdio_output@@CAPADXZ 100645ab f i libucrt:output.obj
 0001:000635b1       ?narrow_null_string@?$output_processor@_WV?$stream_output_adapter@_W@__crt_stdio_output@@V?$positional_parameter_base@_WV?$stream_output_adapter@_W@__crt_stdio_output@@@2@@__crt_stdio_output@@CAPADXZ 100645b1 f i libucrt:output.obj
 0001:000635b7       ?narrow_null_string@?$output_processor@_WV?$stream_output_adapter@_W@__crt_stdio_output@@V?$standard_base@_WV?$stream_output_adapter@_W@__crt_stdio_output@@@2@@__crt_stdio_output@@CAPADXZ 100645b7 f i libucrt:output.obj
 0001:000635bd       ?narrow_null_string@?$output_processor@_WV?$string_output_adapter@_W@__crt_stdio_output@@V?$format_validation_base@_WV?$string_output_adapter@_W@__crt_stdio_output@@@2@@__crt_stdio_output@@CAPADXZ 100645bd f i libucrt:output.obj
 0001:000635c3       ?narrow_null_string@?$output_processor@_WV?$string_output_adapter@_W@__crt_stdio_output@@V?$positional_parameter_base@_WV?$string_output_adapter@_W@__crt_stdio_output@@@2@@__crt_stdio_output@@CAPADXZ 100645c3 f i libucrt:output.obj
 0001:000635c9       ?narrow_null_string@?$output_processor@_WV?$string_output_adapter@_W@__crt_stdio_output@@V?$standard_base@_WV?$string_output_adapter@_W@__crt_stdio_output@@@2@@__crt_stdio_output@@CAPADXZ 100645c9 f i libucrt:output.obj
 0001:000635cf       ?parse_int_from_format_string@?$output_processor@DV?$stream_output_adapter@D@__crt_stdio_output@@V?$format_validation_base@DV?$stream_output_adapter@D@__crt_stdio_output@@@2@@__crt_stdio_output@@AAE_NQAH@Z 100645cf f i libucrt:output.obj
 0001:00063662       ?parse_int_from_format_string@?$output_processor@DV?$stream_output_adapter@D@__crt_stdio_output@@V?$positional_parameter_base@DV?$stream_output_adapter@D@__crt_stdio_output@@@2@@__crt_stdio_output@@AAE_NQAH@Z 10064662 f i libucrt:output.obj
 0001:000636f5       ?parse_int_from_format_string@?$output_processor@DV?$stream_output_adapter@D@__crt_stdio_output@@V?$standard_base@DV?$stream_output_adapter@D@__crt_stdio_output@@@2@@__crt_stdio_output@@AAE_NQAH@Z 100646f5 f i libucrt:output.obj
 0001:00063788       ?parse_int_from_format_string@?$output_processor@DV?$string_output_adapter@D@__crt_stdio_output@@V?$format_validation_base@DV?$string_output_adapter@D@__crt_stdio_output@@@2@@__crt_stdio_output@@AAE_NQAH@Z 10064788 f i libucrt:output.obj
 0001:0006381b       ?parse_int_from_format_string@?$output_processor@DV?$string_output_adapter@D@__crt_stdio_output@@V?$positional_parameter_base@DV?$string_output_adapter@D@__crt_stdio_output@@@2@@__crt_stdio_output@@AAE_NQAH@Z 1006481b f i libucrt:output.obj
 0001:000638ae       ?parse_int_from_format_string@?$output_processor@DV?$string_output_adapter@D@__crt_stdio_output@@V?$standard_base@DV?$string_output_adapter@D@__crt_stdio_output@@@2@@__crt_stdio_output@@AAE_NQAH@Z 100648ae f i libucrt:output.obj
 0001:00063941       ?parse_int_from_format_string@?$output_processor@_WV?$stream_output_adapter@_W@__crt_stdio_output@@V?$format_validation_base@_WV?$stream_output_adapter@_W@__crt_stdio_output@@@2@@__crt_stdio_output@@AAE_NQAH@Z 10064941 f i libucrt:output.obj
 0001:000639d7       ?parse_int_from_format_string@?$output_processor@_WV?$stream_output_adapter@_W@__crt_stdio_output@@V?$positional_parameter_base@_WV?$stream_output_adapter@_W@__crt_stdio_output@@@2@@__crt_stdio_output@@AAE_NQAH@Z 100649d7 f i libucrt:output.obj
 0001:00063a6d       ?parse_int_from_format_string@?$output_processor@_WV?$stream_output_adapter@_W@__crt_stdio_output@@V?$standard_base@_WV?$stream_output_adapter@_W@__crt_stdio_output@@@2@@__crt_stdio_output@@AAE_NQAH@Z 10064a6d f i libucrt:output.obj
 0001:00063b03       ?parse_int_from_format_string@?$output_processor@_WV?$string_output_adapter@_W@__crt_stdio_output@@V?$format_validation_base@_WV?$string_output_adapter@_W@__crt_stdio_output@@@2@@__crt_stdio_output@@AAE_NQAH@Z 10064b03 f i libucrt:output.obj
 0001:00063b99       ?parse_int_from_format_string@?$output_processor@_WV?$string_output_adapter@_W@__crt_stdio_output@@V?$positional_parameter_base@_WV?$string_output_adapter@_W@__crt_stdio_output@@@2@@__crt_stdio_output@@AAE_NQAH@Z 10064b99 f i libucrt:output.obj
 0001:00063c2f       ?parse_int_from_format_string@?$output_processor@_WV?$string_output_adapter@_W@__crt_stdio_output@@V?$standard_base@_WV?$string_output_adapter@_W@__crt_stdio_output@@@2@@__crt_stdio_output@@AAE_NQAH@Z 10064c2f f i libucrt:output.obj
 0001:00063cc5       ?process@?$output_processor@DV?$stream_output_adapter@D@__crt_stdio_output@@V?$format_validation_base@DV?$stream_output_adapter@D@__crt_stdio_output@@@2@@__crt_stdio_output@@QAEHXZ 10064cc5 f i libucrt:output.obj
 0001:00063e32       ?process@?$output_processor@DV?$stream_output_adapter@D@__crt_stdio_output@@V?$positional_parameter_base@DV?$stream_output_adapter@D@__crt_stdio_output@@@2@@__crt_stdio_output@@QAEHXZ 10064e32 f i libucrt:output.obj
 0001:00063fae       ?process@?$output_processor@DV?$stream_output_adapter@D@__crt_stdio_output@@V?$standard_base@DV?$stream_output_adapter@D@__crt_stdio_output@@@2@@__crt_stdio_output@@QAEHXZ 10064fae f i libucrt:output.obj
 0001:00064107       ?process@?$output_processor@DV?$string_output_adapter@D@__crt_stdio_output@@V?$format_validation_base@DV?$string_output_adapter@D@__crt_stdio_output@@@2@@__crt_stdio_output@@QAEHXZ 10065107 f i libucrt:output.obj
 0001:00064274       ?process@?$output_processor@DV?$string_output_adapter@D@__crt_stdio_output@@V?$positional_parameter_base@DV?$string_output_adapter@D@__crt_stdio_output@@@2@@__crt_stdio_output@@QAEHXZ 10065274 f i libucrt:output.obj
 0001:000643f0       ?process@?$output_processor@DV?$string_output_adapter@D@__crt_stdio_output@@V?$standard_base@DV?$string_output_adapter@D@__crt_stdio_output@@@2@@__crt_stdio_output@@QAEHXZ 100653f0 f i libucrt:output.obj
 0001:00064549       ?process@?$output_processor@_WV?$stream_output_adapter@_W@__crt_stdio_output@@V?$format_validation_base@_WV?$stream_output_adapter@_W@__crt_stdio_output@@@2@@__crt_stdio_output@@QAEHXZ 10065549 f i libucrt:output.obj
 0001:000646bb       ?process@?$output_processor@_WV?$stream_output_adapter@_W@__crt_stdio_output@@V?$positional_parameter_base@_WV?$stream_output_adapter@_W@__crt_stdio_output@@@2@@__crt_stdio_output@@QAEHXZ 100656bb f i libucrt:output.obj
 0001:0006483c       ?process@?$output_processor@_WV?$stream_output_adapter@_W@__crt_stdio_output@@V?$standard_base@_WV?$stream_output_adapter@_W@__crt_stdio_output@@@2@@__crt_stdio_output@@QAEHXZ 1006583c f i libucrt:output.obj
 0001:0006499f       ?process@?$output_processor@_WV?$string_output_adapter@_W@__crt_stdio_output@@V?$format_validation_base@_WV?$string_output_adapter@_W@__crt_stdio_output@@@2@@__crt_stdio_output@@QAEHXZ 1006599f f i libucrt:output.obj
 0001:00064b11       ?process@?$output_processor@_WV?$string_output_adapter@_W@__crt_stdio_output@@V?$positional_parameter_base@_WV?$string_output_adapter@_W@__crt_stdio_output@@@2@@__crt_stdio_output@@QAEHXZ 10065b11 f i libucrt:output.obj
 0001:00064c92       ?process@?$output_processor@_WV?$string_output_adapter@_W@__crt_stdio_output@@V?$standard_base@_WV?$string_output_adapter@_W@__crt_stdio_output@@@2@@__crt_stdio_output@@QAEHXZ 10065c92 f i libucrt:output.obj
 0001:00064df5       ?public_stream@__crt_stdio_stream@@QBEPAU_iobuf@@XZ 10065df5 f i libucrt:output.obj
 0001:00064df8       ?set_flag@?$output_processor@DV?$stream_output_adapter@D@__crt_stdio_output@@V?$format_validation_base@DV?$stream_output_adapter@D@__crt_stdio_output@@@2@@__crt_stdio_output@@AAEXI@Z 10065df8 f i libucrt:output.obj
 0001:00064e0a       ?set_flag@?$output_processor@DV?$stream_output_adapter@D@__crt_stdio_output@@V?$positional_parameter_base@DV?$stream_output_adapter@D@__crt_stdio_output@@@2@@__crt_stdio_output@@AAEXI@Z 10065e0a f i libucrt:output.obj
 0001:00064e1c       ?set_flag@?$output_processor@DV?$stream_output_adapter@D@__crt_stdio_output@@V?$standard_base@DV?$stream_output_adapter@D@__crt_stdio_output@@@2@@__crt_stdio_output@@AAEXI@Z 10065e1c f i libucrt:output.obj
 0001:00064e2e       ?set_flag@?$output_processor@DV?$string_output_adapter@D@__crt_stdio_output@@V?$format_validation_base@DV?$string_output_adapter@D@__crt_stdio_output@@@2@@__crt_stdio_output@@AAEXI@Z 10065e2e f i libucrt:output.obj
 0001:00064e40       ?set_flag@?$output_processor@DV?$string_output_adapter@D@__crt_stdio_output@@V?$positional_parameter_base@DV?$string_output_adapter@D@__crt_stdio_output@@@2@@__crt_stdio_output@@AAEXI@Z 10065e40 f i libucrt:output.obj
 0001:00064e52       ?set_flag@?$output_processor@DV?$string_output_adapter@D@__crt_stdio_output@@V?$standard_base@DV?$string_output_adapter@D@__crt_stdio_output@@@2@@__crt_stdio_output@@AAEXI@Z 10065e52 f i libucrt:output.obj
 0001:00064e64       ?set_flag@?$output_processor@_WV?$stream_output_adapter@_W@__crt_stdio_output@@V?$format_validation_base@_WV?$stream_output_adapter@_W@__crt_stdio_output@@@2@@__crt_stdio_output@@AAEXI@Z 10065e64 f i libucrt:output.obj
 0001:00064e76       ?set_flag@?$output_processor@_WV?$stream_output_adapter@_W@__crt_stdio_output@@V?$positional_parameter_base@_WV?$stream_output_adapter@_W@__crt_stdio_output@@@2@@__crt_stdio_output@@AAEXI@Z 10065e76 f i libucrt:output.obj
 0001:00064e88       ?set_flag@?$output_processor@_WV?$stream_output_adapter@_W@__crt_stdio_output@@V?$standard_base@_WV?$stream_output_adapter@_W@__crt_stdio_output@@@2@@__crt_stdio_output@@AAEXI@Z 10065e88 f i libucrt:output.obj
 0001:00064e9a       ?set_flag@?$output_processor@_WV?$string_output_adapter@_W@__crt_stdio_output@@V?$format_validation_base@_WV?$string_output_adapter@_W@__crt_stdio_output@@@2@@__crt_stdio_output@@AAEXI@Z 10065e9a f i libucrt:output.obj
 0001:00064eac       ?set_flag@?$output_processor@_WV?$string_output_adapter@_W@__crt_stdio_output@@V?$positional_parameter_base@_WV?$string_output_adapter@_W@__crt_stdio_output@@@2@@__crt_stdio_output@@AAEXI@Z 10065eac f i libucrt:output.obj
 0001:00064ebe       ?set_flag@?$output_processor@_WV?$string_output_adapter@_W@__crt_stdio_output@@V?$standard_base@_WV?$string_output_adapter@_W@__crt_stdio_output@@@2@@__crt_stdio_output@@AAEXI@Z 10065ebe f i libucrt:output.obj
 0001:00064ed0       ?should_format@?$positional_parameter_base@DV?$stream_output_adapter@D@__crt_stdio_output@@@__crt_stdio_output@@IAE_NXZ 10065ed0 f i libucrt:output.obj
 0001:00064eeb       ?should_format@?$positional_parameter_base@DV?$string_output_adapter@D@__crt_stdio_output@@@__crt_stdio_output@@IAE_NXZ 10065eeb f i libucrt:output.obj
 0001:00064f06       ?should_format@?$positional_parameter_base@_WV?$stream_output_adapter@_W@__crt_stdio_output@@@__crt_stdio_output@@IAE_NXZ 10065f06 f i libucrt:output.obj
 0001:00064f21       ?should_format@?$positional_parameter_base@_WV?$string_output_adapter@_W@__crt_stdio_output@@@__crt_stdio_output@@IAE_NXZ 10065f21 f i libucrt:output.obj
 0001:00064f3c       ?should_format@?$standard_base@DV?$stream_output_adapter@D@__crt_stdio_output@@@__crt_stdio_output@@IAE_NXZ 10065f3c f i libucrt:output.obj
 0001:00064f3f       ?should_format@?$standard_base@DV?$string_output_adapter@D@__crt_stdio_output@@@__crt_stdio_output@@IAE_NXZ 10065f3f f i libucrt:output.obj
 0001:00064f42       ?should_format@?$standard_base@_WV?$stream_output_adapter@_W@__crt_stdio_output@@@__crt_stdio_output@@IAE_NXZ 10065f42 f i libucrt:output.obj
 0001:00064f45       ?should_format@?$standard_base@_WV?$string_output_adapter@_W@__crt_stdio_output@@@__crt_stdio_output@@IAE_NXZ 10065f45 f i libucrt:output.obj
 0001:00064f48       ?should_skip_normal_state_processing@?$positional_parameter_base@DV?$stream_output_adapter@D@__crt_stdio_output@@@__crt_stdio_output@@IAE_NXZ 10065f48 f i libucrt:output.obj
 0001:00064f7a       ?should_skip_normal_state_processing@?$positional_parameter_base@DV?$string_output_adapter@D@__crt_stdio_output@@@__crt_stdio_output@@IAE_NXZ 10065f7a f i libucrt:output.obj
 0001:00064fac       ?should_skip_normal_state_processing@?$positional_parameter_base@_WV?$stream_output_adapter@_W@__crt_stdio_output@@@__crt_stdio_output@@IAE_NXZ 10065fac f i libucrt:output.obj
 0001:00064fde       ?should_skip_normal_state_processing@?$positional_parameter_base@_WV?$string_output_adapter@_W@__crt_stdio_output@@@__crt_stdio_output@@IAE_NXZ 10065fde f i libucrt:output.obj
 0001:00065010       ?should_skip_normal_state_processing@?$standard_base@DV?$stream_output_adapter@D@__crt_stdio_output@@@__crt_stdio_output@@IAE_NXZ 10066010 f i libucrt:output.obj
 0001:00065013       ?should_skip_normal_state_processing@?$standard_base@DV?$string_output_adapter@D@__crt_stdio_output@@@__crt_stdio_output@@IAE_NXZ 10066013 f i libucrt:output.obj
 0001:00065016       ?should_skip_normal_state_processing@?$standard_base@_WV?$stream_output_adapter@_W@__crt_stdio_output@@@__crt_stdio_output@@IAE_NXZ 10066016 f i libucrt:output.obj
 0001:00065019       ?should_skip_normal_state_processing@?$standard_base@_WV?$string_output_adapter@_W@__crt_stdio_output@@@__crt_stdio_output@@IAE_NXZ 10066019 f i libucrt:output.obj
 0001:0006501c       ?should_skip_type_state_output@?$positional_parameter_base@DV?$stream_output_adapter@D@__crt_stdio_output@@@__crt_stdio_output@@IBE_NXZ 1006601c f i libucrt:output.obj
 0001:00065038       ?should_skip_type_state_output@?$positional_parameter_base@DV?$string_output_adapter@D@__crt_stdio_output@@@__crt_stdio_output@@IBE_NXZ 10066038 f i libucrt:output.obj
 0001:00065054       ?should_skip_type_state_output@?$positional_parameter_base@_WV?$stream_output_adapter@_W@__crt_stdio_output@@@__crt_stdio_output@@IBE_NXZ 10066054 f i libucrt:output.obj
 0001:00065070       ?should_skip_type_state_output@?$positional_parameter_base@_WV?$string_output_adapter@_W@__crt_stdio_output@@@__crt_stdio_output@@IBE_NXZ 10066070 f i libucrt:output.obj
 0001:0006508c       ?should_skip_type_state_output@?$standard_base@DV?$stream_output_adapter@D@__crt_stdio_output@@@__crt_stdio_output@@IBE_NXZ 1006608c f i libucrt:output.obj
 0001:0006508f       ?should_skip_type_state_output@?$standard_base@DV?$string_output_adapter@D@__crt_stdio_output@@@__crt_stdio_output@@IBE_NXZ 1006608f f i libucrt:output.obj
 0001:00065092       ?should_skip_type_state_output@?$standard_base@_WV?$stream_output_adapter@_W@__crt_stdio_output@@@__crt_stdio_output@@IBE_NXZ 10066092 f i libucrt:output.obj
 0001:00065095       ?should_skip_type_state_output@?$standard_base@_WV?$string_output_adapter@_W@__crt_stdio_output@@@__crt_stdio_output@@IBE_NXZ 10066095 f i libucrt:output.obj
 0001:00065098       ?state_case_dot@?$output_processor@DV?$stream_output_adapter@D@__crt_stdio_output@@V?$format_validation_base@DV?$stream_output_adapter@D@__crt_stdio_output@@@2@@__crt_stdio_output@@AAE_NXZ 10066098 f i libucrt:output.obj
 0001:0006509f       ?state_case_dot@?$output_processor@DV?$stream_output_adapter@D@__crt_stdio_output@@V?$positional_parameter_base@DV?$stream_output_adapter@D@__crt_stdio_output@@@2@@__crt_stdio_output@@AAE_NXZ 1006609f f i libucrt:output.obj
 0001:000650a6       ?state_case_dot@?$output_processor@DV?$stream_output_adapter@D@__crt_stdio_output@@V?$standard_base@DV?$stream_output_adapter@D@__crt_stdio_output@@@2@@__crt_stdio_output@@AAE_NXZ 100660a6 f i libucrt:output.obj
 0001:000650ad       ?state_case_dot@?$output_processor@DV?$string_output_adapter@D@__crt_stdio_output@@V?$format_validation_base@DV?$string_output_adapter@D@__crt_stdio_output@@@2@@__crt_stdio_output@@AAE_NXZ 100660ad f i libucrt:output.obj
 0001:000650b4       ?state_case_dot@?$output_processor@DV?$string_output_adapter@D@__crt_stdio_output@@V?$positional_parameter_base@DV?$string_output_adapter@D@__crt_stdio_output@@@2@@__crt_stdio_output@@AAE_NXZ 100660b4 f i libucrt:output.obj
 0001:000650bb       ?state_case_dot@?$output_processor@DV?$string_output_adapter@D@__crt_stdio_output@@V?$standard_base@DV?$string_output_adapter@D@__crt_stdio_output@@@2@@__crt_stdio_output@@AAE_NXZ 100660bb f i libucrt:output.obj
 0001:000650c2       ?state_case_dot@?$output_processor@_WV?$stream_output_adapter@_W@__crt_stdio_output@@V?$format_validation_base@_WV?$stream_output_adapter@_W@__crt_stdio_output@@@2@@__crt_stdio_output@@AAE_NXZ 100660c2 f i libucrt:output.obj
 0001:000650c9       ?state_case_dot@?$output_processor@_WV?$stream_output_adapter@_W@__crt_stdio_output@@V?$positional_parameter_base@_WV?$stream_output_adapter@_W@__crt_stdio_output@@@2@@__crt_stdio_output@@AAE_NXZ 100660c9 f i libucrt:output.obj
 0001:000650d0       ?state_case_dot@?$output_processor@_WV?$stream_output_adapter@_W@__crt_stdio_output@@V?$standard_base@_WV?$stream_output_adapter@_W@__crt_stdio_output@@@2@@__crt_stdio_output@@AAE_NXZ 100660d0 f i libucrt:output.obj
 0001:000650d7       ?state_case_dot@?$output_processor@_WV?$string_output_adapter@_W@__crt_stdio_output@@V?$format_validation_base@_WV?$string_output_adapter@_W@__crt_stdio_output@@@2@@__crt_stdio_output@@AAE_NXZ 100660d7 f i libucrt:output.obj
 0001:000650de       ?state_case_dot@?$output_processor@_WV?$string_output_adapter@_W@__crt_stdio_output@@V?$positional_parameter_base@_WV?$string_output_adapter@_W@__crt_stdio_output@@@2@@__crt_stdio_output@@AAE_NXZ 100660de f i libucrt:output.obj
 0001:000650e5       ?state_case_dot@?$output_processor@_WV?$string_output_adapter@_W@__crt_stdio_output@@V?$standard_base@_WV?$string_output_adapter@_W@__crt_stdio_output@@@2@@__crt_stdio_output@@AAE_NXZ 100660e5 f i libucrt:output.obj
 0001:000650ec       ?state_case_flag@?$output_processor@DV?$stream_output_adapter@D@__crt_stdio_output@@V?$format_validation_base@DV?$stream_output_adapter@D@__crt_stdio_output@@@2@@__crt_stdio_output@@AAE_NXZ 100660ec f i libucrt:output.obj
 0001:00065138       ?state_case_flag@?$output_processor@DV?$stream_output_adapter@D@__crt_stdio_output@@V?$positional_parameter_base@DV?$stream_output_adapter@D@__crt_stdio_output@@@2@@__crt_stdio_output@@AAE_NXZ 10066138 f i libucrt:output.obj
 0001:00065184       ?state_case_flag@?$output_processor@DV?$stream_output_adapter@D@__crt_stdio_output@@V?$standard_base@DV?$stream_output_adapter@D@__crt_stdio_output@@@2@@__crt_stdio_output@@AAE_NXZ 10066184 f i libucrt:output.obj
 0001:000651d0       ?state_case_flag@?$output_processor@DV?$string_output_adapter@D@__crt_stdio_output@@V?$format_validation_base@DV?$string_output_adapter@D@__crt_stdio_output@@@2@@__crt_stdio_output@@AAE_NXZ 100661d0 f i libucrt:output.obj
 0001:0006521c       ?state_case_flag@?$output_processor@DV?$string_output_adapter@D@__crt_stdio_output@@V?$positional_parameter_base@DV?$string_output_adapter@D@__crt_stdio_output@@@2@@__crt_stdio_output@@AAE_NXZ 1006621c f i libucrt:output.obj
 0001:00065268       ?state_case_flag@?$output_processor@DV?$string_output_adapter@D@__crt_stdio_output@@V?$standard_base@DV?$string_output_adapter@D@__crt_stdio_output@@@2@@__crt_stdio_output@@AAE_NXZ 10066268 f i libucrt:output.obj
 0001:000652b4       ?state_case_flag@?$output_processor@_WV?$stream_output_adapter@_W@__crt_stdio_output@@V?$format_validation_base@_WV?$stream_output_adapter@_W@__crt_stdio_output@@@2@@__crt_stdio_output@@AAE_NXZ 100662b4 f i libucrt:output.obj
 0001:00065300       ?state_case_flag@?$output_processor@_WV?$stream_output_adapter@_W@__crt_stdio_output@@V?$positional_parameter_base@_WV?$stream_output_adapter@_W@__crt_stdio_output@@@2@@__crt_stdio_output@@AAE_NXZ 10066300 f i libucrt:output.obj
 0001:0006534c       ?state_case_flag@?$output_processor@_WV?$stream_output_adapter@_W@__crt_stdio_output@@V?$standard_base@_WV?$stream_output_adapter@_W@__crt_stdio_output@@@2@@__crt_stdio_output@@AAE_NXZ 1006634c f i libucrt:output.obj
 0001:00065398       ?state_case_flag@?$output_processor@_WV?$string_output_adapter@_W@__crt_stdio_output@@V?$format_validation_base@_WV?$string_output_adapter@_W@__crt_stdio_output@@@2@@__crt_stdio_output@@AAE_NXZ 10066398 f i libucrt:output.obj
 0001:000653e4       ?state_case_flag@?$output_processor@_WV?$string_output_adapter@_W@__crt_stdio_output@@V?$positional_parameter_base@_WV?$string_output_adapter@_W@__crt_stdio_output@@@2@@__crt_stdio_output@@AAE_NXZ 100663e4 f i libucrt:output.obj
 0001:00065430       ?state_case_flag@?$output_processor@_WV?$string_output_adapter@_W@__crt_stdio_output@@V?$standard_base@_WV?$string_output_adapter@_W@__crt_stdio_output@@@2@@__crt_stdio_output@@AAE_NXZ 10066430 f i libucrt:output.obj
 0001:0006547c       ?state_case_normal@?$output_processor@DV?$stream_output_adapter@D@__crt_stdio_output@@V?$format_validation_base@DV?$stream_output_adapter@D@__crt_stdio_output@@@2@@__crt_stdio_output@@AAE_NXZ 1006647c f i libucrt:output.obj
 0001:000654a2       ?state_case_normal@?$output_processor@DV?$stream_output_adapter@D@__crt_stdio_output@@V?$positional_parameter_base@DV?$stream_output_adapter@D@__crt_stdio_output@@@2@@__crt_stdio_output@@AAE_NXZ 100664a2 f i libucrt:output.obj
 0001:000654df       ?state_case_normal@?$output_processor@DV?$stream_output_adapter@D@__crt_stdio_output@@V?$standard_base@DV?$stream_output_adapter@D@__crt_stdio_output@@@2@@__crt_stdio_output@@AAE_NXZ 100664df f i libucrt:output.obj
 0001:00065505       ?state_case_normal@?$output_processor@DV?$string_output_adapter@D@__crt_stdio_output@@V?$format_validation_base@DV?$string_output_adapter@D@__crt_stdio_output@@@2@@__crt_stdio_output@@AAE_NXZ 10066505 f i libucrt:output.obj
 0001:0006552b       ?state_case_normal@?$output_processor@DV?$string_output_adapter@D@__crt_stdio_output@@V?$positional_parameter_base@DV?$string_output_adapter@D@__crt_stdio_output@@@2@@__crt_stdio_output@@AAE_NXZ 1006652b f i libucrt:output.obj
 0001:00065568       ?state_case_normal@?$output_processor@DV?$string_output_adapter@D@__crt_stdio_output@@V?$standard_base@DV?$string_output_adapter@D@__crt_stdio_output@@@2@@__crt_stdio_output@@AAE_NXZ 10066568 f i libucrt:output.obj
 0001:0006558e       ?state_case_normal@?$output_processor@_WV?$stream_output_adapter@_W@__crt_stdio_output@@V?$format_validation_base@_WV?$stream_output_adapter@_W@__crt_stdio_output@@@2@@__crt_stdio_output@@AAE_NXZ 1006658e f i libucrt:output.obj
 0001:000655b4       ?state_case_normal@?$output_processor@_WV?$stream_output_adapter@_W@__crt_stdio_output@@V?$positional_parameter_base@_WV?$stream_output_adapter@_W@__crt_stdio_output@@@2@@__crt_stdio_output@@AAE_NXZ 100665b4 f i libucrt:output.obj
 0001:000655f1       ?state_case_normal@?$output_processor@_WV?$stream_output_adapter@_W@__crt_stdio_output@@V?$standard_base@_WV?$stream_output_adapter@_W@__crt_stdio_output@@@2@@__crt_stdio_output@@AAE_NXZ 100665f1 f i libucrt:output.obj
 0001:00065617       ?state_case_normal@?$output_processor@_WV?$string_output_adapter@_W@__crt_stdio_output@@V?$format_validation_base@_WV?$string_output_adapter@_W@__crt_stdio_output@@@2@@__crt_stdio_output@@AAE_NXZ 10066617 f i libucrt:output.obj
 0001:0006563d       ?state_case_normal@?$output_processor@_WV?$string_output_adapter@_W@__crt_stdio_output@@V?$positional_parameter_base@_WV?$string_output_adapter@_W@__crt_stdio_output@@@2@@__crt_stdio_output@@AAE_NXZ 1006663d f i libucrt:output.obj
 0001:0006567a       ?state_case_normal@?$output_processor@_WV?$string_output_adapter@_W@__crt_stdio_output@@V?$standard_base@_WV?$string_output_adapter@_W@__crt_stdio_output@@@2@@__crt_stdio_output@@AAE_NXZ 1006667a f i libucrt:output.obj
 0001:000656a0       ?state_case_normal_common@?$output_processor@DV?$stream_output_adapter@D@__crt_stdio_output@@V?$format_validation_base@DV?$stream_output_adapter@D@__crt_stdio_output@@@2@@__crt_stdio_output@@AAE_NXZ 100666a0 f i libucrt:output.obj
 0001:000656eb       ?state_case_normal_common@?$output_processor@DV?$stream_output_adapter@D@__crt_stdio_output@@V?$positional_parameter_base@DV?$stream_output_adapter@D@__crt_stdio_output@@@2@@__crt_stdio_output@@AAE_NXZ 100666eb f i libucrt:output.obj
 0001:00065736       ?state_case_normal_common@?$output_processor@DV?$stream_output_adapter@D@__crt_stdio_output@@V?$standard_base@DV?$stream_output_adapter@D@__crt_stdio_output@@@2@@__crt_stdio_output@@AAE_NXZ 10066736 f i libucrt:output.obj
 0001:00065781       ?state_case_normal_common@?$output_processor@DV?$string_output_adapter@D@__crt_stdio_output@@V?$format_validation_base@DV?$string_output_adapter@D@__crt_stdio_output@@@2@@__crt_stdio_output@@AAE_NXZ 10066781 f i libucrt:output.obj
 0001:000657b5       ?state_case_normal_common@?$output_processor@DV?$string_output_adapter@D@__crt_stdio_output@@V?$positional_parameter_base@DV?$string_output_adapter@D@__crt_stdio_output@@@2@@__crt_stdio_output@@AAE_NXZ 100667b5 f i libucrt:output.obj
 0001:000657e9       ?state_case_normal_common@?$output_processor@DV?$string_output_adapter@D@__crt_stdio_output@@V?$standard_base@DV?$string_output_adapter@D@__crt_stdio_output@@@2@@__crt_stdio_output@@AAE_NXZ 100667e9 f i libucrt:output.obj
 0001:0006581d       ?state_case_normal_common@?$output_processor@_WV?$stream_output_adapter@_W@__crt_stdio_output@@V?$format_validation_base@_WV?$stream_output_adapter@_W@__crt_stdio_output@@@2@@__crt_stdio_output@@AAE_NXZ 1006681d f i libucrt:output.obj
 0001:00065851       ?state_case_normal_common@?$output_processor@_WV?$stream_output_adapter@_W@__crt_stdio_output@@V?$positional_parameter_base@_WV?$stream_output_adapter@_W@__crt_stdio_output@@@2@@__crt_stdio_output@@AAE_NXZ 10066851 f i libucrt:output.obj
 0001:00065885       ?state_case_normal_common@?$output_processor@_WV?$stream_output_adapter@_W@__crt_stdio_output@@V?$standard_base@_WV?$stream_output_adapter@_W@__crt_stdio_output@@@2@@__crt_stdio_output@@AAE_NXZ 10066885 f i libucrt:output.obj
 0001:000658b9       ?state_case_normal_common@?$output_processor@_WV?$string_output_adapter@_W@__crt_stdio_output@@V?$format_validation_base@_WV?$string_output_adapter@_W@__crt_stdio_output@@@2@@__crt_stdio_output@@AAE_NXZ 100668b9 f i libucrt:output.obj
 0001:000658da       ?state_case_normal_common@?$output_processor@_WV?$string_output_adapter@_W@__crt_stdio_output@@V?$positional_parameter_base@_WV?$string_output_adapter@_W@__crt_stdio_output@@@2@@__crt_stdio_output@@AAE_NXZ 100668da f i libucrt:output.obj
 0001:000658fb       ?state_case_normal_common@?$output_processor@_WV?$string_output_adapter@_W@__crt_stdio_output@@V?$standard_base@_WV?$string_output_adapter@_W@__crt_stdio_output@@@2@@__crt_stdio_output@@AAE_NXZ 100668fb f i libucrt:output.obj
 0001:0006591c       ?state_case_normal_tchar@?$output_processor@DV?$stream_output_adapter@D@__crt_stdio_output@@V?$format_validation_base@DV?$stream_output_adapter@D@__crt_stdio_output@@@2@@__crt_stdio_output@@AAE_ND@Z 1006691c f i libucrt:output.obj
 0001:000659a4       ?state_case_normal_tchar@?$output_processor@DV?$stream_output_adapter@D@__crt_stdio_output@@V?$positional_parameter_base@DV?$stream_output_adapter@D@__crt_stdio_output@@@2@@__crt_stdio_output@@AAE_ND@Z 100669a4 f i libucrt:output.obj
 0001:00065a2c       ?state_case_normal_tchar@?$output_processor@DV?$stream_output_adapter@D@__crt_stdio_output@@V?$standard_base@DV?$stream_output_adapter@D@__crt_stdio_output@@@2@@__crt_stdio_output@@AAE_ND@Z 10066a2c f i libucrt:output.obj
 0001:00065ab4       ?state_case_normal_tchar@?$output_processor@DV?$string_output_adapter@D@__crt_stdio_output@@V?$format_validation_base@DV?$string_output_adapter@D@__crt_stdio_output@@@2@@__crt_stdio_output@@AAE_ND@Z 10066ab4 f i libucrt:output.obj
 0001:00065b31       ?state_case_normal_tchar@?$output_processor@DV?$string_output_adapter@D@__crt_stdio_output@@V?$positional_parameter_base@DV?$string_output_adapter@D@__crt_stdio_output@@@2@@__crt_stdio_output@@AAE_ND@Z 10066b31 f i libucrt:output.obj
 0001:00065bae       ?state_case_normal_tchar@?$output_processor@DV?$string_output_adapter@D@__crt_stdio_output@@V?$standard_base@DV?$string_output_adapter@D@__crt_stdio_output@@@2@@__crt_stdio_output@@AAE_ND@Z 10066bae f i libucrt:output.obj
 0001:00065c2b       ?state_case_normal_tchar@?$output_processor@_WV?$stream_output_adapter@_W@__crt_stdio_output@@V?$format_validation_base@_WV?$stream_output_adapter@_W@__crt_stdio_output@@@2@@__crt_stdio_output@@AAE_N_W@Z 10066c2b f i libucrt:output.obj
 0001:00065c36       ?state_case_normal_tchar@?$output_processor@_WV?$stream_output_adapter@_W@__crt_stdio_output@@V?$positional_parameter_base@_WV?$stream_output_adapter@_W@__crt_stdio_output@@@2@@__crt_stdio_output@@AAE_N_W@Z 10066c36 f i libucrt:output.obj
 0001:00065c41       ?state_case_normal_tchar@?$output_processor@_WV?$stream_output_adapter@_W@__crt_stdio_output@@V?$standard_base@_WV?$stream_output_adapter@_W@__crt_stdio_output@@@2@@__crt_stdio_output@@AAE_N_W@Z 10066c41 f i libucrt:output.obj
 0001:00065c4c       ?state_case_normal_tchar@?$output_processor@_WV?$string_output_adapter@_W@__crt_stdio_output@@V?$format_validation_base@_WV?$string_output_adapter@_W@__crt_stdio_output@@@2@@__crt_stdio_output@@AAE_N_W@Z 10066c4c f i libucrt:output.obj
 0001:00065c57       ?state_case_normal_tchar@?$output_processor@_WV?$string_output_adapter@_W@__crt_stdio_output@@V?$positional_parameter_base@_WV?$string_output_adapter@_W@__crt_stdio_output@@@2@@__crt_stdio_output@@AAE_N_W@Z 10066c57 f i libucrt:output.obj
 0001:00065c62       ?state_case_normal_tchar@?$output_processor@_WV?$string_output_adapter@_W@__crt_stdio_output@@V?$standard_base@_WV?$string_output_adapter@_W@__crt_stdio_output@@@2@@__crt_stdio_output@@AAE_N_W@Z 10066c62 f i libucrt:output.obj
 0001:00065c6d       ?state_case_percent@?$output_processor@DV?$stream_output_adapter@D@__crt_stdio_output@@V?$format_validation_base@DV?$stream_output_adapter@D@__crt_stdio_output@@@2@@__crt_stdio_output@@AAE_NXZ 10066c6d f i libucrt:output.obj
 0001:00065c8b       ?state_case_percent@?$output_processor@DV?$stream_output_adapter@D@__crt_stdio_output@@V?$positional_parameter_base@DV?$stream_output_adapter@D@__crt_stdio_output@@@2@@__crt_stdio_output@@AAE_NXZ 10066c8b f i libucrt:output.obj
 0001:00065ca9       ?state_case_percent@?$output_processor@DV?$stream_output_adapter@D@__crt_stdio_output@@V?$standard_base@DV?$stream_output_adapter@D@__crt_stdio_output@@@2@@__crt_stdio_output@@AAE_NXZ 10066ca9 f i libucrt:output.obj
 0001:00065cc7       ?state_case_percent@?$output_processor@DV?$string_output_adapter@D@__crt_stdio_output@@V?$format_validation_base@DV?$string_output_adapter@D@__crt_stdio_output@@@2@@__crt_stdio_output@@AAE_NXZ 10066cc7 f i libucrt:output.obj
 0001:00065ce5       ?state_case_percent@?$output_processor@DV?$string_output_adapter@D@__crt_stdio_output@@V?$positional_parameter_base@DV?$string_output_adapter@D@__crt_stdio_output@@@2@@__crt_stdio_output@@AAE_NXZ 10066ce5 f i libucrt:output.obj
 0001:00065d03       ?state_case_percent@?$output_processor@DV?$string_output_adapter@D@__crt_stdio_output@@V?$standard_base@DV?$string_output_adapter@D@__crt_stdio_output@@@2@@__crt_stdio_output@@AAE_NXZ 10066d03 f i libucrt:output.obj
 0001:00065d21       ?state_case_percent@?$output_processor@_WV?$stream_output_adapter@_W@__crt_stdio_output@@V?$format_validation_base@_WV?$stream_output_adapter@_W@__crt_stdio_output@@@2@@__crt_stdio_output@@AAE_NXZ 10066d21 f i libucrt:output.obj
 0001:00065d3f       ?state_case_percent@?$output_processor@_WV?$stream_output_adapter@_W@__crt_stdio_output@@V?$positional_parameter_base@_WV?$stream_output_adapter@_W@__crt_stdio_output@@@2@@__crt_stdio_output@@AAE_NXZ 10066d3f f i libucrt:output.obj
 0001:00065d5d       ?state_case_percent@?$output_processor@_WV?$stream_output_adapter@_W@__crt_stdio_output@@V?$standard_base@_WV?$stream_output_adapter@_W@__crt_stdio_output@@@2@@__crt_stdio_output@@AAE_NXZ 10066d5d f i libucrt:output.obj
 0001:00065d7b       ?state_case_percent@?$output_processor@_WV?$string_output_adapter@_W@__crt_stdio_output@@V?$format_validation_base@_WV?$string_output_adapter@_W@__crt_stdio_output@@@2@@__crt_stdio_output@@AAE_NXZ 10066d7b f i libucrt:output.obj
 0001:00065d99       ?state_case_percent@?$output_processor@_WV?$string_output_adapter@_W@__crt_stdio_output@@V?$positional_parameter_base@_WV?$string_output_adapter@_W@__crt_stdio_output@@@2@@__crt_stdio_output@@AAE_NXZ 10066d99 f i libucrt:output.obj
 0001:00065db7       ?state_case_percent@?$output_processor@_WV?$string_output_adapter@_W@__crt_stdio_output@@V?$standard_base@_WV?$string_output_adapter@_W@__crt_stdio_output@@@2@@__crt_stdio_output@@AAE_NXZ 10066db7 f i libucrt:output.obj
 0001:00065dd5       ?state_case_precision@?$output_processor@DV?$stream_output_adapter@D@__crt_stdio_output@@V?$format_validation_base@DV?$stream_output_adapter@D@__crt_stdio_output@@@2@@__crt_stdio_output@@AAE_NXZ 10066dd5 f i libucrt:output.obj
 0001:00065e04       ?state_case_precision@?$output_processor@DV?$stream_output_adapter@D@__crt_stdio_output@@V?$positional_parameter_base@DV?$stream_output_adapter@D@__crt_stdio_output@@@2@@__crt_stdio_output@@AAE_NXZ 10066e04 f i libucrt:output.obj
 0001:00065e4c       ?state_case_precision@?$output_processor@DV?$stream_output_adapter@D@__crt_stdio_output@@V?$standard_base@DV?$stream_output_adapter@D@__crt_stdio_output@@@2@@__crt_stdio_output@@AAE_NXZ 10066e4c f i libucrt:output.obj
 0001:00065e7b       ?state_case_precision@?$output_processor@DV?$string_output_adapter@D@__crt_stdio_output@@V?$format_validation_base@DV?$string_output_adapter@D@__crt_stdio_output@@@2@@__crt_stdio_output@@AAE_NXZ 10066e7b f i libucrt:output.obj
 0001:00065eaa       ?state_case_precision@?$output_processor@DV?$string_output_adapter@D@__crt_stdio_output@@V?$positional_parameter_base@DV?$string_output_adapter@D@__crt_stdio_output@@@2@@__crt_stdio_output@@AAE_NXZ 10066eaa f i libucrt:output.obj
 0001:00065ef2       ?state_case_precision@?$output_processor@DV?$string_output_adapter@D@__crt_stdio_output@@V?$standard_base@DV?$string_output_adapter@D@__crt_stdio_output@@@2@@__crt_stdio_output@@AAE_NXZ 10066ef2 f i libucrt:output.obj
 0001:00065f21       ?state_case_precision@?$output_processor@_WV?$stream_output_adapter@_W@__crt_stdio_output@@V?$format_validation_base@_WV?$stream_output_adapter@_W@__crt_stdio_output@@@2@@__crt_stdio_output@@AAE_NXZ 10066f21 f i libucrt:output.obj
 0001:00065f51       ?state_case_precision@?$output_processor@_WV?$stream_output_adapter@_W@__crt_stdio_output@@V?$positional_parameter_base@_WV?$stream_output_adapter@_W@__crt_stdio_output@@@2@@__crt_stdio_output@@AAE_NXZ 10066f51 f i libucrt:output.obj
 0001:00065f9a       ?state_case_precision@?$output_processor@_WV?$stream_output_adapter@_W@__crt_stdio_output@@V?$standard_base@_WV?$stream_output_adapter@_W@__crt_stdio_output@@@2@@__crt_stdio_output@@AAE_NXZ 10066f9a f i libucrt:output.obj
 0001:00065fca       ?state_case_precision@?$output_processor@_WV?$string_output_adapter@_W@__crt_stdio_output@@V?$format_validation_base@_WV?$string_output_adapter@_W@__crt_stdio_output@@@2@@__crt_stdio_output@@AAE_NXZ 10066fca f i libucrt:output.obj
 0001:00065ffa       ?state_case_precision@?$output_processor@_WV?$string_output_adapter@_W@__crt_stdio_output@@V?$positional_parameter_base@_WV?$string_output_adapter@_W@__crt_stdio_output@@@2@@__crt_stdio_output@@AAE_NXZ 10066ffa f i libucrt:output.obj
 0001:00066043       ?state_case_precision@?$output_processor@_WV?$string_output_adapter@_W@__crt_stdio_output@@V?$standard_base@_WV?$string_output_adapter@_W@__crt_stdio_output@@@2@@__crt_stdio_output@@AAE_NXZ 10067043 f i libucrt:output.obj
 0001:00066073       ?state_case_size@?$output_processor@DV?$stream_output_adapter@D@__crt_stdio_output@@V?$format_validation_base@DV?$stream_output_adapter@D@__crt_stdio_output@@@2@@__crt_stdio_output@@AAE_NXZ 10067073 f i libucrt:output.obj
 0001:00066214       ?state_case_size@?$output_processor@DV?$stream_output_adapter@D@__crt_stdio_output@@V?$positional_parameter_base@DV?$stream_output_adapter@D@__crt_stdio_output@@@2@@__crt_stdio_output@@AAE_NXZ 10067214 f i libucrt:output.obj
 0001:000663b5       ?state_case_size@?$output_processor@DV?$stream_output_adapter@D@__crt_stdio_output@@V?$standard_base@DV?$stream_output_adapter@D@__crt_stdio_output@@@2@@__crt_stdio_output@@AAE_NXZ 100673b5 f i libucrt:output.obj
 0001:00066556       ?state_case_size@?$output_processor@DV?$string_output_adapter@D@__crt_stdio_output@@V?$format_validation_base@DV?$string_output_adapter@D@__crt_stdio_output@@@2@@__crt_stdio_output@@AAE_NXZ 10067556 f i libucrt:output.obj
 0001:000666f7       ?state_case_size@?$output_processor@DV?$string_output_adapter@D@__crt_stdio_output@@V?$positional_parameter_base@DV?$string_output_adapter@D@__crt_stdio_output@@@2@@__crt_stdio_output@@AAE_NXZ 100676f7 f i libucrt:output.obj
 0001:00066898       ?state_case_size@?$output_processor@DV?$string_output_adapter@D@__crt_stdio_output@@V?$standard_base@DV?$string_output_adapter@D@__crt_stdio_output@@@2@@__crt_stdio_output@@AAE_NXZ 10067898 f i libucrt:output.obj
 0001:00066a39       ?state_case_size@?$output_processor@_WV?$stream_output_adapter@_W@__crt_stdio_output@@V?$format_validation_base@_WV?$stream_output_adapter@_W@__crt_stdio_output@@@2@@__crt_stdio_output@@AAE_NXZ 10067a39 f i libucrt:output.obj
 0001:00066c0f       ?state_case_size@?$output_processor@_WV?$stream_output_adapter@_W@__crt_stdio_output@@V?$positional_parameter_base@_WV?$stream_output_adapter@_W@__crt_stdio_output@@@2@@__crt_stdio_output@@AAE_NXZ 10067c0f f i libucrt:output.obj
 0001:00066de5       ?state_case_size@?$output_processor@_WV?$stream_output_adapter@_W@__crt_stdio_output@@V?$standard_base@_WV?$stream_output_adapter@_W@__crt_stdio_output@@@2@@__crt_stdio_output@@AAE_NXZ 10067de5 f i libucrt:output.obj
 0001:00066fbb       ?state_case_size@?$output_processor@_WV?$string_output_adapter@_W@__crt_stdio_output@@V?$format_validation_base@_WV?$string_output_adapter@_W@__crt_stdio_output@@@2@@__crt_stdio_output@@AAE_NXZ 10067fbb f i libucrt:output.obj
 0001:00067191       ?state_case_size@?$output_processor@_WV?$string_output_adapter@_W@__crt_stdio_output@@V?$positional_parameter_base@_WV?$string_output_adapter@_W@__crt_stdio_output@@@2@@__crt_stdio_output@@AAE_NXZ 10068191 f i libucrt:output.obj
 0001:00067367       ?state_case_size@?$output_processor@_WV?$string_output_adapter@_W@__crt_stdio_output@@V?$standard_base@_WV?$string_output_adapter@_W@__crt_stdio_output@@@2@@__crt_stdio_output@@AAE_NXZ 10068367 f i libucrt:output.obj
 0001:0006753d       ?state_case_type@?$output_processor@DV?$stream_output_adapter@D@__crt_stdio_output@@V?$format_validation_base@DV?$stream_output_adapter@D@__crt_stdio_output@@@2@@__crt_stdio_output@@AAE_NXZ 1006853d f i libucrt:output.obj
 0001:000677fe       ?state_case_type@?$output_processor@DV?$stream_output_adapter@D@__crt_stdio_output@@V?$positional_parameter_base@DV?$stream_output_adapter@D@__crt_stdio_output@@@2@@__crt_stdio_output@@AAE_NXZ 100687fe f i libucrt:output.obj
 0001:00067ad1       ?state_case_type@?$output_processor@DV?$stream_output_adapter@D@__crt_stdio_output@@V?$standard_base@DV?$stream_output_adapter@D@__crt_stdio_output@@@2@@__crt_stdio_output@@AAE_NXZ 10068ad1 f i libucrt:output.obj
 0001:00067d92       ?state_case_type@?$output_processor@DV?$string_output_adapter@D@__crt_stdio_output@@V?$format_validation_base@DV?$string_output_adapter@D@__crt_stdio_output@@@2@@__crt_stdio_output@@AAE_NXZ 10068d92 f i libucrt:output.obj
 0001:00068053       ?state_case_type@?$output_processor@DV?$string_output_adapter@D@__crt_stdio_output@@V?$positional_parameter_base@DV?$string_output_adapter@D@__crt_stdio_output@@@2@@__crt_stdio_output@@AAE_NXZ 10069053 f i libucrt:output.obj
 0001:00068326       ?state_case_type@?$output_processor@DV?$string_output_adapter@D@__crt_stdio_output@@V?$standard_base@DV?$string_output_adapter@D@__crt_stdio_output@@@2@@__crt_stdio_output@@AAE_NXZ 10069326 f i libucrt:output.obj
 0001:000685e7       ?state_case_type@?$output_processor@_WV?$stream_output_adapter@_W@__crt_stdio_output@@V?$format_validation_base@_WV?$stream_output_adapter@_W@__crt_stdio_output@@@2@@__crt_stdio_output@@AAE_NXZ 100695e7 f i libucrt:output.obj
 0001:000688e7       ?state_case_type@?$output_processor@_WV?$stream_output_adapter@_W@__crt_stdio_output@@V?$positional_parameter_base@_WV?$stream_output_adapter@_W@__crt_stdio_output@@@2@@__crt_stdio_output@@AAE_NXZ 100698e7 f i libucrt:output.obj
 0001:00068bfa       ?state_case_type@?$output_processor@_WV?$stream_output_adapter@_W@__crt_stdio_output@@V?$standard_base@_WV?$stream_output_adapter@_W@__crt_stdio_output@@@2@@__crt_stdio_output@@AAE_NXZ 10069bfa f i libucrt:output.obj
 0001:00068efa       ?state_case_type@?$output_processor@_WV?$string_output_adapter@_W@__crt_stdio_output@@V?$format_validation_base@_WV?$string_output_adapter@_W@__crt_stdio_output@@@2@@__crt_stdio_output@@AAE_NXZ 10069efa f i libucrt:output.obj
 0001:000691fa       ?state_case_type@?$output_processor@_WV?$string_output_adapter@_W@__crt_stdio_output@@V?$positional_parameter_base@_WV?$string_output_adapter@_W@__crt_stdio_output@@@2@@__crt_stdio_output@@AAE_NXZ 1006a1fa f i libucrt:output.obj
 0001:0006950d       ?state_case_type@?$output_processor@_WV?$string_output_adapter@_W@__crt_stdio_output@@V?$standard_base@_WV?$string_output_adapter@_W@__crt_stdio_output@@@2@@__crt_stdio_output@@AAE_NXZ 1006a50d f i libucrt:output.obj
 0001:0006980d       ?state_case_width@?$output_processor@DV?$stream_output_adapter@D@__crt_stdio_output@@V?$format_validation_base@DV?$stream_output_adapter@D@__crt_stdio_output@@@2@@__crt_stdio_output@@AAE_NXZ 1006a80d f i libucrt:output.obj
 0001:00069842       ?state_case_width@?$output_processor@DV?$stream_output_adapter@D@__crt_stdio_output@@V?$positional_parameter_base@DV?$stream_output_adapter@D@__crt_stdio_output@@@2@@__crt_stdio_output@@AAE_NXZ 1006a842 f i libucrt:output.obj
 0001:00069892       ?state_case_width@?$output_processor@DV?$stream_output_adapter@D@__crt_stdio_output@@V?$standard_base@DV?$stream_output_adapter@D@__crt_stdio_output@@@2@@__crt_stdio_output@@AAE_NXZ 1006a892 f i libucrt:output.obj
 0001:000698c7       ?state_case_width@?$output_processor@DV?$string_output_adapter@D@__crt_stdio_output@@V?$format_validation_base@DV?$string_output_adapter@D@__crt_stdio_output@@@2@@__crt_stdio_output@@AAE_NXZ 1006a8c7 f i libucrt:output.obj
 0001:000698fc       ?state_case_width@?$output_processor@DV?$string_output_adapter@D@__crt_stdio_output@@V?$positional_parameter_base@DV?$string_output_adapter@D@__crt_stdio_output@@@2@@__crt_stdio_output@@AAE_NXZ 1006a8fc f i libucrt:output.obj
 0001:0006994c       ?state_case_width@?$output_processor@DV?$string_output_adapter@D@__crt_stdio_output@@V?$standard_base@DV?$string_output_adapter@D@__crt_stdio_output@@@2@@__crt_stdio_output@@AAE_NXZ 1006a94c f i libucrt:output.obj
 0001:00069981       ?state_case_width@?$output_processor@_WV?$stream_output_adapter@_W@__crt_stdio_output@@V?$format_validation_base@_WV?$stream_output_adapter@_W@__crt_stdio_output@@@2@@__crt_stdio_output@@AAE_NXZ 1006a981 f i libucrt:output.obj
 0001:000699b8       ?state_case_width@?$output_processor@_WV?$stream_output_adapter@_W@__crt_stdio_output@@V?$positional_parameter_base@_WV?$stream_output_adapter@_W@__crt_stdio_output@@@2@@__crt_stdio_output@@AAE_NXZ 1006a9b8 f i libucrt:output.obj
 0001:00069a09       ?state_case_width@?$output_processor@_WV?$stream_output_adapter@_W@__crt_stdio_output@@V?$standard_base@_WV?$stream_output_adapter@_W@__crt_stdio_output@@@2@@__crt_stdio_output@@AAE_NXZ 1006aa09 f i libucrt:output.obj
 0001:00069a40       ?state_case_width@?$output_processor@_WV?$string_output_adapter@_W@__crt_stdio_output@@V?$format_validation_base@_WV?$string_output_adapter@_W@__crt_stdio_output@@@2@@__crt_stdio_output@@AAE_NXZ 1006aa40 f i libucrt:output.obj
 0001:00069a77       ?state_case_width@?$output_processor@_WV?$string_output_adapter@_W@__crt_stdio_output@@V?$positional_parameter_base@_WV?$string_output_adapter@_W@__crt_stdio_output@@@2@@__crt_stdio_output@@AAE_NXZ 1006aa77 f i libucrt:output.obj
 0001:00069ac8       ?state_case_width@?$output_processor@_WV?$string_output_adapter@_W@__crt_stdio_output@@V?$standard_base@_WV?$string_output_adapter@_W@__crt_stdio_output@@@2@@__crt_stdio_output@@AAE_NXZ 1006aac8 f i libucrt:output.obj
 0001:00069aff       ?state_count@?$format_validation_base@DV?$stream_output_adapter@D@__crt_stdio_output@@@__crt_stdio_output@@KAIXZ 1006aaff f i libucrt:output.obj
 0001:00069b03       ?state_count@?$format_validation_base@DV?$string_output_adapter@D@__crt_stdio_output@@@__crt_stdio_output@@KAIXZ 1006ab03 f i libucrt:output.obj
 0001:00069b07       ?state_count@?$format_validation_base@_WV?$stream_output_adapter@_W@__crt_stdio_output@@@__crt_stdio_output@@KAIXZ 1006ab07 f i libucrt:output.obj
 0001:00069b0b       ?state_count@?$format_validation_base@_WV?$string_output_adapter@_W@__crt_stdio_output@@@__crt_stdio_output@@KAIXZ 1006ab0b f i libucrt:output.obj
 0001:00069b0f       ?state_count@?$standard_base@DV?$stream_output_adapter@D@__crt_stdio_output@@@__crt_stdio_output@@KAIXZ 1006ab0f f i libucrt:output.obj
 0001:00069b13       ?state_count@?$standard_base@DV?$string_output_adapter@D@__crt_stdio_output@@@__crt_stdio_output@@KAIXZ 1006ab13 f i libucrt:output.obj
 0001:00069b17       ?state_count@?$standard_base@_WV?$stream_output_adapter@_W@__crt_stdio_output@@@__crt_stdio_output@@KAIXZ 1006ab17 f i libucrt:output.obj
 0001:00069b1b       ?state_count@?$standard_base@_WV?$string_output_adapter@_W@__crt_stdio_output@@@__crt_stdio_output@@KAIXZ 1006ab1b f i libucrt:output.obj
 0001:00069b1f       ?state_transition_table@?$format_validation_base@DV?$stream_output_adapter@D@__crt_stdio_output@@@__crt_stdio_output@@KAPBEXZ 1006ab1f f i libucrt:output.obj
 0001:00069b25       ?state_transition_table@?$format_validation_base@DV?$string_output_adapter@D@__crt_stdio_output@@@__crt_stdio_output@@KAPBEXZ 1006ab25 f i libucrt:output.obj
 0001:00069b2b       ?state_transition_table@?$format_validation_base@_WV?$stream_output_adapter@_W@__crt_stdio_output@@@__crt_stdio_output@@KAPBEXZ 1006ab2b f i libucrt:output.obj
 0001:00069b31       ?state_transition_table@?$format_validation_base@_WV?$string_output_adapter@_W@__crt_stdio_output@@@__crt_stdio_output@@KAPBEXZ 1006ab31 f i libucrt:output.obj
 0001:00069b37       ?state_transition_table@?$standard_base@DV?$stream_output_adapter@D@__crt_stdio_output@@@__crt_stdio_output@@KAPBEXZ 1006ab37 f i libucrt:output.obj
 0001:00069b3d       ?state_transition_table@?$standard_base@DV?$string_output_adapter@D@__crt_stdio_output@@@__crt_stdio_output@@KAPBEXZ 1006ab3d f i libucrt:output.obj
 0001:00069b43       ?state_transition_table@?$standard_base@_WV?$stream_output_adapter@_W@__crt_stdio_output@@@__crt_stdio_output@@KAPBEXZ 1006ab43 f i libucrt:output.obj
 0001:00069b49       ?state_transition_table@?$standard_base@_WV?$string_output_adapter@_W@__crt_stdio_output@@@__crt_stdio_output@@KAPBEXZ 1006ab49 f i libucrt:output.obj
 0001:00069b4f       ?tchar_string@?$common_data@D@__crt_stdio_output@@IAEAAPADD@Z 1006ab4f f i libucrt:output.obj
 0001:00069b55       ?tchar_string@?$common_data@D@__crt_stdio_output@@IAEAAPADXZ 1006ab55 f i libucrt:output.obj
 0001:00069b59       ?tchar_string@?$common_data@_W@__crt_stdio_output@@IAEAAPA_WXZ 1006ab59 f i libucrt:output.obj
 0001:00069b5d       ?tchar_string@?$common_data@_W@__crt_stdio_output@@IAEAAPA_W_W@Z 1006ab5d f i libucrt:output.obj
 0001:00069b63       ?to_integer_size@__crt_stdio_output@@YAIW4length_modifier@1@@Z 1006ab63 f i libucrt:output.obj
 0001:00069bcc       ?type_case_X@?$output_processor@DV?$stream_output_adapter@D@__crt_stdio_output@@V?$format_validation_base@DV?$stream_output_adapter@D@__crt_stdio_output@@@2@@__crt_stdio_output@@AAE_NXZ 1006abcc f i libucrt:output.obj
 0001:00069bd8       ?type_case_X@?$output_processor@DV?$stream_output_adapter@D@__crt_stdio_output@@V?$positional_parameter_base@DV?$stream_output_adapter@D@__crt_stdio_output@@@2@@__crt_stdio_output@@AAE_NXZ 1006abd8 f i libucrt:output.obj
 0001:00069be4       ?type_case_X@?$output_processor@DV?$stream_output_adapter@D@__crt_stdio_output@@V?$standard_base@DV?$stream_output_adapter@D@__crt_stdio_output@@@2@@__crt_stdio_output@@AAE_NXZ 1006abe4 f i libucrt:output.obj
 0001:00069bf0       ?type_case_X@?$output_processor@DV?$string_output_adapter@D@__crt_stdio_output@@V?$format_validation_base@DV?$string_output_adapter@D@__crt_stdio_output@@@2@@__crt_stdio_output@@AAE_NXZ 1006abf0 f i libucrt:output.obj
 0001:00069bfc       ?type_case_X@?$output_processor@DV?$string_output_adapter@D@__crt_stdio_output@@V?$positional_parameter_base@DV?$string_output_adapter@D@__crt_stdio_output@@@2@@__crt_stdio_output@@AAE_NXZ 1006abfc f i libucrt:output.obj
 0001:00069c08       ?type_case_X@?$output_processor@DV?$string_output_adapter@D@__crt_stdio_output@@V?$standard_base@DV?$string_output_adapter@D@__crt_stdio_output@@@2@@__crt_stdio_output@@AAE_NXZ 1006ac08 f i libucrt:output.obj
 0001:00069c14       ?type_case_X@?$output_processor@_WV?$stream_output_adapter@_W@__crt_stdio_output@@V?$format_validation_base@_WV?$stream_output_adapter@_W@__crt_stdio_output@@@2@@__crt_stdio_output@@AAE_NXZ 1006ac14 f i libucrt:output.obj
 0001:00069c20       ?type_case_X@?$output_processor@_WV?$stream_output_adapter@_W@__crt_stdio_output@@V?$positional_parameter_base@_WV?$stream_output_adapter@_W@__crt_stdio_output@@@2@@__crt_stdio_output@@AAE_NXZ 1006ac20 f i libucrt:output.obj
 0001:00069c2c       ?type_case_X@?$output_processor@_WV?$stream_output_adapter@_W@__crt_stdio_output@@V?$standard_base@_WV?$stream_output_adapter@_W@__crt_stdio_output@@@2@@__crt_stdio_output@@AAE_NXZ 1006ac2c f i libucrt:output.obj
 0001:00069c38       ?type_case_X@?$output_processor@_WV?$string_output_adapter@_W@__crt_stdio_output@@V?$format_validation_base@_WV?$string_output_adapter@_W@__crt_stdio_output@@@2@@__crt_stdio_output@@AAE_NXZ 1006ac38 f i libucrt:output.obj
 0001:00069c44       ?type_case_X@?$output_processor@_WV?$string_output_adapter@_W@__crt_stdio_output@@V?$positional_parameter_base@_WV?$string_output_adapter@_W@__crt_stdio_output@@@2@@__crt_stdio_output@@AAE_NXZ 1006ac44 f i libucrt:output.obj
 0001:00069c50       ?type_case_X@?$output_processor@_WV?$string_output_adapter@_W@__crt_stdio_output@@V?$standard_base@_WV?$string_output_adapter@_W@__crt_stdio_output@@@2@@__crt_stdio_output@@AAE_NXZ 1006ac50 f i libucrt:output.obj
 0001:00069c5c       ?type_case_Z@?$output_processor@DV?$stream_output_adapter@D@__crt_stdio_output@@V?$format_validation_base@DV?$stream_output_adapter@D@__crt_stdio_output@@@2@@__crt_stdio_output@@AAE_NXZ 1006ac5c f i libucrt:output.obj
 0001:00069ccf       ?type_case_Z@?$output_processor@DV?$stream_output_adapter@D@__crt_stdio_output@@V?$positional_parameter_base@DV?$stream_output_adapter@D@__crt_stdio_output@@@2@@__crt_stdio_output@@AAE_NXZ 1006accf f i libucrt:output.obj
 0001:00069ddf       ?type_case_Z@?$output_processor@DV?$stream_output_adapter@D@__crt_stdio_output@@V?$standard_base@DV?$stream_output_adapter@D@__crt_stdio_output@@@2@@__crt_stdio_output@@AAE_NXZ 1006addf f i libucrt:output.obj
 0001:00069e52       ?type_case_Z@?$output_processor@DV?$string_output_adapter@D@__crt_stdio_output@@V?$format_validation_base@DV?$string_output_adapter@D@__crt_stdio_output@@@2@@__crt_stdio_output@@AAE_NXZ 1006ae52 f i libucrt:output.obj
 0001:00069ec5       ?type_case_Z@?$output_processor@DV?$string_output_adapter@D@__crt_stdio_output@@V?$positional_parameter_base@DV?$string_output_adapter@D@__crt_stdio_output@@@2@@__crt_stdio_output@@AAE_NXZ 1006aec5 f i libucrt:output.obj
 0001:00069fd5       ?type_case_Z@?$output_processor@DV?$string_output_adapter@D@__crt_stdio_output@@V?$standard_base@DV?$string_output_adapter@D@__crt_stdio_output@@@2@@__crt_stdio_output@@AAE_NXZ 1006afd5 f i libucrt:output.obj
 0001:0006a048       ?type_case_Z@?$output_processor@_WV?$stream_output_adapter@_W@__crt_stdio_output@@V?$format_validation_base@_WV?$stream_output_adapter@_W@__crt_stdio_output@@@2@@__crt_stdio_output@@AAE_NXZ 1006b048 f i libucrt:output.obj
 0001:0006a0bb       ?type_case_Z@?$output_processor@_WV?$stream_output_adapter@_W@__crt_stdio_output@@V?$positional_parameter_base@_WV?$stream_output_adapter@_W@__crt_stdio_output@@@2@@__crt_stdio_output@@AAE_NXZ 1006b0bb f i libucrt:output.obj
 0001:0006a1cb       ?type_case_Z@?$output_processor@_WV?$stream_output_adapter@_W@__crt_stdio_output@@V?$standard_base@_WV?$stream_output_adapter@_W@__crt_stdio_output@@@2@@__crt_stdio_output@@AAE_NXZ 1006b1cb f i libucrt:output.obj
 0001:0006a23e       ?type_case_Z@?$output_processor@_WV?$string_output_adapter@_W@__crt_stdio_output@@V?$format_validation_base@_WV?$string_output_adapter@_W@__crt_stdio_output@@@2@@__crt_stdio_output@@AAE_NXZ 1006b23e f i libucrt:output.obj
 0001:0006a2b1       ?type_case_Z@?$output_processor@_WV?$string_output_adapter@_W@__crt_stdio_output@@V?$positional_parameter_base@_WV?$string_output_adapter@_W@__crt_stdio_output@@@2@@__crt_stdio_output@@AAE_NXZ 1006b2b1 f i libucrt:output.obj
 0001:0006a3c1       ?type_case_Z@?$output_processor@_WV?$string_output_adapter@_W@__crt_stdio_output@@V?$standard_base@_WV?$string_output_adapter@_W@__crt_stdio_output@@@2@@__crt_stdio_output@@AAE_NXZ 1006b3c1 f i libucrt:output.obj
 0001:0006a434       ?type_case_a@?$output_processor@DV?$stream_output_adapter@D@__crt_stdio_output@@V?$format_validation_base@DV?$stream_output_adapter@D@__crt_stdio_output@@@2@@__crt_stdio_output@@AAE_NXZ 1006b434 f i libucrt:output.obj
 0001:0006a5e3       ?type_case_a@?$output_processor@DV?$stream_output_adapter@D@__crt_stdio_output@@V?$positional_parameter_base@DV?$stream_output_adapter@D@__crt_stdio_output@@@2@@__crt_stdio_output@@AAE_NXZ 1006b5e3 f i libucrt:output.obj
 0001:0006a7bf       ?type_case_a@?$output_processor@DV?$stream_output_adapter@D@__crt_stdio_output@@V?$standard_base@DV?$stream_output_adapter@D@__crt_stdio_output@@@2@@__crt_stdio_output@@AAE_NXZ 1006b7bf f i libucrt:output.obj
 0001:0006a96e       ?type_case_a@?$output_processor@DV?$string_output_adapter@D@__crt_stdio_output@@V?$format_validation_base@DV?$string_output_adapter@D@__crt_stdio_output@@@2@@__crt_stdio_output@@AAE_NXZ 1006b96e f i libucrt:output.obj
 0001:0006ab1d       ?type_case_a@?$output_processor@DV?$string_output_adapter@D@__crt_stdio_output@@V?$positional_parameter_base@DV?$string_output_adapter@D@__crt_stdio_output@@@2@@__crt_stdio_output@@AAE_NXZ 1006bb1d f i libucrt:output.obj
 0001:0006acf9       ?type_case_a@?$output_processor@DV?$string_output_adapter@D@__crt_stdio_output@@V?$standard_base@DV?$string_output_adapter@D@__crt_stdio_output@@@2@@__crt_stdio_output@@AAE_NXZ 1006bcf9 f i libucrt:output.obj
 0001:0006aea8       ?type_case_a@?$output_processor@_WV?$stream_output_adapter@_W@__crt_stdio_output@@V?$format_validation_base@_WV?$stream_output_adapter@_W@__crt_stdio_output@@@2@@__crt_stdio_output@@AAE_NXZ 1006bea8 f i libucrt:output.obj
 0001:0006b072       ?type_case_a@?$output_processor@_WV?$stream_output_adapter@_W@__crt_stdio_output@@V?$positional_parameter_base@_WV?$stream_output_adapter@_W@__crt_stdio_output@@@2@@__crt_stdio_output@@AAE_NXZ 1006c072 f i libucrt:output.obj
 0001:0006b269       ?type_case_a@?$output_processor@_WV?$stream_output_adapter@_W@__crt_stdio_output@@V?$standard_base@_WV?$stream_output_adapter@_W@__crt_stdio_output@@@2@@__crt_stdio_output@@AAE_NXZ 1006c269 f i libucrt:output.obj
 0001:0006b433       ?type_case_a@?$output_processor@_WV?$string_output_adapter@_W@__crt_stdio_output@@V?$format_validation_base@_WV?$string_output_adapter@_W@__crt_stdio_output@@@2@@__crt_stdio_output@@AAE_NXZ 1006c433 f i libucrt:output.obj
 0001:0006b5fd       ?type_case_a@?$output_processor@_WV?$string_output_adapter@_W@__crt_stdio_output@@V?$positional_parameter_base@_WV?$string_output_adapter@_W@__crt_stdio_output@@@2@@__crt_stdio_output@@AAE_NXZ 1006c5fd f i libucrt:output.obj
 0001:0006b7f4       ?type_case_a@?$output_processor@_WV?$string_output_adapter@_W@__crt_stdio_output@@V?$standard_base@_WV?$string_output_adapter@_W@__crt_stdio_output@@@2@@__crt_stdio_output@@AAE_NXZ 1006c7f4 f i libucrt:output.obj
 0001:0006b9be       ?type_case_c@?$output_processor@DV?$stream_output_adapter@D@__crt_stdio_output@@V?$format_validation_base@DV?$stream_output_adapter@D@__crt_stdio_output@@@2@@__crt_stdio_output@@AAE_NXZ 1006c9be f i libucrt:output.obj
 0001:0006b9c8       ?type_case_c@?$output_processor@DV?$stream_output_adapter@D@__crt_stdio_output@@V?$positional_parameter_base@DV?$stream_output_adapter@D@__crt_stdio_output@@@2@@__crt_stdio_output@@AAE_NXZ 1006c9c8 f i libucrt:output.obj
 0001:0006b9d2       ?type_case_c@?$output_processor@DV?$stream_output_adapter@D@__crt_stdio_output@@V?$standard_base@DV?$stream_output_adapter@D@__crt_stdio_output@@@2@@__crt_stdio_output@@AAE_NXZ 1006c9d2 f i libucrt:output.obj
 0001:0006b9dc       ?type_case_c@?$output_processor@DV?$string_output_adapter@D@__crt_stdio_output@@V?$format_validation_base@DV?$string_output_adapter@D@__crt_stdio_output@@@2@@__crt_stdio_output@@AAE_NXZ 1006c9dc f i libucrt:output.obj
 0001:0006b9e6       ?type_case_c@?$output_processor@DV?$string_output_adapter@D@__crt_stdio_output@@V?$positional_parameter_base@DV?$string_output_adapter@D@__crt_stdio_output@@@2@@__crt_stdio_output@@AAE_NXZ 1006c9e6 f i libucrt:output.obj
 0001:0006b9f0       ?type_case_c@?$output_processor@DV?$string_output_adapter@D@__crt_stdio_output@@V?$standard_base@DV?$string_output_adapter@D@__crt_stdio_output@@@2@@__crt_stdio_output@@AAE_NXZ 1006c9f0 f i libucrt:output.obj
 0001:0006b9fa       ?type_case_c@?$output_processor@_WV?$stream_output_adapter@_W@__crt_stdio_output@@V?$format_validation_base@_WV?$stream_output_adapter@_W@__crt_stdio_output@@@2@@__crt_stdio_output@@AAE_NXZ 1006c9fa f i libucrt:output.obj
 0001:0006ba04       ?type_case_c@?$output_processor@_WV?$stream_output_adapter@_W@__crt_stdio_output@@V?$positional_parameter_base@_WV?$stream_output_adapter@_W@__crt_stdio_output@@@2@@__crt_stdio_output@@AAE_NXZ 1006ca04 f i libucrt:output.obj
 0001:0006ba0e       ?type_case_c@?$output_processor@_WV?$stream_output_adapter@_W@__crt_stdio_output@@V?$standard_base@_WV?$stream_output_adapter@_W@__crt_stdio_output@@@2@@__crt_stdio_output@@AAE_NXZ 1006ca0e f i libucrt:output.obj
 0001:0006ba18       ?type_case_c@?$output_processor@_WV?$string_output_adapter@_W@__crt_stdio_output@@V?$format_validation_base@_WV?$string_output_adapter@_W@__crt_stdio_output@@@2@@__crt_stdio_output@@AAE_NXZ 1006ca18 f i libucrt:output.obj
 0001:0006ba22       ?type_case_c@?$output_processor@_WV?$string_output_adapter@_W@__crt_stdio_output@@V?$positional_parameter_base@_WV?$string_output_adapter@_W@__crt_stdio_output@@@2@@__crt_stdio_output@@AAE_NXZ 1006ca22 f i libucrt:output.obj
 0001:0006ba2c       ?type_case_c@?$output_processor@_WV?$string_output_adapter@_W@__crt_stdio_output@@V?$standard_base@_WV?$string_output_adapter@_W@__crt_stdio_output@@@2@@__crt_stdio_output@@AAE_NXZ 1006ca2c f i libucrt:output.obj
 0001:0006ba36       ?type_case_c_tchar@?$output_processor@DV?$stream_output_adapter@D@__crt_stdio_output@@V?$format_validation_base@DV?$stream_output_adapter@D@__crt_stdio_output@@@2@@__crt_stdio_output@@AAE_ND@Z 1006ca36 f i libucrt:output.obj
 0001:0006baea       ?type_case_c_tchar@?$output_processor@DV?$stream_output_adapter@D@__crt_stdio_output@@V?$positional_parameter_base@DV?$stream_output_adapter@D@__crt_stdio_output@@@2@@__crt_stdio_output@@AAE_ND@Z 1006caea f i libucrt:output.obj
 0001:0006bbda       ?type_case_c_tchar@?$output_processor@DV?$stream_output_adapter@D@__crt_stdio_output@@V?$standard_base@DV?$stream_output_adapter@D@__crt_stdio_output@@@2@@__crt_stdio_output@@AAE_ND@Z 1006cbda f i libucrt:output.obj
 0001:0006bc8e       ?type_case_c_tchar@?$output_processor@DV?$string_output_adapter@D@__crt_stdio_output@@V?$format_validation_base@DV?$string_output_adapter@D@__crt_stdio_output@@@2@@__crt_stdio_output@@AAE_ND@Z 1006cc8e f i libucrt:output.obj
 0001:0006bd42       ?type_case_c_tchar@?$output_processor@DV?$string_output_adapter@D@__crt_stdio_output@@V?$positional_parameter_base@DV?$string_output_adapter@D@__crt_stdio_output@@@2@@__crt_stdio_output@@AAE_ND@Z 1006cd42 f i libucrt:output.obj
 0001:0006be32       ?type_case_c_tchar@?$output_processor@DV?$string_output_adapter@D@__crt_stdio_output@@V?$standard_base@DV?$string_output_adapter@D@__crt_stdio_output@@@2@@__crt_stdio_output@@AAE_ND@Z 1006ce32 f i libucrt:output.obj
 0001:0006bee6       ?type_case_c_tchar@?$output_processor@_WV?$stream_output_adapter@_W@__crt_stdio_output@@V?$format_validation_base@_WV?$stream_output_adapter@_W@__crt_stdio_output@@@2@@__crt_stdio_output@@AAE_N_W@Z 1006cee6 f i libucrt:output.obj
 0001:0006bfa4       ?type_case_c_tchar@?$output_processor@_WV?$stream_output_adapter@_W@__crt_stdio_output@@V?$positional_parameter_base@_WV?$stream_output_adapter@_W@__crt_stdio_output@@@2@@__crt_stdio_output@@AAE_N_W@Z 1006cfa4 f i libucrt:output.obj
 0001:0006c07e       ?type_case_c_tchar@?$output_processor@_WV?$stream_output_adapter@_W@__crt_stdio_output@@V?$standard_base@_WV?$stream_output_adapter@_W@__crt_stdio_output@@@2@@__crt_stdio_output@@AAE_N_W@Z 1006d07e f i libucrt:output.obj
 0001:0006c13c       ?type_case_c_tchar@?$output_processor@_WV?$string_output_adapter@_W@__crt_stdio_output@@V?$format_validation_base@_WV?$string_output_adapter@_W@__crt_stdio_output@@@2@@__crt_stdio_output@@AAE_N_W@Z 1006d13c f i libucrt:output.obj
 0001:0006c1fa       ?type_case_c_tchar@?$output_processor@_WV?$string_output_adapter@_W@__crt_stdio_output@@V?$positional_parameter_base@_WV?$string_output_adapter@_W@__crt_stdio_output@@@2@@__crt_stdio_output@@AAE_N_W@Z 1006d1fa f i libucrt:output.obj
 0001:0006c2d4       ?type_case_c_tchar@?$output_processor@_WV?$string_output_adapter@_W@__crt_stdio_output@@V?$standard_base@_WV?$string_output_adapter@_W@__crt_stdio_output@@@2@@__crt_stdio_output@@AAE_N_W@Z 1006d2d4 f i libucrt:output.obj
 0001:0006c392       ?type_case_d@?$output_processor@DV?$stream_output_adapter@D@__crt_stdio_output@@V?$format_validation_base@DV?$stream_output_adapter@D@__crt_stdio_output@@@2@@__crt_stdio_output@@AAE_NXZ 1006d392 f i libucrt:output.obj
 0001:0006c3a3       ?type_case_d@?$output_processor@DV?$stream_output_adapter@D@__crt_stdio_output@@V?$positional_parameter_base@DV?$stream_output_adapter@D@__crt_stdio_output@@@2@@__crt_stdio_output@@AAE_NXZ 1006d3a3 f i libucrt:output.obj
 0001:0006c3b4       ?type_case_d@?$output_processor@DV?$stream_output_adapter@D@__crt_stdio_output@@V?$standard_base@DV?$stream_output_adapter@D@__crt_stdio_output@@@2@@__crt_stdio_output@@AAE_NXZ 1006d3b4 f i libucrt:output.obj
 0001:0006c3c5       ?type_case_d@?$output_processor@DV?$string_output_adapter@D@__crt_stdio_output@@V?$format_validation_base@DV?$string_output_adapter@D@__crt_stdio_output@@@2@@__crt_stdio_output@@AAE_NXZ 1006d3c5 f i libucrt:output.obj
 0001:0006c3d6       ?type_case_d@?$output_processor@DV?$string_output_adapter@D@__crt_stdio_output@@V?$positional_parameter_base@DV?$string_output_adapter@D@__crt_stdio_output@@@2@@__crt_stdio_output@@AAE_NXZ 1006d3d6 f i libucrt:output.obj
 0001:0006c3e7       ?type_case_d@?$output_processor@DV?$string_output_adapter@D@__crt_stdio_output@@V?$standard_base@DV?$string_output_adapter@D@__crt_stdio_output@@@2@@__crt_stdio_output@@AAE_NXZ 1006d3e7 f i libucrt:output.obj
 0001:0006c3f8       ?type_case_d@?$output_processor@_WV?$stream_output_adapter@_W@__crt_stdio_output@@V?$format_validation_base@_WV?$stream_output_adapter@_W@__crt_stdio_output@@@2@@__crt_stdio_output@@AAE_NXZ 1006d3f8 f i libucrt:output.obj
 0001:0006c409       ?type_case_d@?$output_processor@_WV?$stream_output_adapter@_W@__crt_stdio_output@@V?$positional_parameter_base@_WV?$stream_output_adapter@_W@__crt_stdio_output@@@2@@__crt_stdio_output@@AAE_NXZ 1006d409 f i libucrt:output.obj
 0001:0006c41a       ?type_case_d@?$output_processor@_WV?$stream_output_adapter@_W@__crt_stdio_output@@V?$standard_base@_WV?$stream_output_adapter@_W@__crt_stdio_output@@@2@@__crt_stdio_output@@AAE_NXZ 1006d41a f i libucrt:output.obj
 0001:0006c42b       ?type_case_d@?$output_processor@_WV?$string_output_adapter@_W@__crt_stdio_output@@V?$format_validation_base@_WV?$string_output_adapter@_W@__crt_stdio_output@@@2@@__crt_stdio_output@@AAE_NXZ 1006d42b f i libucrt:output.obj
 0001:0006c43c       ?type_case_d@?$output_processor@_WV?$string_output_adapter@_W@__crt_stdio_output@@V?$positional_parameter_base@_WV?$string_output_adapter@_W@__crt_stdio_output@@@2@@__crt_stdio_output@@AAE_NXZ 1006d43c f i libucrt:output.obj
 0001:0006c44d       ?type_case_d@?$output_processor@_WV?$string_output_adapter@_W@__crt_stdio_output@@V?$standard_base@_WV?$string_output_adapter@_W@__crt_stdio_output@@@2@@__crt_stdio_output@@AAE_NXZ 1006d44d f i libucrt:output.obj
 0001:0006c45e       ?type_case_integer@?$output_processor@DV?$stream_output_adapter@D@__crt_stdio_output@@V?$format_validation_base@DV?$stream_output_adapter@D@__crt_stdio_output@@@2@@__crt_stdio_output@@AAE_NI_N@Z 1006d45e f i libucrt:output.obj
 0001:0006c605       ?type_case_integer@?$output_processor@DV?$stream_output_adapter@D@__crt_stdio_output@@V?$positional_parameter_base@DV?$stream_output_adapter@D@__crt_stdio_output@@@2@@__crt_stdio_output@@AAE_NI_N@Z 1006d605 f i libucrt:output.obj
 0001:0006c7e8       ?type_case_integer@?$output_processor@DV?$stream_output_adapter@D@__crt_stdio_output@@V?$standard_base@DV?$stream_output_adapter@D@__crt_stdio_output@@@2@@__crt_stdio_output@@AAE_NI_N@Z 1006d7e8 f i libucrt:output.obj
 0001:0006c98f       ?type_case_integer@?$output_processor@DV?$string_output_adapter@D@__crt_stdio_output@@V?$format_validation_base@DV?$string_output_adapter@D@__crt_stdio_output@@@2@@__crt_stdio_output@@AAE_NI_N@Z 1006d98f f i libucrt:output.obj
 0001:0006cb36       ?type_case_integer@?$output_processor@DV?$string_output_adapter@D@__crt_stdio_output@@V?$positional_parameter_base@DV?$string_output_adapter@D@__crt_stdio_output@@@2@@__crt_stdio_output@@AAE_NI_N@Z 1006db36 f i libucrt:output.obj
 0001:0006cd19       ?type_case_integer@?$output_processor@DV?$string_output_adapter@D@__crt_stdio_output@@V?$standard_base@DV?$string_output_adapter@D@__crt_stdio_output@@@2@@__crt_stdio_output@@AAE_NI_N@Z 1006dd19 f i libucrt:output.obj
 0001:0006cec0       ?type_case_integer@?$output_processor@_WV?$stream_output_adapter@_W@__crt_stdio_output@@V?$format_validation_base@_WV?$stream_output_adapter@_W@__crt_stdio_output@@@2@@__crt_stdio_output@@AAE_NI_N@Z 1006dec0 f i libucrt:output.obj
 0001:0006d06c       ?type_case_integer@?$output_processor@_WV?$stream_output_adapter@_W@__crt_stdio_output@@V?$positional_parameter_base@_WV?$stream_output_adapter@_W@__crt_stdio_output@@@2@@__crt_stdio_output@@AAE_NI_N@Z 1006e06c f i libucrt:output.obj
 0001:0006d254       ?type_case_integer@?$output_processor@_WV?$stream_output_adapter@_W@__crt_stdio_output@@V?$standard_base@_WV?$stream_output_adapter@_W@__crt_stdio_output@@@2@@__crt_stdio_output@@AAE_NI_N@Z 1006e254 f i libucrt:output.obj
 0001:0006d400       ?type_case_integer@?$output_processor@_WV?$string_output_adapter@_W@__crt_stdio_output@@V?$format_validation_base@_WV?$string_output_adapter@_W@__crt_stdio_output@@@2@@__crt_stdio_output@@AAE_NI_N@Z 1006e400 f i libucrt:output.obj
 0001:0006d5ac       ?type_case_integer@?$output_processor@_WV?$string_output_adapter@_W@__crt_stdio_output@@V?$positional_parameter_base@_WV?$string_output_adapter@_W@__crt_stdio_output@@@2@@__crt_stdio_output@@AAE_NI_N@Z 1006e5ac f i libucrt:output.obj
 0001:0006d794       ?type_case_integer@?$output_processor@_WV?$string_output_adapter@_W@__crt_stdio_output@@V?$standard_base@_WV?$string_output_adapter@_W@__crt_stdio_output@@@2@@__crt_stdio_output@@AAE_NI_N@Z 1006e794 f i libucrt:output.obj
 0001:0006d940       ?type_case_n@?$output_processor@DV?$stream_output_adapter@D@__crt_stdio_output@@V?$format_validation_base@DV?$stream_output_adapter@D@__crt_stdio_output@@@2@@__crt_stdio_output@@AAE_NXZ 1006e940 f i libucrt:output.obj
 0001:0006d9d1       ?type_case_n@?$output_processor@DV?$stream_output_adapter@D@__crt_stdio_output@@V?$positional_parameter_base@DV?$stream_output_adapter@D@__crt_stdio_output@@@2@@__crt_stdio_output@@AAE_NXZ 1006e9d1 f i libucrt:output.obj
 0001:0006da90       ?type_case_n@?$output_processor@DV?$stream_output_adapter@D@__crt_stdio_output@@V?$standard_base@DV?$stream_output_adapter@D@__crt_stdio_output@@@2@@__crt_stdio_output@@AAE_NXZ 1006ea90 f i libucrt:output.obj
 0001:0006db21       ?type_case_n@?$output_processor@DV?$string_output_adapter@D@__crt_stdio_output@@V?$format_validation_base@DV?$string_output_adapter@D@__crt_stdio_output@@@2@@__crt_stdio_output@@AAE_NXZ 1006eb21 f i libucrt:output.obj
 0001:0006dbb2       ?type_case_n@?$output_processor@DV?$string_output_adapter@D@__crt_stdio_output@@V?$positional_parameter_base@DV?$string_output_adapter@D@__crt_stdio_output@@@2@@__crt_stdio_output@@AAE_NXZ 1006ebb2 f i libucrt:output.obj
 0001:0006dc71       ?type_case_n@?$output_processor@DV?$string_output_adapter@D@__crt_stdio_output@@V?$standard_base@DV?$string_output_adapter@D@__crt_stdio_output@@@2@@__crt_stdio_output@@AAE_NXZ 1006ec71 f i libucrt:output.obj
 0001:0006dd02       ?type_case_n@?$output_processor@_WV?$stream_output_adapter@_W@__crt_stdio_output@@V?$format_validation_base@_WV?$stream_output_adapter@_W@__crt_stdio_output@@@2@@__crt_stdio_output@@AAE_NXZ 1006ed02 f i libucrt:output.obj
 0001:0006dd93       ?type_case_n@?$output_processor@_WV?$stream_output_adapter@_W@__crt_stdio_output@@V?$positional_parameter_base@_WV?$stream_output_adapter@_W@__crt_stdio_output@@@2@@__crt_stdio_output@@AAE_NXZ 1006ed93 f i libucrt:output.obj
 0001:0006de52       ?type_case_n@?$output_processor@_WV?$stream_output_adapter@_W@__crt_stdio_output@@V?$standard_base@_WV?$stream_output_adapter@_W@__crt_stdio_output@@@2@@__crt_stdio_output@@AAE_NXZ 1006ee52 f i libucrt:output.obj
 0001:0006dee3       ?type_case_n@?$output_processor@_WV?$string_output_adapter@_W@__crt_stdio_output@@V?$format_validation_base@_WV?$string_output_adapter@_W@__crt_stdio_output@@@2@@__crt_stdio_output@@AAE_NXZ 1006eee3 f i libucrt:output.obj
 0001:0006df74       ?type_case_n@?$output_processor@_WV?$string_output_adapter@_W@__crt_stdio_output@@V?$positional_parameter_base@_WV?$string_output_adapter@_W@__crt_stdio_output@@@2@@__crt_stdio_output@@AAE_NXZ 1006ef74 f i libucrt:output.obj
 0001:0006e033       ?type_case_n@?$output_processor@_WV?$string_output_adapter@_W@__crt_stdio_output@@V?$standard_base@_WV?$string_output_adapter@_W@__crt_stdio_output@@@2@@__crt_stdio_output@@AAE_NXZ 1006f033 f i libucrt:output.obj
 0001:0006e0c4       ?type_case_o@?$output_processor@DV?$stream_output_adapter@D@__crt_stdio_output@@V?$format_validation_base@DV?$stream_output_adapter@D@__crt_stdio_output@@@2@@__crt_stdio_output@@AAE_NXZ 1006f0c4 f i libucrt:output.obj
 0001:0006e0ea       ?type_case_o@?$output_processor@DV?$stream_output_adapter@D@__crt_stdio_output@@V?$positional_parameter_base@DV?$stream_output_adapter@D@__crt_stdio_output@@@2@@__crt_stdio_output@@AAE_NXZ 1006f0ea f i libucrt:output.obj
 0001:0006e110       ?type_case_o@?$output_processor@DV?$stream_output_adapter@D@__crt_stdio_output@@V?$standard_base@DV?$stream_output_adapter@D@__crt_stdio_output@@@2@@__crt_stdio_output@@AAE_NXZ 1006f110 f i libucrt:output.obj
 0001:0006e136       ?type_case_o@?$output_processor@DV?$string_output_adapter@D@__crt_stdio_output@@V?$format_validation_base@DV?$string_output_adapter@D@__crt_stdio_output@@@2@@__crt_stdio_output@@AAE_NXZ 1006f136 f i libucrt:output.obj
 0001:0006e15c       ?type_case_o@?$output_processor@DV?$string_output_adapter@D@__crt_stdio_output@@V?$positional_parameter_base@DV?$string_output_adapter@D@__crt_stdio_output@@@2@@__crt_stdio_output@@AAE_NXZ 1006f15c f i libucrt:output.obj
 0001:0006e182       ?type_case_o@?$output_processor@DV?$string_output_adapter@D@__crt_stdio_output@@V?$standard_base@DV?$string_output_adapter@D@__crt_stdio_output@@@2@@__crt_stdio_output@@AAE_NXZ 1006f182 f i libucrt:output.obj
 0001:0006e1a8       ?type_case_o@?$output_processor@_WV?$stream_output_adapter@_W@__crt_stdio_output@@V?$format_validation_base@_WV?$stream_output_adapter@_W@__crt_stdio_output@@@2@@__crt_stdio_output@@AAE_NXZ 1006f1a8 f i libucrt:output.obj
 0001:0006e1ce       ?type_case_o@?$output_processor@_WV?$stream_output_adapter@_W@__crt_stdio_output@@V?$positional_parameter_base@_WV?$stream_output_adapter@_W@__crt_stdio_output@@@2@@__crt_stdio_output@@AAE_NXZ 1006f1ce f i libucrt:output.obj
 0001:0006e1f4       ?type_case_o@?$output_processor@_WV?$stream_output_adapter@_W@__crt_stdio_output@@V?$standard_base@_WV?$stream_output_adapter@_W@__crt_stdio_output@@@2@@__crt_stdio_output@@AAE_NXZ 1006f1f4 f i libucrt:output.obj
 0001:0006e21a       ?type_case_o@?$output_processor@_WV?$string_output_adapter@_W@__crt_stdio_output@@V?$format_validation_base@_WV?$string_output_adapter@_W@__crt_stdio_output@@@2@@__crt_stdio_output@@AAE_NXZ 1006f21a f i libucrt:output.obj
 0001:0006e240       ?type_case_o@?$output_processor@_WV?$string_output_adapter@_W@__crt_stdio_output@@V?$positional_parameter_base@_WV?$string_output_adapter@_W@__crt_stdio_output@@@2@@__crt_stdio_output@@AAE_NXZ 1006f240 f i libucrt:output.obj
 0001:0006e266       ?type_case_o@?$output_processor@_WV?$string_output_adapter@_W@__crt_stdio_output@@V?$standard_base@_WV?$string_output_adapter@_W@__crt_stdio_output@@@2@@__crt_stdio_output@@AAE_NXZ 1006f266 f i libucrt:output.obj
 0001:0006e28c       ?type_case_p@?$output_processor@DV?$stream_output_adapter@D@__crt_stdio_output@@V?$format_validation_base@DV?$stream_output_adapter@D@__crt_stdio_output@@@2@@__crt_stdio_output@@AAE_NXZ 1006f28c f i libucrt:output.obj
 0001:0006e2aa       ?type_case_p@?$output_processor@DV?$stream_output_adapter@D@__crt_stdio_output@@V?$positional_parameter_base@DV?$stream_output_adapter@D@__crt_stdio_output@@@2@@__crt_stdio_output@@AAE_NXZ 1006f2aa f i libucrt:output.obj
 0001:0006e2c8       ?type_case_p@?$output_processor@DV?$stream_output_adapter@D@__crt_stdio_output@@V?$standard_base@DV?$stream_output_adapter@D@__crt_stdio_output@@@2@@__crt_stdio_output@@AAE_NXZ 1006f2c8 f i libucrt:output.obj
 0001:0006e2e6       ?type_case_p@?$output_processor@DV?$string_output_adapter@D@__crt_stdio_output@@V?$format_validation_base@DV?$string_output_adapter@D@__crt_stdio_output@@@2@@__crt_stdio_output@@AAE_NXZ 1006f2e6 f i libucrt:output.obj
 0001:0006e304       ?type_case_p@?$output_processor@DV?$string_output_adapter@D@__crt_stdio_output@@V?$positional_parameter_base@DV?$string_output_adapter@D@__crt_stdio_output@@@2@@__crt_stdio_output@@AAE_NXZ 1006f304 f i libucrt:output.obj
 0001:0006e322       ?type_case_p@?$output_processor@DV?$string_output_adapter@D@__crt_stdio_output@@V?$standard_base@DV?$string_output_adapter@D@__crt_stdio_output@@@2@@__crt_stdio_output@@AAE_NXZ 1006f322 f i libucrt:output.obj
 0001:0006e340       ?type_case_p@?$output_processor@_WV?$stream_output_adapter@_W@__crt_stdio_output@@V?$format_validation_base@_WV?$stream_output_adapter@_W@__crt_stdio_output@@@2@@__crt_stdio_output@@AAE_NXZ 1006f340 f i libucrt:output.obj
 0001:0006e35e       ?type_case_p@?$output_processor@_WV?$stream_output_adapter@_W@__crt_stdio_output@@V?$positional_parameter_base@_WV?$stream_output_adapter@_W@__crt_stdio_output@@@2@@__crt_stdio_output@@AAE_NXZ 1006f35e f i libucrt:output.obj
 0001:0006e37c       ?type_case_p@?$output_processor@_WV?$stream_output_adapter@_W@__crt_stdio_output@@V?$standard_base@_WV?$stream_output_adapter@_W@__crt_stdio_output@@@2@@__crt_stdio_output@@AAE_NXZ 1006f37c f i libucrt:output.obj
 0001:0006e39a       ?type_case_p@?$output_processor@_WV?$string_output_adapter@_W@__crt_stdio_output@@V?$format_validation_base@_WV?$string_output_adapter@_W@__crt_stdio_output@@@2@@__crt_stdio_output@@AAE_NXZ 1006f39a f i libucrt:output.obj
 0001:0006e3b8       ?type_case_p@?$output_processor@_WV?$string_output_adapter@_W@__crt_stdio_output@@V?$positional_parameter_base@_WV?$string_output_adapter@_W@__crt_stdio_output@@@2@@__crt_stdio_output@@AAE_NXZ 1006f3b8 f i libucrt:output.obj
 0001:0006e3d6       ?type_case_p@?$output_processor@_WV?$string_output_adapter@_W@__crt_stdio_output@@V?$standard_base@_WV?$string_output_adapter@_W@__crt_stdio_output@@@2@@__crt_stdio_output@@AAE_NXZ 1006f3d6 f i libucrt:output.obj
 0001:0006e3f4       ?type_case_s@?$output_processor@DV?$stream_output_adapter@D@__crt_stdio_output@@V?$format_validation_base@DV?$stream_output_adapter@D@__crt_stdio_output@@@2@@__crt_stdio_output@@AAE_NXZ 1006f3f4 f i libucrt:output.obj
 0001:0006e481       ?type_case_s@?$output_processor@DV?$stream_output_adapter@D@__crt_stdio_output@@V?$positional_parameter_base@DV?$stream_output_adapter@D@__crt_stdio_output@@@2@@__crt_stdio_output@@AAE_NXZ 1006f481 f i libucrt:output.obj
 0001:0006e51e       ?type_case_s@?$output_processor@DV?$stream_output_adapter@D@__crt_stdio_output@@V?$standard_base@DV?$stream_output_adapter@D@__crt_stdio_output@@@2@@__crt_stdio_output@@AAE_NXZ 1006f51e f i libucrt:output.obj
 0001:0006e5ab       ?type_case_s@?$output_processor@DV?$string_output_adapter@D@__crt_stdio_output@@V?$format_validation_base@DV?$string_output_adapter@D@__crt_stdio_output@@@2@@__crt_stdio_output@@AAE_NXZ 1006f5ab f i libucrt:output.obj
 0001:0006e638       ?type_case_s@?$output_processor@DV?$string_output_adapter@D@__crt_stdio_output@@V?$positional_parameter_base@DV?$string_output_adapter@D@__crt_stdio_output@@@2@@__crt_stdio_output@@AAE_NXZ 1006f638 f i libucrt:output.obj
 0001:0006e6d5       ?type_case_s@?$output_processor@DV?$string_output_adapter@D@__crt_stdio_output@@V?$standard_base@DV?$string_output_adapter@D@__crt_stdio_output@@@2@@__crt_stdio_output@@AAE_NXZ 1006f6d5 f i libucrt:output.obj
 0001:0006e762       ?type_case_s@?$output_processor@_WV?$stream_output_adapter@_W@__crt_stdio_output@@V?$format_validation_base@_WV?$stream_output_adapter@_W@__crt_stdio_output@@@2@@__crt_stdio_output@@AAE_NXZ 1006f762 f i libucrt:output.obj
 0001:0006e7f1       ?type_case_s@?$output_processor@_WV?$stream_output_adapter@_W@__crt_stdio_output@@V?$positional_parameter_base@_WV?$stream_output_adapter@_W@__crt_stdio_output@@@2@@__crt_stdio_output@@AAE_NXZ 1006f7f1 f i libucrt:output.obj
 0001:0006e891       ?type_case_s@?$output_processor@_WV?$stream_output_adapter@_W@__crt_stdio_output@@V?$standard_base@_WV?$stream_output_adapter@_W@__crt_stdio_output@@@2@@__crt_stdio_output@@AAE_NXZ 1006f891 f i libucrt:output.obj
 0001:0006e920       ?type_case_s@?$output_processor@_WV?$string_output_adapter@_W@__crt_stdio_output@@V?$format_validation_base@_WV?$string_output_adapter@_W@__crt_stdio_output@@@2@@__crt_stdio_output@@AAE_NXZ 1006f920 f i libucrt:output.obj
 0001:0006e9af       ?type_case_s@?$output_processor@_WV?$string_output_adapter@_W@__crt_stdio_output@@V?$positional_parameter_base@_WV?$string_output_adapter@_W@__crt_stdio_output@@@2@@__crt_stdio_output@@AAE_NXZ 1006f9af f i libucrt:output.obj
 0001:0006ea4f       ?type_case_s@?$output_processor@_WV?$string_output_adapter@_W@__crt_stdio_output@@V?$standard_base@_WV?$string_output_adapter@_W@__crt_stdio_output@@@2@@__crt_stdio_output@@AAE_NXZ 1006fa4f f i libucrt:output.obj
 0001:0006eade       ?type_case_s_compute_narrow_string_length@?$output_processor@DV?$stream_output_adapter@D@__crt_stdio_output@@V?$format_validation_base@DV?$stream_output_adapter@D@__crt_stdio_output@@@2@@__crt_stdio_output@@ABEHHD@Z 1006fade f i libucrt:output.obj
 0001:0006eaf9       ?type_case_s_compute_narrow_string_length@?$output_processor@DV?$stream_output_adapter@D@__crt_stdio_output@@V?$positional_parameter_base@DV?$stream_output_adapter@D@__crt_stdio_output@@@2@@__crt_stdio_output@@ABEHHD@Z 1006faf9 f i libucrt:output.obj
 0001:0006eb14       ?type_case_s_compute_narrow_string_length@?$output_processor@DV?$stream_output_adapter@D@__crt_stdio_output@@V?$standard_base@DV?$stream_output_adapter@D@__crt_stdio_output@@@2@@__crt_stdio_output@@ABEHHD@Z 1006fb14 f i libucrt:output.obj
 0001:0006eb2f       ?type_case_s_compute_narrow_string_length@?$output_processor@DV?$string_output_adapter@D@__crt_stdio_output@@V?$format_validation_base@DV?$string_output_adapter@D@__crt_stdio_output@@@2@@__crt_stdio_output@@ABEHHD@Z 1006fb2f f i libucrt:output.obj
 0001:0006eb4a       ?type_case_s_compute_narrow_string_length@?$output_processor@DV?$string_output_adapter@D@__crt_stdio_output@@V?$positional_parameter_base@DV?$string_output_adapter@D@__crt_stdio_output@@@2@@__crt_stdio_output@@ABEHHD@Z 1006fb4a f i libucrt:output.obj
 0001:0006eb65       ?type_case_s_compute_narrow_string_length@?$output_processor@DV?$string_output_adapter@D@__crt_stdio_output@@V?$standard_base@DV?$string_output_adapter@D@__crt_stdio_output@@@2@@__crt_stdio_output@@ABEHHD@Z 1006fb65 f i libucrt:output.obj
 0001:0006eb80       ?type_case_s_compute_narrow_string_length@?$output_processor@_WV?$stream_output_adapter@_W@__crt_stdio_output@@V?$format_validation_base@_WV?$stream_output_adapter@_W@__crt_stdio_output@@@2@@__crt_stdio_output@@ABEHH_W@Z 1006fb80 f i libucrt:output.obj
 0001:0006ebd8       ?type_case_s_compute_narrow_string_length@?$output_processor@_WV?$stream_output_adapter@_W@__crt_stdio_output@@V?$positional_parameter_base@_WV?$stream_output_adapter@_W@__crt_stdio_output@@@2@@__crt_stdio_output@@ABEHH_W@Z 1006fbd8 f i libucrt:output.obj
 0001:0006ec30       ?type_case_s_compute_narrow_string_length@?$output_processor@_WV?$stream_output_adapter@_W@__crt_stdio_output@@V?$standard_base@_WV?$stream_output_adapter@_W@__crt_stdio_output@@@2@@__crt_stdio_output@@ABEHH_W@Z 1006fc30 f i libucrt:output.obj
 0001:0006ec88       ?type_case_s_compute_narrow_string_length@?$output_processor@_WV?$string_output_adapter@_W@__crt_stdio_output@@V?$format_validation_base@_WV?$string_output_adapter@_W@__crt_stdio_output@@@2@@__crt_stdio_output@@ABEHH_W@Z 1006fc88 f i libucrt:output.obj
 0001:0006ece0       ?type_case_s_compute_narrow_string_length@?$output_processor@_WV?$string_output_adapter@_W@__crt_stdio_output@@V?$positional_parameter_base@_WV?$string_output_adapter@_W@__crt_stdio_output@@@2@@__crt_stdio_output@@ABEHH_W@Z 1006fce0 f i libucrt:output.obj
 0001:0006ed38       ?type_case_s_compute_narrow_string_length@?$output_processor@_WV?$string_output_adapter@_W@__crt_stdio_output@@V?$standard_base@_WV?$string_output_adapter@_W@__crt_stdio_output@@@2@@__crt_stdio_output@@ABEHH_W@Z 1006fd38 f i libucrt:output.obj
 0001:0006ed90       ?type_case_u@?$output_processor@DV?$stream_output_adapter@D@__crt_stdio_output@@V?$format_validation_base@DV?$stream_output_adapter@D@__crt_stdio_output@@@2@@__crt_stdio_output@@AAE_NXZ 1006fd90 f i libucrt:output.obj
 0001:0006ed9c       ?type_case_u@?$output_processor@DV?$stream_output_adapter@D@__crt_stdio_output@@V?$positional_parameter_base@DV?$stream_output_adapter@D@__crt_stdio_output@@@2@@__crt_stdio_output@@AAE_NXZ 1006fd9c f i libucrt:output.obj
 0001:0006eda8       ?type_case_u@?$output_processor@DV?$stream_output_adapter@D@__crt_stdio_output@@V?$standard_base@DV?$stream_output_adapter@D@__crt_stdio_output@@@2@@__crt_stdio_output@@AAE_NXZ 1006fda8 f i libucrt:output.obj
 0001:0006edb4       ?type_case_u@?$output_processor@DV?$string_output_adapter@D@__crt_stdio_output@@V?$format_validation_base@DV?$string_output_adapter@D@__crt_stdio_output@@@2@@__crt_stdio_output@@AAE_NXZ 1006fdb4 f i libucrt:output.obj
 0001:0006edc0       ?type_case_u@?$output_processor@DV?$string_output_adapter@D@__crt_stdio_output@@V?$positional_parameter_base@DV?$string_output_adapter@D@__crt_stdio_output@@@2@@__crt_stdio_output@@AAE_NXZ 1006fdc0 f i libucrt:output.obj
 0001:0006edcc       ?type_case_u@?$output_processor@DV?$string_output_adapter@D@__crt_stdio_output@@V?$standard_base@DV?$string_output_adapter@D@__crt_stdio_output@@@2@@__crt_stdio_output@@AAE_NXZ 1006fdcc f i libucrt:output.obj
 0001:0006edd8       ?type_case_u@?$output_processor@_WV?$stream_output_adapter@_W@__crt_stdio_output@@V?$format_validation_base@_WV?$stream_output_adapter@_W@__crt_stdio_output@@@2@@__crt_stdio_output@@AAE_NXZ 1006fdd8 f i libucrt:output.obj
 0001:0006ede4       ?type_case_u@?$output_processor@_WV?$stream_output_adapter@_W@__crt_stdio_output@@V?$positional_parameter_base@_WV?$stream_output_adapter@_W@__crt_stdio_output@@@2@@__crt_stdio_output@@AAE_NXZ 1006fde4 f i libucrt:output.obj
 0001:0006edf0       ?type_case_u@?$output_processor@_WV?$stream_output_adapter@_W@__crt_stdio_output@@V?$standard_base@_WV?$stream_output_adapter@_W@__crt_stdio_output@@@2@@__crt_stdio_output@@AAE_NXZ 1006fdf0 f i libucrt:output.obj
 0001:0006edfc       ?type_case_u@?$output_processor@_WV?$string_output_adapter@_W@__crt_stdio_output@@V?$format_validation_base@_WV?$string_output_adapter@_W@__crt_stdio_output@@@2@@__crt_stdio_output@@AAE_NXZ 1006fdfc f i libucrt:output.obj
 0001:0006ee08       ?type_case_u@?$output_processor@_WV?$string_output_adapter@_W@__crt_stdio_output@@V?$positional_parameter_base@_WV?$string_output_adapter@_W@__crt_stdio_output@@@2@@__crt_stdio_output@@AAE_NXZ 1006fe08 f i libucrt:output.obj
 0001:0006ee14       ?type_case_u@?$output_processor@_WV?$string_output_adapter@_W@__crt_stdio_output@@V?$standard_base@_WV?$string_output_adapter@_W@__crt_stdio_output@@@2@@__crt_stdio_output@@AAE_NXZ 1006fe14 f i libucrt:output.obj
 0001:0006ee20       ?type_case_x@?$output_processor@DV?$stream_output_adapter@D@__crt_stdio_output@@V?$format_validation_base@DV?$stream_output_adapter@D@__crt_stdio_output@@@2@@__crt_stdio_output@@AAE_NXZ 1006fe20 f i libucrt:output.obj
 0001:0006ee2c       ?type_case_x@?$output_processor@DV?$stream_output_adapter@D@__crt_stdio_output@@V?$positional_parameter_base@DV?$stream_output_adapter@D@__crt_stdio_output@@@2@@__crt_stdio_output@@AAE_NXZ 1006fe2c f i libucrt:output.obj
 0001:0006ee38       ?type_case_x@?$output_processor@DV?$stream_output_adapter@D@__crt_stdio_output@@V?$standard_base@DV?$stream_output_adapter@D@__crt_stdio_output@@@2@@__crt_stdio_output@@AAE_NXZ 1006fe38 f i libucrt:output.obj
 0001:0006ee44       ?type_case_x@?$output_processor@DV?$string_output_adapter@D@__crt_stdio_output@@V?$format_validation_base@DV?$string_output_adapter@D@__crt_stdio_output@@@2@@__crt_stdio_output@@AAE_NXZ 1006fe44 f i libucrt:output.obj
 0001:0006ee50       ?type_case_x@?$output_processor@DV?$string_output_adapter@D@__crt_stdio_output@@V?$positional_parameter_base@DV?$string_output_adapter@D@__crt_stdio_output@@@2@@__crt_stdio_output@@AAE_NXZ 1006fe50 f i libucrt:output.obj
 0001:0006ee5c       ?type_case_x@?$output_processor@DV?$string_output_adapter@D@__crt_stdio_output@@V?$standard_base@DV?$string_output_adapter@D@__crt_stdio_output@@@2@@__crt_stdio_output@@AAE_NXZ 1006fe5c f i libucrt:output.obj
 0001:0006ee68       ?type_case_x@?$output_processor@_WV?$stream_output_adapter@_W@__crt_stdio_output@@V?$format_validation_base@_WV?$stream_output_adapter@_W@__crt_stdio_output@@@2@@__crt_stdio_output@@AAE_NXZ 1006fe68 f i libucrt:output.obj
 0001:0006ee74       ?type_case_x@?$output_processor@_WV?$stream_output_adapter@_W@__crt_stdio_output@@V?$positional_parameter_base@_WV?$stream_output_adapter@_W@__crt_stdio_output@@@2@@__crt_stdio_output@@AAE_NXZ 1006fe74 f i libucrt:output.obj
 0001:0006ee80       ?type_case_x@?$output_processor@_WV?$stream_output_adapter@_W@__crt_stdio_output@@V?$standard_base@_WV?$stream_output_adapter@_W@__crt_stdio_output@@@2@@__crt_stdio_output@@AAE_NXZ 1006fe80 f i libucrt:output.obj
 0001:0006ee8c       ?type_case_x@?$output_processor@_WV?$string_output_adapter@_W@__crt_stdio_output@@V?$format_validation_base@_WV?$string_output_adapter@_W@__crt_stdio_output@@@2@@__crt_stdio_output@@AAE_NXZ 1006fe8c f i libucrt:output.obj
 0001:0006ee98       ?type_case_x@?$output_processor@_WV?$string_output_adapter@_W@__crt_stdio_output@@V?$positional_parameter_base@_WV?$string_output_adapter@_W@__crt_stdio_output@@@2@@__crt_stdio_output@@AAE_NXZ 1006fe98 f i libucrt:output.obj
 0001:0006eea4       ?type_case_x@?$output_processor@_WV?$string_output_adapter@_W@__crt_stdio_output@@V?$standard_base@_WV?$string_output_adapter@_W@__crt_stdio_output@@@2@@__crt_stdio_output@@AAE_NXZ 1006fea4 f i libucrt:output.obj
 0001:0006eeb0       ?unset_flag@?$output_processor@DV?$stream_output_adapter@D@__crt_stdio_output@@V?$format_validation_base@DV?$stream_output_adapter@D@__crt_stdio_output@@@2@@__crt_stdio_output@@AAEXI@Z 1006feb0 f i libucrt:output.obj
 0001:0006eec5       ?unset_flag@?$output_processor@DV?$stream_output_adapter@D@__crt_stdio_output@@V?$positional_parameter_base@DV?$stream_output_adapter@D@__crt_stdio_output@@@2@@__crt_stdio_output@@AAEXI@Z 1006fec5 f i libucrt:output.obj
 0001:0006eeda       ?unset_flag@?$output_processor@DV?$stream_output_adapter@D@__crt_stdio_output@@V?$standard_base@DV?$stream_output_adapter@D@__crt_stdio_output@@@2@@__crt_stdio_output@@AAEXI@Z 1006feda f i libucrt:output.obj
 0001:0006eeef       ?unset_flag@?$output_processor@DV?$string_output_adapter@D@__crt_stdio_output@@V?$format_validation_base@DV?$string_output_adapter@D@__crt_stdio_output@@@2@@__crt_stdio_output@@AAEXI@Z 1006feef f i libucrt:output.obj
 0001:0006ef04       ?unset_flag@?$output_processor@DV?$string_output_adapter@D@__crt_stdio_output@@V?$positional_parameter_base@DV?$string_output_adapter@D@__crt_stdio_output@@@2@@__crt_stdio_output@@AAEXI@Z 1006ff04 f i libucrt:output.obj
 0001:0006ef19       ?unset_flag@?$output_processor@DV?$string_output_adapter@D@__crt_stdio_output@@V?$standard_base@DV?$string_output_adapter@D@__crt_stdio_output@@@2@@__crt_stdio_output@@AAEXI@Z 1006ff19 f i libucrt:output.obj
 0001:0006ef2e       ?unset_flag@?$output_processor@_WV?$stream_output_adapter@_W@__crt_stdio_output@@V?$format_validation_base@_WV?$stream_output_adapter@_W@__crt_stdio_output@@@2@@__crt_stdio_output@@AAEXI@Z 1006ff2e f i libucrt:output.obj
 0001:0006ef43       ?unset_flag@?$output_processor@_WV?$stream_output_adapter@_W@__crt_stdio_output@@V?$positional_parameter_base@_WV?$stream_output_adapter@_W@__crt_stdio_output@@@2@@__crt_stdio_output@@AAEXI@Z 1006ff43 f i libucrt:output.obj
 0001:0006ef58       ?unset_flag@?$output_processor@_WV?$stream_output_adapter@_W@__crt_stdio_output@@V?$standard_base@_WV?$stream_output_adapter@_W@__crt_stdio_output@@@2@@__crt_stdio_output@@AAEXI@Z 1006ff58 f i libucrt:output.obj
 0001:0006ef6d       ?unset_flag@?$output_processor@_WV?$string_output_adapter@_W@__crt_stdio_output@@V?$format_validation_base@_WV?$string_output_adapter@_W@__crt_stdio_output@@@2@@__crt_stdio_output@@AAEXI@Z 1006ff6d f i libucrt:output.obj
 0001:0006ef82       ?unset_flag@?$output_processor@_WV?$string_output_adapter@_W@__crt_stdio_output@@V?$positional_parameter_base@_WV?$string_output_adapter@_W@__crt_stdio_output@@@2@@__crt_stdio_output@@AAEXI@Z 1006ff82 f i libucrt:output.obj
 0001:0006ef97       ?unset_flag@?$output_processor@_WV?$string_output_adapter@_W@__crt_stdio_output@@V?$standard_base@_WV?$string_output_adapter@_W@__crt_stdio_output@@@2@@__crt_stdio_output@@AAEXI@Z 1006ff97 f i libucrt:output.obj
 0001:0006efac       ?update_field_width@?$positional_parameter_base@DV?$stream_output_adapter@D@__crt_stdio_output@@@__crt_stdio_output@@IAE_NXZ 1006ffac f i libucrt:output.obj
 0001:0006f08f       ?update_field_width@?$positional_parameter_base@DV?$string_output_adapter@D@__crt_stdio_output@@@__crt_stdio_output@@IAE_NXZ 1007008f f i libucrt:output.obj
 0001:0006f172       ?update_field_width@?$positional_parameter_base@_WV?$stream_output_adapter@_W@__crt_stdio_output@@@__crt_stdio_output@@IAE_NXZ 10070172 f i libucrt:output.obj
 0001:0006f256       ?update_field_width@?$positional_parameter_base@_WV?$string_output_adapter@_W@__crt_stdio_output@@@__crt_stdio_output@@IAE_NXZ 10070256 f i libucrt:output.obj
 0001:0006f33a       ?update_field_width@?$standard_base@DV?$stream_output_adapter@D@__crt_stdio_output@@@__crt_stdio_output@@IAE_NXZ 1007033a f i libucrt:output.obj
 0001:0006f34e       ?update_field_width@?$standard_base@DV?$string_output_adapter@D@__crt_stdio_output@@@__crt_stdio_output@@IAE_NXZ 1007034e f i libucrt:output.obj
 0001:0006f362       ?update_field_width@?$standard_base@_WV?$stream_output_adapter@_W@__crt_stdio_output@@@__crt_stdio_output@@IAE_NXZ 10070362 f i libucrt:output.obj
 0001:0006f376       ?update_field_width@?$standard_base@_WV?$string_output_adapter@_W@__crt_stdio_output@@@__crt_stdio_output@@IAE_NXZ 10070376 f i libucrt:output.obj
 0001:0006f38a       ?update_precision@?$positional_parameter_base@DV?$stream_output_adapter@D@__crt_stdio_output@@@__crt_stdio_output@@IAE_NXZ 1007038a f i libucrt:output.obj
 0001:0006f46d       ?update_precision@?$positional_parameter_base@DV?$string_output_adapter@D@__crt_stdio_output@@@__crt_stdio_output@@IAE_NXZ 1007046d f i libucrt:output.obj
 0001:0006f550       ?update_precision@?$positional_parameter_base@_WV?$stream_output_adapter@_W@__crt_stdio_output@@@__crt_stdio_output@@IAE_NXZ 10070550 f i libucrt:output.obj
 0001:0006f634       ?update_precision@?$positional_parameter_base@_WV?$string_output_adapter@_W@__crt_stdio_output@@@__crt_stdio_output@@IAE_NXZ 10070634 f i libucrt:output.obj
 0001:0006f718       ?update_precision@?$standard_base@DV?$stream_output_adapter@D@__crt_stdio_output@@@__crt_stdio_output@@IAE_NXZ 10070718 f i libucrt:output.obj
 0001:0006f72c       ?update_precision@?$standard_base@DV?$string_output_adapter@D@__crt_stdio_output@@@__crt_stdio_output@@IAE_NXZ 1007072c f i libucrt:output.obj
 0001:0006f740       ?update_precision@?$standard_base@_WV?$stream_output_adapter@_W@__crt_stdio_output@@@__crt_stdio_output@@IAE_NXZ 10070740 f i libucrt:output.obj
 0001:0006f754       ?update_precision@?$standard_base@_WV?$string_output_adapter@_W@__crt_stdio_output@@@__crt_stdio_output@@IAE_NXZ 10070754 f i libucrt:output.obj
 0001:0006f768       ?valid@__crt_stdio_stream@@QBE_NXZ 10070768 f i libucrt:output.obj
 0001:0006f76f       ?validate@?$stream_output_adapter@D@__crt_stdio_output@@QBE_NXZ 1007076f f i libucrt:output.obj
 0001:0006f798       ?validate@?$stream_output_adapter@_W@__crt_stdio_output@@QBE_NXZ 10070798 f i libucrt:output.obj
 0001:0006f7b9       ?validate@?$string_output_adapter@D@__crt_stdio_output@@QBE_NXZ 100707b9 f i libucrt:output.obj
 0001:0006f7da       ?validate@?$string_output_adapter@_W@__crt_stdio_output@@QBE_NXZ 100707da f i libucrt:output.obj
 0001:0006f7fb       ?validate_and_store_parameter_data@?$positional_parameter_base@DV?$stream_output_adapter@D@__crt_stdio_output@@@__crt_stdio_output@@AAE_NAAUparameter_data@12@W4parameter_type@12@DW4length_modifier@2@@Z 100707fb f i libucrt:output.obj
 0001:0006f858       ?validate_and_store_parameter_data@?$positional_parameter_base@DV?$string_output_adapter@D@__crt_stdio_output@@@__crt_stdio_output@@AAE_NAAUparameter_data@12@W4parameter_type@12@DW4length_modifier@2@@Z 10070858 f i libucrt:output.obj
 0001:0006f8b5       ?validate_and_store_parameter_data@?$positional_parameter_base@_WV?$stream_output_adapter@_W@__crt_stdio_output@@@__crt_stdio_output@@AAE_NAAUparameter_data@12@W4parameter_type@12@_WW4length_modifier@2@@Z 100708b5 f i libucrt:output.obj
 0001:0006f915       ?validate_and_store_parameter_data@?$positional_parameter_base@_WV?$string_output_adapter@_W@__crt_stdio_output@@@__crt_stdio_output@@AAE_NAAUparameter_data@12@W4parameter_type@12@_WW4length_modifier@2@@Z 10070915 f i libucrt:output.obj
 0001:0006f975       ?validate_and_update_state_at_beginning_of_format_character@?$positional_parameter_base@DV?$stream_output_adapter@D@__crt_stdio_output@@@__crt_stdio_output@@IAE_NXZ 10070975 f i libucrt:output.obj
 0001:0006faad       ?validate_and_update_state_at_beginning_of_format_character@?$positional_parameter_base@DV?$string_output_adapter@D@__crt_stdio_output@@@__crt_stdio_output@@IAE_NXZ 10070aad f i libucrt:output.obj
 0001:0006fbe5       ?validate_and_update_state_at_beginning_of_format_character@?$positional_parameter_base@_WV?$stream_output_adapter@_W@__crt_stdio_output@@@__crt_stdio_output@@IAE_NXZ 10070be5 f i libucrt:output.obj
 0001:0006fd28       ?validate_and_update_state_at_beginning_of_format_character@?$positional_parameter_base@_WV?$string_output_adapter@_W@__crt_stdio_output@@@__crt_stdio_output@@IAE_NXZ 10070d28 f i libucrt:output.obj
 0001:0006fe6b       ?validate_and_update_state_at_beginning_of_format_character@?$standard_base@DV?$stream_output_adapter@D@__crt_stdio_output@@@__crt_stdio_output@@IAE_NXZ 10070e6b f i libucrt:output.obj
 0001:0006fe6e       ?validate_and_update_state_at_beginning_of_format_character@?$standard_base@DV?$string_output_adapter@D@__crt_stdio_output@@@__crt_stdio_output@@IAE_NXZ 10070e6e f i libucrt:output.obj
 0001:0006fe71       ?validate_and_update_state_at_beginning_of_format_character@?$standard_base@_WV?$stream_output_adapter@_W@__crt_stdio_output@@@__crt_stdio_output@@IAE_NXZ 10070e71 f i libucrt:output.obj
 0001:0006fe74       ?validate_and_update_state_at_beginning_of_format_character@?$standard_base@_WV?$string_output_adapter@_W@__crt_stdio_output@@@__crt_stdio_output@@IAE_NXZ 10070e74 f i libucrt:output.obj
 0001:0006fe77       ?validate_and_update_state_at_end_of_format_string@?$format_validation_base@DV?$stream_output_adapter@D@__crt_stdio_output@@@__crt_stdio_output@@IBE_NXZ 10070e77 f i libucrt:output.obj
 0001:0006fea1       ?validate_and_update_state_at_end_of_format_string@?$format_validation_base@DV?$string_output_adapter@D@__crt_stdio_output@@@__crt_stdio_output@@IBE_NXZ 10070ea1 f i libucrt:output.obj
 0001:0006fecb       ?validate_and_update_state_at_end_of_format_string@?$format_validation_base@_WV?$stream_output_adapter@_W@__crt_stdio_output@@@__crt_stdio_output@@IBE_NXZ 10070ecb f i libucrt:output.obj
 0001:0006fef5       ?validate_and_update_state_at_end_of_format_string@?$format_validation_base@_WV?$string_output_adapter@_W@__crt_stdio_output@@@__crt_stdio_output@@IBE_NXZ 10070ef5 f i libucrt:output.obj
 0001:0006ff1f       ?validate_and_update_state_at_end_of_format_string@?$positional_parameter_base@DV?$stream_output_adapter@D@__crt_stdio_output@@@__crt_stdio_output@@IAE_NXZ 10070f1f f i libucrt:output.obj
 0001:0006ffd3       ?validate_and_update_state_at_end_of_format_string@?$positional_parameter_base@DV?$string_output_adapter@D@__crt_stdio_output@@@__crt_stdio_output@@IAE_NXZ 10070fd3 f i libucrt:output.obj
 0001:00070087       ?validate_and_update_state_at_end_of_format_string@?$positional_parameter_base@_WV?$stream_output_adapter@_W@__crt_stdio_output@@@__crt_stdio_output@@IAE_NXZ 10071087 f i libucrt:output.obj
 0001:0007013b       ?validate_and_update_state_at_end_of_format_string@?$positional_parameter_base@_WV?$string_output_adapter@_W@__crt_stdio_output@@@__crt_stdio_output@@IAE_NXZ 1007113b f i libucrt:output.obj
 0001:000701ef       ?validate_and_update_state_at_end_of_format_string@?$standard_base@DV?$stream_output_adapter@D@__crt_stdio_output@@@__crt_stdio_output@@IBE_NXZ 100711ef f i libucrt:output.obj
 0001:000701f2       ?validate_and_update_state_at_end_of_format_string@?$standard_base@DV?$string_output_adapter@D@__crt_stdio_output@@@__crt_stdio_output@@IBE_NXZ 100711f2 f i libucrt:output.obj
 0001:000701f5       ?validate_and_update_state_at_end_of_format_string@?$standard_base@_WV?$stream_output_adapter@_W@__crt_stdio_output@@@__crt_stdio_output@@IBE_NXZ 100711f5 f i libucrt:output.obj
 0001:000701f8       ?validate_and_update_state_at_end_of_format_string@?$standard_base@_WV?$string_output_adapter@_W@__crt_stdio_output@@@__crt_stdio_output@@IBE_NXZ 100711f8 f i libucrt:output.obj
 0001:000701fb       ?validate_state_for_type_case_a@?$positional_parameter_base@DV?$stream_output_adapter@D@__crt_stdio_output@@@__crt_stdio_output@@IAE_NXZ 100711fb f i libucrt:output.obj
 0001:0007025d       ?validate_state_for_type_case_a@?$positional_parameter_base@DV?$string_output_adapter@D@__crt_stdio_output@@@__crt_stdio_output@@IAE_NXZ 1007125d f i libucrt:output.obj
 0001:000702bf       ?validate_state_for_type_case_a@?$positional_parameter_base@_WV?$stream_output_adapter@_W@__crt_stdio_output@@@__crt_stdio_output@@IAE_NXZ 100712bf f i libucrt:output.obj
 0001:00070321       ?validate_state_for_type_case_a@?$positional_parameter_base@_WV?$string_output_adapter@_W@__crt_stdio_output@@@__crt_stdio_output@@IAE_NXZ 10071321 f i libucrt:output.obj
 0001:00070383       ?validate_state_for_type_case_a@?$standard_base@DV?$stream_output_adapter@D@__crt_stdio_output@@@__crt_stdio_output@@IBE_NXZ 10071383 f i libucrt:output.obj
 0001:00070386       ?validate_state_for_type_case_a@?$standard_base@DV?$string_output_adapter@D@__crt_stdio_output@@@__crt_stdio_output@@IBE_NXZ 10071386 f i libucrt:output.obj
 0001:00070389       ?validate_state_for_type_case_a@?$standard_base@_WV?$stream_output_adapter@_W@__crt_stdio_output@@@__crt_stdio_output@@IBE_NXZ 10071389 f i libucrt:output.obj
 0001:0007038c       ?validate_state_for_type_case_a@?$standard_base@_WV?$string_output_adapter@_W@__crt_stdio_output@@@__crt_stdio_output@@IBE_NXZ 1007138c f i libucrt:output.obj
 0001:0007038f       ?validate_stream_is_ansi_if_required@?$__acrt_stdio_char_traits@D@@SA_NQAU_iobuf@@@Z 1007138f f i libucrt:output.obj
 0001:00070437       ?validate_stream_is_ansi_if_required@?$__acrt_stdio_char_traits@_W@@SA_NQAU_iobuf@@@Z 10071437 f i libucrt:output.obj
 0001:0007043a       ?wide_null_string@?$output_processor@DV?$stream_output_adapter@D@__crt_stdio_output@@V?$format_validation_base@DV?$stream_output_adapter@D@__crt_stdio_output@@@2@@__crt_stdio_output@@CAPA_WXZ 1007143a f i libucrt:output.obj
 0001:00070440       ?wide_null_string@?$output_processor@DV?$stream_output_adapter@D@__crt_stdio_output@@V?$positional_parameter_base@DV?$stream_output_adapter@D@__crt_stdio_output@@@2@@__crt_stdio_output@@CAPA_WXZ 10071440 f i libucrt:output.obj
 0001:00070446       ?wide_null_string@?$output_processor@DV?$stream_output_adapter@D@__crt_stdio_output@@V?$standard_base@DV?$stream_output_adapter@D@__crt_stdio_output@@@2@@__crt_stdio_output@@CAPA_WXZ 10071446 f i libucrt:output.obj
 0001:0007044c       ?wide_null_string@?$output_processor@DV?$string_output_adapter@D@__crt_stdio_output@@V?$format_validation_base@DV?$string_output_adapter@D@__crt_stdio_output@@@2@@__crt_stdio_output@@CAPA_WXZ 1007144c f i libucrt:output.obj
 0001:00070452       ?wide_null_string@?$output_processor@DV?$string_output_adapter@D@__crt_stdio_output@@V?$positional_parameter_base@DV?$string_output_adapter@D@__crt_stdio_output@@@2@@__crt_stdio_output@@CAPA_WXZ 10071452 f i libucrt:output.obj
 0001:00070458       ?wide_null_string@?$output_processor@DV?$string_output_adapter@D@__crt_stdio_output@@V?$standard_base@DV?$string_output_adapter@D@__crt_stdio_output@@@2@@__crt_stdio_output@@CAPA_WXZ 10071458 f i libucrt:output.obj
 0001:0007045e       ?wide_null_string@?$output_processor@_WV?$stream_output_adapter@_W@__crt_stdio_output@@V?$format_validation_base@_WV?$stream_output_adapter@_W@__crt_stdio_output@@@2@@__crt_stdio_output@@CAPA_WXZ 1007145e f i libucrt:output.obj
 0001:00070464       ?wide_null_string@?$output_processor@_WV?$stream_output_adapter@_W@__crt_stdio_output@@V?$positional_parameter_base@_WV?$stream_output_adapter@_W@__crt_stdio_output@@@2@@__crt_stdio_output@@CAPA_WXZ 10071464 f i libucrt:output.obj
 0001:0007046a       ?wide_null_string@?$output_processor@_WV?$stream_output_adapter@_W@__crt_stdio_output@@V?$standard_base@_WV?$stream_output_adapter@_W@__crt_stdio_output@@@2@@__crt_stdio_output@@CAPA_WXZ 1007146a f i libucrt:output.obj
 0001:00070470       ?wide_null_string@?$output_processor@_WV?$string_output_adapter@_W@__crt_stdio_output@@V?$format_validation_base@_WV?$string_output_adapter@_W@__crt_stdio_output@@@2@@__crt_stdio_output@@CAPA_WXZ 10071470 f i libucrt:output.obj
 0001:00070476       ?wide_null_string@?$output_processor@_WV?$string_output_adapter@_W@__crt_stdio_output@@V?$positional_parameter_base@_WV?$string_output_adapter@_W@__crt_stdio_output@@@2@@__crt_stdio_output@@CAPA_WXZ 10071476 f i libucrt:output.obj
 0001:0007047c       ?wide_null_string@?$output_processor@_WV?$string_output_adapter@_W@__crt_stdio_output@@V?$standard_base@_WV?$string_output_adapter@_W@__crt_stdio_output@@@2@@__crt_stdio_output@@CAPA_WXZ 1007147c f i libucrt:output.obj
 0001:00070482       ?write_character@?$output_adapter_common@DV?$stream_output_adapter@D@__crt_stdio_output@@@__crt_stdio_output@@QBEXDQAH@Z 10071482 f i libucrt:output.obj
 0001:000704a8       ?write_character@?$output_adapter_common@_WV?$stream_output_adapter@_W@__crt_stdio_output@@@__crt_stdio_output@@QBEX_WQAH@Z 100714a8 f i libucrt:output.obj
 0001:000704ce       ?write_character@?$string_output_adapter@D@__crt_stdio_output@@QBE_NDQAH@Z 100714ce f i libucrt:output.obj
 0001:00070520       ?write_character@?$string_output_adapter@_W@__crt_stdio_output@@QBE_N_WQAH@Z 10071520 f i libucrt:output.obj
 0001:00070576       ?write_character_without_count_update@?$stream_output_adapter@D@__crt_stdio_output@@QBE_ND@Z 10071576 f i libucrt:output.obj
 0001:000705b9       ?write_character_without_count_update@?$stream_output_adapter@_W@__crt_stdio_output@@QBE_N_W@Z 100715b9 f i libucrt:output.obj
 0001:00070600       ?write_stored_string_tchar@?$output_processor@DV?$stream_output_adapter@D@__crt_stdio_output@@V?$format_validation_base@DV?$stream_output_adapter@D@__crt_stdio_output@@@2@@__crt_stdio_output@@AAE_ND@Z 10071600 f i libucrt:output.obj
 0001:000706d3       ?write_stored_string_tchar@?$output_processor@DV?$stream_output_adapter@D@__crt_stdio_output@@V?$positional_parameter_base@DV?$stream_output_adapter@D@__crt_stdio_output@@@2@@__crt_stdio_output@@AAE_ND@Z 100716d3 f i libucrt:output.obj
 0001:000707a6       ?write_stored_string_tchar@?$output_processor@DV?$stream_output_adapter@D@__crt_stdio_output@@V?$standard_base@DV?$stream_output_adapter@D@__crt_stdio_output@@@2@@__crt_stdio_output@@AAE_ND@Z 100717a6 f i libucrt:output.obj
 0001:00070879       ?write_stored_string_tchar@?$output_processor@DV?$string_output_adapter@D@__crt_stdio_output@@V?$format_validation_base@DV?$string_output_adapter@D@__crt_stdio_output@@@2@@__crt_stdio_output@@AAE_ND@Z 10071879 f i libucrt:output.obj
 0001:0007094c       ?write_stored_string_tchar@?$output_processor@DV?$string_output_adapter@D@__crt_stdio_output@@V?$positional_parameter_base@DV?$string_output_adapter@D@__crt_stdio_output@@@2@@__crt_stdio_output@@AAE_ND@Z 1007194c f i libucrt:output.obj
 0001:00070a1f       ?write_stored_string_tchar@?$output_processor@DV?$string_output_adapter@D@__crt_stdio_output@@V?$standard_base@DV?$string_output_adapter@D@__crt_stdio_output@@@2@@__crt_stdio_output@@AAE_ND@Z 10071a1f f i libucrt:output.obj
 0001:00070af2       ?write_stored_string_tchar@?$output_processor@_WV?$stream_output_adapter@_W@__crt_stdio_output@@V?$format_validation_base@_WV?$stream_output_adapter@_W@__crt_stdio_output@@@2@@__crt_stdio_output@@AAE_N_W@Z 10071af2 f i libucrt:output.obj
 0001:00070bac       ?write_stored_string_tchar@?$output_processor@_WV?$stream_output_adapter@_W@__crt_stdio_output@@V?$positional_parameter_base@_WV?$stream_output_adapter@_W@__crt_stdio_output@@@2@@__crt_stdio_output@@AAE_N_W@Z 10071bac f i libucrt:output.obj
 0001:00070c66       ?write_stored_string_tchar@?$output_processor@_WV?$stream_output_adapter@_W@__crt_stdio_output@@V?$standard_base@_WV?$stream_output_adapter@_W@__crt_stdio_output@@@2@@__crt_stdio_output@@AAE_N_W@Z 10071c66 f i libucrt:output.obj
 0001:00070d20       ?write_stored_string_tchar@?$output_processor@_WV?$string_output_adapter@_W@__crt_stdio_output@@V?$format_validation_base@_WV?$string_output_adapter@_W@__crt_stdio_output@@@2@@__crt_stdio_output@@AAE_N_W@Z 10071d20 f i libucrt:output.obj
 0001:00070dda       ?write_stored_string_tchar@?$output_processor@_WV?$string_output_adapter@_W@__crt_stdio_output@@V?$positional_parameter_base@_WV?$string_output_adapter@_W@__crt_stdio_output@@@2@@__crt_stdio_output@@AAE_N_W@Z 10071dda f i libucrt:output.obj
 0001:00070e94       ?write_stored_string_tchar@?$output_processor@_WV?$string_output_adapter@_W@__crt_stdio_output@@V?$standard_base@_WV?$string_output_adapter@_W@__crt_stdio_output@@@2@@__crt_stdio_output@@AAE_N_W@Z 10071e94 f i libucrt:output.obj
 0001:00070f4e       ?write_string@?$stream_output_adapter@D@__crt_stdio_output@@QBEXQBDHQAHAAV__crt_deferred_errno_cache@@@Z 10071f4e f i libucrt:output.obj
 0001:00070f85       ?write_string@?$stream_output_adapter@_W@__crt_stdio_output@@QBEXQB_WHQAHAAV__crt_deferred_errno_cache@@@Z 10071f85 f i libucrt:output.obj
 0001:00070fbc       ?write_string@?$string_output_adapter@D@__crt_stdio_output@@QBEXQBDHQAHAAV__crt_deferred_errno_cache@@@Z 10071fbc f i libucrt:output.obj
 0001:0007103c       ?write_string@?$string_output_adapter@_W@__crt_stdio_output@@QBEXQB_WHQAHAAV__crt_deferred_errno_cache@@@Z 1007203c f i libucrt:output.obj
 0001:000710cb       ?write_string_impl@?$output_adapter_common@DV?$stream_output_adapter@D@__crt_stdio_output@@@__crt_stdio_output@@IBEXQBDHQAHAAV__crt_deferred_errno_cache@@@Z 100720cb f i libucrt:output.obj
 0001:00071193       ?write_string_impl@?$output_adapter_common@_WV?$stream_output_adapter@_W@__crt_stdio_output@@@__crt_stdio_output@@IBEXQB_WHQAHAAV__crt_deferred_errno_cache@@@Z 10072193 f i libucrt:output.obj
 0001:0007125e       ___acrt_isleadbyte_l_noupdate 1007225e f i libucrt:output.obj
 0001:00071283       ___acrt_locale_changed     10072283 f i libucrt:output.obj
 0001:00071290       ___acrt_locale_get_ctype_array_value 10072290 f i libucrt:output.obj
 0001:000712ba       ___stdio_common_vfprintf   100722ba f   libucrt:output.obj
 0001:00071360       ___stdio_common_vfprintf_p 10072360 f   libucrt:output.obj
 0001:00071406       ___stdio_common_vfprintf_s 10072406 f   libucrt:output.obj
 0001:000714ac       ___stdio_common_vfwprintf  100724ac f   libucrt:output.obj
 0001:00071552       ___stdio_common_vfwprintf_p 10072552 f   libucrt:output.obj
 0001:000715f8       ___stdio_common_vfwprintf_s 100725f8 f   libucrt:output.obj
 0001:0007169e       ___stdio_common_vsnprintf_s 1007269e f   libucrt:output.obj
 0001:000716ce       ___stdio_common_vsnwprintf_s 100726ce f   libucrt:output.obj
 0001:000716fe       ___stdio_common_vsprintf   100726fe f   libucrt:output.obj
 0001:0007172b       ___stdio_common_vsprintf_p 1007272b f   libucrt:output.obj
 0001:00071758       ___stdio_common_vsprintf_s 10072758 f   libucrt:output.obj
 0001:00071785       ___stdio_common_vswprintf  10072785 f   libucrt:output.obj
 0001:000717b2       ___stdio_common_vswprintf_p 100727b2 f   libucrt:output.obj
 0001:000717df       ___stdio_common_vswprintf_s 100727df f   libucrt:output.obj
 0001:0007180c       _calloc                    1007280c f   libucrt:calloc.obj
 0001:00071819       _realloc                   10072819 f   libucrt:realloc.obj
 0001:00071826       ??$?B$$A6GXPAXK0@Z@__crt_fast_encoded_nullptr_t@@QBEP6GXPAXK0@ZXZ 10072826 f i libucrt:exit.obj
 0001:000718b1       ??$__crt_fast_decode_pointer@P6GXPAXK0@Z@@YAP6GXPAXK0@ZQ6GX0K0@Z@Z 100728b1 f i libucrt:exit.obj
 0001:000718cc       ??$__crt_fast_encode_pointer@P6GXPAXK0@Z@@YAP6GXPAXK0@ZQ6GX0K0@Z@Z 100728cc f i libucrt:exit.obj
 0001:000718f2       ??$__crt_get_proc_address@P6GXI@Z@@YAP6GXI@ZQAUHINSTANCE__@@QBD@Z 100728f2 f i libucrt:exit.obj
 0001:00071958       ??0?$__crt_unique_handle_t@U__crt_hmodule_traits@@@@QAE@QAUHINSTANCE__@@@Z 10072958 f i libucrt:exit.obj
 0001:0007196c       ??1?$__crt_unique_handle_t@U__crt_hmodule_traits@@@@QAE@XZ 1007296c f i libucrt:exit.obj
 0001:00071aa2       ?__acrt_select_exit_lock@@YA?AW4__acrt_lock_id@@XZ 10072aa2 f i libucrt:exit.obj
 0001:00071abd       ?close@?$__crt_unique_handle_t@U__crt_hmodule_traits@@@@QAEXXZ 10072abd f i libucrt:exit.obj
 0001:00071ad9       ?close@__crt_hmodule_traits@@SA_NPAUHINSTANCE__@@@Z 10072ad9 f i libucrt:exit.obj
 0001:00071bc4       ?get@?$__crt_unique_handle_t@U__crt_hmodule_traits@@@@QBEPAUHINSTANCE__@@XZ 10072bc4 f i libucrt:exit.obj
 0001:00071bc7       ?get_address_of@?$__crt_unique_handle_t@U__crt_hmodule_traits@@@@QAEPAPAUHINSTANCE__@@XZ 10072bc7 f i libucrt:exit.obj
 0001:00071bca       ?get_invalid_value@__crt_hmodule_traits@@SAPAUHINSTANCE__@@XZ 10072bca f i libucrt:exit.obj
 0001:00071cb4       __Exit                     10072cb4 f   libucrt:exit.obj
 0001:00071ccf       ___acrt_initialize_thread_local_exit_callback 10072ccf f   libucrt:exit.obj
 0001:00071ce1       __c_exit                   10072ce1 f   libucrt:exit.obj
 0001:00071cf3       __cexit                    10072cf3 f   libucrt:exit.obj
 0001:00071d05       __exit                     10072d05 f   libucrt:exit.obj
 0001:00071d20       __is_c_termination_complete 10072d20 f   libucrt:exit.obj
 0001:00071d27       __register_thread_local_exe_atexit_callback 10072d27 f   libucrt:exit.obj
 0001:00071d56       _exit                      10072d56 f   libucrt:exit.obj
 0001:00071d71       _quick_exit                10072d71 f   libucrt:exit.obj
 0001:00071d90       _strncat                   10072d90 f   libucrt:strncat.obj
 0001:00071f20       _strncpy                   10072f20 f   libucrt:strncpy.obj
 0001:0007208d       ?is_in_use@__crt_stdio_stream@@QBE_NXZ 1007308d f i libucrt:fclose.obj
 0001:0007209c       __fclose_nolock            1007309c f   libucrt:fclose.obj
 0001:00072130       _fclose                    10073130 f   libucrt:fclose.obj
 0001:00072427       ??$open_file@ABQBDABQBDABHPAU_iobuf@@@?$__crt_char_traits@D@@SAPAU_iobuf@@ABQBD0ABH$$QAPAU1@@Z 10073427 f i libucrt:fopen.obj
 0001:00072452       ??$open_file@ABQB_WABQB_WABHPAU_iobuf@@@?$__crt_char_traits@_W@@SAPAU_iobuf@@ABQB_W0ABH$$QAPAU1@@Z 10073452 f i libucrt:fopen.obj
 0001:0007247d       ?unlock@__crt_stdio_stream@@QBEXXZ 1007347d f i libucrt:fopen.obj
 0001:00072488       __fsopen                   10073488 f   libucrt:fopen.obj
 0001:00072495       __wfopen                   10073495 f   libucrt:fopen.obj
 0001:000724b1       __wfopen_s                 100734b1 f   libucrt:fopen.obj
 0001:00072509       __wfsopen                  10073509 f   libucrt:fopen.obj
 0001:00072516       _fopen                     10073516 f   libucrt:fopen.obj
 0001:00072532       _fopen_s                   10073532 f   libucrt:fopen.obj
 0001:0007258a       ?__acrt_stdio_reset_buffer@@YAXV__crt_stdio_stream@@@Z 1007358a f i libucrt:fread.obj
 0001:000725a5       ?has_any_buffer@__crt_stdio_stream@@QBE_NXZ 100735a5 f i libucrt:fread.obj
 0001:000725b7       ?has_any_of@__crt_stdio_stream@@QBE_NJ@Z 100735b7 f i libucrt:fread.obj
 0001:000725d1       ?set_flags@__crt_stdio_stream@@QBE_NJ@Z 100735d1 f i libucrt:fread.obj
 0001:000725fe       __fread_nolock             100735fe f   libucrt:fread.obj
 0001:00072622       __fread_nolock_s           10073622 f   libucrt:fread.obj
 0001:00072884       _fread                     10073884 f   libucrt:fread.obj
 0001:000728a8       _fread_s                   100738a8 f   libucrt:fread.obj
 0001:00072b59       ?has_big_buffer@__crt_stdio_stream@@QBE_NXZ 10073b59 f i libucrt:fwrite.obj
 0001:00072b68       __fwrite_nolock            10073b68 f   libucrt:fwrite.obj
 0001:00072d4b       _fwrite                    10073d4b f   libucrt:fwrite.obj
 0001:00072ea7       ??$__acrt_mbs_to_wcs_cp@U__crt_win32_buffer_internal_dynamic_resizing@@@@YAHQBDAAV?$__crt_win32_buffer@_WU__crt_win32_buffer_internal_dynamic_resizing@@@@I@Z 10073ea7 f i libucrt:unlink.obj
 0001:00072ecd       ??0?$__crt_win32_buffer@_WU__crt_win32_buffer_internal_dynamic_resizing@@@@QAE@XZ 10073ecd f i libucrt:unlink.obj
 0001:00072ee8       ??1?$__crt_win32_buffer@_WU__crt_win32_buffer_internal_dynamic_resizing@@@@QAE@XZ 10073ee8 f i libucrt:unlink.obj
 0001:00072f16       ?__acrt_get_utf8_acp_compatibility_codepage@@YAIXZ 10073f16 f i libucrt:unlink.obj
 0001:00072f67       ?_deallocate@?$__crt_win32_buffer@_WU__crt_win32_buffer_internal_dynamic_resizing@@@@AAEXXZ 10073f67 f i libucrt:unlink.obj
 0001:00072f87       ?allocate@?$__crt_win32_buffer@_WU__crt_win32_buffer_internal_dynamic_resizing@@@@QAEHI@Z 10073f87 f i libucrt:unlink.obj
 0001:00072fd5       ?allocate@__crt_win32_buffer_internal_dynamic_resizing@@SAHQAPAXIABV__crt_win32_buffer_empty_debug_info@@@Z 10073fd5 f i libucrt:unlink.obj
 0001:00072ffb       ?capacity@?$__crt_win32_buffer@_WU__crt_win32_buffer_internal_dynamic_resizing@@@@QBEIXZ 10073ffb f i libucrt:unlink.obj
 0001:00072fff       ?data@?$__crt_win32_buffer@_WU__crt_win32_buffer_internal_dynamic_resizing@@@@QAEPA_WXZ 10073fff f i libucrt:unlink.obj
 0001:00073003       ?deallocate@__crt_win32_buffer_internal_dynamic_resizing@@SAXQAXABV__crt_win32_buffer_empty_debug_info@@@Z 10074003 f i libucrt:unlink.obj
 0001:00073017       ?debug_info@?$__crt_win32_buffer@_WU__crt_win32_buffer_internal_dynamic_resizing@@@@QBEABV__crt_win32_buffer_empty_debug_info@@XZ 10074017 f i libucrt:unlink.obj
 0001:0007301a       ?set_to_nullptr@?$__crt_win32_buffer@_WU__crt_win32_buffer_internal_dynamic_resizing@@@@QAEXXZ 1007401a f i libucrt:unlink.obj
 0001:00073036       ?size@?$__crt_win32_buffer@_WU__crt_win32_buffer_internal_dynamic_resizing@@@@QAEXI@Z 10074036 f i libucrt:unlink.obj
 0001:00073048       __unlink                   10074048 f   libucrt:unlink.obj
 0001:00073055       _remove                    10074055 f   libucrt:unlink.obj
 0001:000730dc       ?has_all_of@__crt_stdio_stream@@QBE_NJ@Z 100740dc f i libucrt:rewind.obj
 0001:000730fa       ?unset_flags@__crt_stdio_stream@@QBE_NJ@Z 100740fa f i libucrt:rewind.obj
 0001:0007312d       _rewind                    1007412d f   libucrt:rewind.obj
 0001:00073220       _ldexp                     10074220 f   libucrt:ldexp.obj
 0001:000734a0       __CIfmod                   100744a0 f   libucrt:87fmod_impl.obj
 0001:000734b0       __fFMOD                    100744b0 f   libucrt:87fmod_impl.obj
 0001:000734c5       ?eof@__crt_stdio_stream@@QBE_NXZ 100744c5 f i libucrt:feoferr.obj
 0001:000734d4       ?error@__crt_stdio_stream@@QBE_NXZ 100744d4 f i libucrt:feoferr.obj
 0001:000734e3       _feof                      100744e3 f   libucrt:feoferr.obj
 0001:0007351a       _ferror                    1007451a f   libucrt:feoferr.obj
 0001:0007371b       ??$getc_nolock@PAU_iobuf@@@?$__crt_char_traits@D@@SAH$$QAPAU_iobuf@@@Z 1007471b f i libucrt:fgets.obj
 0001:00073731       ??$getc_nolock@PAU_iobuf@@@?$__crt_char_traits@_W@@SAG$$QAPAU_iobuf@@@Z 10074731 f i libucrt:fgets.obj
 0001:00073747       _fgets                     10074747 f   libucrt:fgets.obj
 0001:00073754       _fgetws                    10074754 f   libucrt:fgets.obj
 0001:00073761       ?LongLongSub@@YAJ_J0PA_J@Z 10074761 f i libucrt:fseek.obj
 0001:00073abe       ?lowio_handle@__crt_stdio_stream@@QBEHXZ 10074abe f i libucrt:fseek.obj
 0001:00073ac5       __fseek_nolock             10074ac5 f   libucrt:fseek.obj
 0001:00073ae6       __fseeki64                 10074ae6 f   libucrt:fseek.obj
 0001:00073b07       __fseeki64_nolock          10074b07 f   libucrt:fseek.obj
 0001:00073b28       _fseek                     10074b28 f   libucrt:fseek.obj
 0001:0007441e       ?ctrl_z@__crt_stdio_stream@@QBE_NXZ 1007541e f i libucrt:ftell.obj
 0001:0007442d       ?has_crt_buffer@__crt_stdio_stream@@QBE_NXZ 1007542d f i libucrt:ftell.obj
 0001:0007443c       ?has_setvbuf_buffer@__crt_stdio_stream@@QBE_NXZ 1007543c f i libucrt:ftell.obj
 0001:0007444b       __ftell_nolock             1007544b f   libucrt:ftell.obj
 0001:00074458       __ftelli64                 10075458 f   libucrt:ftell.obj
 0001:00074465       __ftelli64_nolock          10075465 f   libucrt:ftell.obj
 0001:00074472       __utf8_no_of_trailbytes    10075472 f i libucrt:ftell.obj
 0001:00074487       _ftell                     10075487 f   libucrt:ftell.obj
 0001:000744b5       ___acrt_get_locale_data_prefix 100754b5 f i libucrt:_ctype.obj
 0001:000744c4       ___isascii                 100754c4 f i libucrt:_ctype.obj
 0001:000744da       ___iscsym                  100754da f i libucrt:_ctype.obj
 0001:00074504       ___iscsymf                 10075504 f i libucrt:_ctype.obj
 0001:0007452a       ___toascii                 1007552a f i libucrt:_ctype.obj
 0001:0007453a       __chvalidchk_l             1007553a f i libucrt:_ctype.obj
 0001:0007456c       __isalnum_l                1007556c f i libucrt:_ctype.obj
 0001:000745b5       __isalpha_l                100755b5 f i libucrt:_ctype.obj
 0001:000745fe       __isblank_l                100755fe f i libucrt:_ctype.obj
 0001:00074651       __ischartype_l             10075651 f i libucrt:_ctype.obj
 0001:00074690       __iscntrl_l                10075690 f i libucrt:_ctype.obj
 0001:000746d6       __iscsym_l                 100756d6 f i libucrt:_ctype.obj
 0001:00074701       __iscsymf_l                10075701 f i libucrt:_ctype.obj
 0001:0007472c       __isdigit_l                1007572c f i libucrt:_ctype.obj
 0001:00074772       __isgraph_l                10075772 f i libucrt:_ctype.obj
 0001:000747bb       __islower_l                100757bb f i libucrt:_ctype.obj
 0001:00074801       __isprint_l                10075801 f i libucrt:_ctype.obj
 0001:0007484a       __ispunct_l                1007584a f i libucrt:_ctype.obj
 0001:00074890       __isspace_l                10075890 f i libucrt:_ctype.obj
 0001:000748d6       __isupper_l                100758d6 f i libucrt:_ctype.obj
 0001:0007491c       __isxdigit_l               1007591c f i libucrt:_ctype.obj
 0001:00074965       _isalnum                   10075965 f i libucrt:_ctype.obj
 0001:000749a6       _isalpha                   100759a6 f i libucrt:_ctype.obj
 0001:000749e7       _isblank                   100759e7 f i libucrt:_ctype.obj
 0001:00074a2f       _iscntrl                   10075a2f f i libucrt:_ctype.obj
 0001:00074a6c       _isdigit                   10075a6c f i libucrt:_ctype.obj
 0001:00074aa9       _isgraph                   10075aa9 f i libucrt:_ctype.obj
 0001:00074aea       _islower                   10075aea f i libucrt:_ctype.obj
 0001:00074b27       _isprint                   10075b27 f i libucrt:_ctype.obj
 0001:00074b68       _ispunct                   10075b68 f i libucrt:_ctype.obj
 0001:00074ba5       _isspace                   10075ba5 f i libucrt:_ctype.obj
 0001:00074be2       _isupper                   10075be2 f i libucrt:_ctype.obj
 0001:00074c1f       _isxdigit                  10075c1f f i libucrt:_ctype.obj
 0001:00074c60       ??$__crt_fast_decode_pointer@P6AXPB_W00II@Z@@YAP6AXPB_W00II@ZQ6AX000II@Z@Z 10075c60 f i libucrt:invalid_parameter.obj
 0001:00074c7b       ??$__crt_fast_encode_pointer@P6AXPB_W00II@Z@@YAP6AXPB_W00II@ZQ6AX000II@Z@Z 10075c7b f i libucrt:invalid_parameter.obj
 0001:00074ca1       ??$initialize_from_array@$$BY00Q6AXPB_W00II@Z@?$dual_state_global@P6AXPB_W00II@Z@__crt_state_management@@QAAXAAY00Q6AXPB_W00II@Z@Z 10075ca1 f i libucrt:invalid_parameter.obj
 0001:00074cb6       ?dangerous_get_state_array@?$dual_state_global@P6AXPB_W00II@Z@__crt_state_management@@QAEPAP6AXPB_W00II@ZXZ 10075cb6 f i libucrt:invalid_parameter.obj
 0001:00074cb9       ?get_current_state_index@__crt_state_management@@YAIXZ 10075cb9 f i libucrt:invalid_parameter.obj
 0001:00074cbc       ?value@?$dual_state_global@P6AXPB_W00II@Z@__crt_state_management@@QAEAAP6AXPB_W00II@ZXZ 10075cbc f i libucrt:invalid_parameter.obj
 0001:00074cbf       ___acrt_call_reportfault   10075cbf f   libucrt:invalid_parameter.obj
 0001:00074e48       ___acrt_initialize_invalid_parameter_handler 10075e48 f   libucrt:invalid_parameter.obj
 0001:00074e5a       __get_invalid_parameter_handler 10075e5a f   libucrt:invalid_parameter.obj
 0001:00074e71       __get_thread_local_invalid_parameter_handler 10075e71 f   libucrt:invalid_parameter.obj
 0001:00074e86       __invalid_parameter        10075e86 f   libucrt:invalid_parameter.obj
 0001:00074f03       __invalid_parameter_noinfo 10075f03 f   libucrt:invalid_parameter.obj
 0001:00074f17       __invalid_parameter_noinfo_noreturn 10075f17 f   libucrt:invalid_parameter.obj
 0001:00074f3b       __invoke_watson            10075f3b f   libucrt:invalid_parameter.obj
 0001:00074f7c       __set_invalid_parameter_handler 10075f7c f   libucrt:invalid_parameter.obj
 0001:00074fb8       __set_thread_local_invalid_parameter_handler 10075fb8 f   libucrt:invalid_parameter.obj
 0001:00074fdc       ___acrt_errno_from_os_error 10075fdc f   libucrt:errno.obj
 0001:0007502f       ___acrt_errno_map_os_error 1007602f f   libucrt:errno.obj
 0001:0007505a       ___doserrno                1007605a f   libucrt:errno.obj
 0001:00075071       __errno                    10076071 f   libucrt:errno.obj
 0001:00075088       __get_doserrno             10076088 f   libucrt:errno.obj
 0001:000750b6       __get_errno                100760b6 f   libucrt:errno.obj
 0001:000750e4       __set_doserrno             100760e4 f   libucrt:errno.obj
 0001:0007510d       __set_errno                1007610d f   libucrt:errno.obj
 0001:00075140       _strcspn                   10076140 f   libucrt:strcspn.obj
 0001:00075197       ??$is_overflow_condition@K@__crt_strtox@@YA_NIK@Z 10076197 f i libucrt:strtox.obj
 0001:000751d4       ??$is_overflow_condition@_K@__crt_strtox@@YA_NI_K@Z 100761d4 f i libucrt:strtox.obj
 0001:00075225       ??$make_c_string_character_source@DPAPAD@__crt_strtox@@YA?AV?$c_string_character_source@D@0@QBDQAPAD@Z 10076225 f i libucrt:strtox.obj
 0001:00075246       ??$make_c_string_character_source@_WPAPA_W@__crt_strtox@@YA?AV?$c_string_character_source@_W@0@QB_WQAPA_W@Z 10076246 f i libucrt:strtox.obj
 0001:00075267       ??$parse_integer@KV?$c_string_character_source@D@__crt_strtox@@@__crt_strtox@@YAKQAU__crt_locale_pointers@@V?$c_string_character_source@D@0@H_N@Z 10076267 f i libucrt:strtox.obj
 0001:00075517       ??$parse_integer@KV?$c_string_character_source@_W@__crt_strtox@@@__crt_strtox@@YAKQAU__crt_locale_pointers@@V?$c_string_character_source@_W@0@H_N@Z 10076517 f i libucrt:strtox.obj
 0001:00075ce9       ??$parse_integer@_KV?$c_string_character_source@D@__crt_strtox@@@__crt_strtox@@YA_KQAU__crt_locale_pointers@@V?$c_string_character_source@D@0@H_N@Z 10076ce9 f i libucrt:strtox.obj
 0001:0007603b       ??$parse_integer@_KV?$c_string_character_source@_W@__crt_strtox@@@__crt_strtox@@YA_KQAU__crt_locale_pointers@@V?$c_string_character_source@_W@0@H_N@Z 1007703b f i libucrt:strtox.obj
 0001:0007690a       ??$parse_integer_from_string@JDPAPAD@__crt_strtox@@YAJQBDQAPADHQAU__crt_locale_pointers@@@Z 1007790a f i libucrt:strtox.obj
 0001:00076942       ??$parse_integer_from_string@J_WPAPA_W@__crt_strtox@@YAJQB_WQAPA_WHQAU__crt_locale_pointers@@@Z 10077942 f i libucrt:strtox.obj
 0001:0007697a       ??$parse_integer_from_string@KDPAPAD@__crt_strtox@@YAKQBDQAPADHQAU__crt_locale_pointers@@@Z 1007797a f i libucrt:strtox.obj
 0001:000769b2       ??$parse_integer_from_string@K_WPAPA_W@__crt_strtox@@YAKQB_WQAPA_WHQAU__crt_locale_pointers@@@Z 100779b2 f i libucrt:strtox.obj
 0001:000769ea       ??$parse_integer_from_string@_JDPAPAD@__crt_strtox@@YA_JQBDQAPADHQAU__crt_locale_pointers@@@Z 100779ea f i libucrt:strtox.obj
 0001:00076a22       ??$parse_integer_from_string@_J_WPAPA_W@__crt_strtox@@YA_JQB_WQAPA_WHQAU__crt_locale_pointers@@@Z 10077a22 f i libucrt:strtox.obj
 0001:00076a5a       ??$parse_integer_from_string@_KDPAPAD@__crt_strtox@@YA_KQBDQAPADHQAU__crt_locale_pointers@@@Z 10077a5a f i libucrt:strtox.obj
 0001:00076a92       ??$parse_integer_from_string@_K_WPAPA_W@__crt_strtox@@YA_KQB_WQAPA_WHQAU__crt_locale_pointers@@@Z 10077a92 f i libucrt:strtox.obj
 0001:00076aca       ??0?$c_string_character_source@D@__crt_strtox@@QAE@QBDQAPBD@Z 10077aca f i libucrt:strtox.obj
 0001:00076aed       ??0?$c_string_character_source@_W@__crt_strtox@@QAE@QB_WQAPB_W@Z 10077aed f i libucrt:strtox.obj
 0001:00076b10       ??1?$c_string_character_source@D@__crt_strtox@@QAE@XZ 10077b10 f i libucrt:strtox.obj
 0001:00076b1f       ??1?$c_string_character_source@_W@__crt_strtox@@QAE@XZ 10077b1f f i libucrt:strtox.obj
 0001:00076b2e       ?get@?$c_string_character_source@D@__crt_strtox@@QAEDXZ 10077b2e f i libucrt:strtox.obj
 0001:00076b38       ?get@?$c_string_character_source@_W@__crt_strtox@@QAE_WXZ 10077b38 f i libucrt:strtox.obj
 0001:00076b45       ?is_space@__crt_strtox@@YA_NDQAU__crt_locale_pointers@@@Z 10077b45 f i libucrt:strtox.obj
 0001:00076b6a       ?is_space@__crt_strtox@@YA_N_WPAU__crt_locale_pointers@@@Z 10077b6a f i libucrt:strtox.obj
 0001:00076b88       ?maximum_signed_value@__crt_strtox@@YAJK@Z 10077b88 f i libucrt:strtox.obj
 0001:00076b8e       ?maximum_signed_value@__crt_strtox@@YA_J_K@Z 10077b8e f i libucrt:strtox.obj
 0001:00076b99       ?minimum_signed_value@__crt_strtox@@YAJK@Z 10077b99 f i libucrt:strtox.obj
 0001:00076b9f       ?minimum_signed_value@__crt_strtox@@YA_J_K@Z 10077b9f f i libucrt:strtox.obj
 0001:00076ba9       ?parse_digit@__crt_strtox@@YAID@Z 10077ba9 f i libucrt:strtox.obj
 0001:00076bf1       ?parse_digit@__crt_strtox@@YAI_W@Z 10077bf1 f i libucrt:strtox.obj
 0001:00076e5b       ?restore_state@?$c_string_character_source@D@__crt_strtox@@QAE_NQBD@Z 10077e5b f i libucrt:strtox.obj
 0001:00076e6f       ?restore_state@?$c_string_character_source@_W@__crt_strtox@@QAE_NQB_W@Z 10077e6f f i libucrt:strtox.obj
 0001:00076e83       ?save_state@?$c_string_character_source@D@__crt_strtox@@QBEPBDXZ 10077e83 f i libucrt:strtox.obj
 0001:00076e86       ?save_state@?$c_string_character_source@_W@__crt_strtox@@QBEPB_WXZ 10077e86 f i libucrt:strtox.obj
 0001:00076e89       ?unget@?$c_string_character_source@D@__crt_strtox@@QAEXD@Z 10077e89 f i libucrt:strtox.obj
 0001:00076ebc       ?unget@?$c_string_character_source@_W@__crt_strtox@@QAEX_W@Z 10077ebc f i libucrt:strtox.obj
 0001:00076ef5       ?validate@?$c_string_character_source@D@__crt_strtox@@QBE_NXZ 10077ef5 f i libucrt:strtox.obj
 0001:00076f16       ?validate@?$c_string_character_source@_W@__crt_strtox@@QBE_NXZ 10077f16 f i libucrt:strtox.obj
 0001:00076f37       ?wide_character_to_digit@__crt_strtox@@YAH_W@Z 10077f37 f i libucrt:strtox.obj
 0001:00077140       __strtoi64                 10078140 f   libucrt:strtox.obj
 0001:00077177       __strtoi64_l               10078177 f   libucrt:strtox.obj
 0001:000771af       __strtoimax_l              100781af f   libucrt:strtox.obj
 0001:000771e7       __strtol_l                 100781e7 f   libucrt:strtox.obj
 0001:0007721f       __strtoll_l                1007821f f   libucrt:strtox.obj
 0001:00077257       __strtoui64                10078257 f   libucrt:strtox.obj
 0001:0007728e       __strtoui64_l              1007828e f   libucrt:strtox.obj
 0001:000772c6       __strtoul_l                100782c6 f   libucrt:strtox.obj
 0001:000772fe       __strtoull_l               100782fe f   libucrt:strtox.obj
 0001:00077336       __strtoumax_l              10078336 f   libucrt:strtox.obj
 0001:0007736e       __wcstoi64                 1007836e f   libucrt:strtox.obj
 0001:000773a5       __wcstoi64_l               100783a5 f   libucrt:strtox.obj
 0001:000773dd       __wcstoimax_l              100783dd f   libucrt:strtox.obj
 0001:00077415       __wcstol_l                 10078415 f   libucrt:strtox.obj
 0001:0007744d       __wcstoll_l                1007844d f   libucrt:strtox.obj
 0001:00077485       __wcstoui64                10078485 f   libucrt:strtox.obj
 0001:000774bc       __wcstoui64_l              100784bc f   libucrt:strtox.obj
 0001:000774f4       __wcstoul_l                100784f4 f   libucrt:strtox.obj
 0001:0007752c       __wcstoull_l               1007852c f   libucrt:strtox.obj
 0001:00077564       __wcstoumax_l              10078564 f   libucrt:strtox.obj
 0001:0007759c       _strtoimax                 1007859c f   libucrt:strtox.obj
 0001:000775d3       _strtol                    100785d3 f   libucrt:strtox.obj
 0001:0007760a       _strtoll                   1007860a f   libucrt:strtox.obj
 0001:00077641       _strtoul                   10078641 f   libucrt:strtox.obj
 0001:00077678       _strtoull                  10078678 f   libucrt:strtox.obj
 0001:000776af       _strtoumax                 100786af f   libucrt:strtox.obj
 0001:000776e6       _wcstoimax                 100786e6 f   libucrt:strtox.obj
 0001:0007771d       _wcstol                    1007871d f   libucrt:strtox.obj
 0001:00077754       _wcstoll                   10078754 f   libucrt:strtox.obj
 0001:0007778b       _wcstoul                   1007878b f   libucrt:strtox.obj
 0001:000777c2       _wcstoull                  100787c2 f   libucrt:strtox.obj
 0001:000777f9       _wcstoumax                 100787f9 f   libucrt:strtox.obj
 0001:00077830       _frexp                     10078830 f   libucrt:frexp.obj
 0001:00077986       __get_terminate            10078986 f   libucrt:terminate.obj
 0001:0007799c       _set_terminate             1007899c f   libucrt:terminate.obj
 0001:000779c4       _terminate                 100789c4 f   libucrt:terminate.obj
 0001:00077a0f       _localeconv                10078a0f f   libucrt:localeconv.obj
 0001:00077b4a       __access                   10078b4a f   libucrt:access.obj
 0001:00077b68       __access_s                 10078b68 f   libucrt:access.obj
 0001:00077c00       __libm_sse2_pow_precise    10078c00 f   libucrt:pow_sse2_precise.obj
 0001:00078a24       __errcode                  10079a24 f   libucrt:fpexcept.obj
 0001:00078a65       __except1                  10079a65 f   libucrt:fpexcept.obj
 0001:00078b66       __except2                  10079b66 f   libucrt:fpexcept.obj
 0001:00078caf       __handle_exc               10079caf f   libucrt:fpexcept.obj
 0001:00078f17       __handle_qnan2             10079f17 f   libucrt:fpexcept.obj
 0001:00078f27       __raise_exc                10079f27 f   libucrt:fpexcept.obj
 0001:00078f52       __raise_exc_ex             10079f52 f   libucrt:fpexcept.obj
 0001:00079305       __raise_excf               1007a305 f   libucrt:fpexcept.obj
 0001:00079330       __set_errno_from_matherr   1007a330 f   libucrt:fpexcept.obj
 0001:0007936a       __umatherr                 1007a36a f   libucrt:fpexcept.obj
 0001:00079434       __initterm                 1007a434 f   libucrt:initterm.obj
 0001:0007948c       __initterm_e               1007a48c f   libucrt:initterm.obj
 0001:000794c5       ??$?B$$A6AHI@Z@__crt_fast_encoded_nullptr_t@@QBEP6AHI@ZXZ 1007a4c5 f i libucrt:new_handler.obj
 0001:000794cb       ??$__crt_fast_decode_pointer@P6AHI@Z@@YAP6AHI@ZQ6AHI@Z@Z 1007a4cb f i libucrt:new_handler.obj
 0001:000794e6       ??$__crt_fast_encode_pointer@P6AHI@Z@@YAP6AHI@ZQ6AHI@Z@Z 1007a4e6 f i libucrt:new_handler.obj
 0001:0007950c       ?_set_new_handler@@YAP6AHI@ZH@Z 1007a50c f   libucrt:new_handler.obj
 0001:0007951c       ?initialize@?$dual_state_global@P6AHI@Z@__crt_state_management@@QAEXQ6AHI@Z@Z 1007a51c f i libucrt:new_handler.obj
 0001:0007954b       ?value@?$dual_state_global@P6AHI@Z@__crt_state_management@@QAEAAP6AHI@ZXZ 1007a54b f i libucrt:new_handler.obj
 0001:0007954e       ___acrt_initialize_new_handler 1007a54e f   libucrt:new_handler.obj
 0001:00079560       __callnewh                 1007a560 f   libucrt:new_handler.obj
 0001:00079598       __query_new_handler        1007a598 f   libucrt:new_handler.obj
 0001:000795fe       __set_new_handler          1007a5fe f   libucrt:new_handler.obj
 0001:000796a3       __seh_filter_dll           1007a6a3 f   libucrt:exception_filter.obj
 0001:000796cb       __seh_filter_exe           1007a6cb f   libucrt:exception_filter.obj
 0001:0007987b       ??$?RE@__crt_internal_free_policy@@QBEXQBE@Z 1007a87b f i libucrt:argv_parsing.obj
 0001:00079891       ??$?RPAD@__crt_internal_free_policy@@QBEXQBQAD@Z 1007a891 f i libucrt:argv_parsing.obj
 0001:000798a7       ??$?RPA_W@__crt_internal_free_policy@@QBEXQBQA_W@Z 1007a8a7 f i libucrt:argv_parsing.obj
 0001:00079bc0       ??$get_module_file_name@$$TAAY0BAF@DH@?$__crt_char_traits@D@@SAK$$QA$$TAAY0BAF@D$$QAH@Z 1007abc0 f i libucrt:argv_parsing.obj
 0001:00079be3       ??$get_module_file_name@$$TAAY0BAF@_WH@?$__crt_char_traits@_W@@SAK$$QA$$TAAY0BAF@_W$$QAH@Z 1007abe3 f i libucrt:argv_parsing.obj
 0001:00079fd6       ??$set_program_name@PAD@?$__crt_char_traits@D@@SAX$$QAPAD@Z 1007afd6 f i libucrt:argv_parsing.obj
 0001:00079feb       ??$set_program_name@PA_W@?$__crt_char_traits@_W@@SAX$$QAPA_W@Z 1007afeb f i libucrt:argv_parsing.obj
 0001:0007a028       ??0?$__crt_unique_heap_ptr@EU__crt_internal_free_policy@@@@QAE@QAE@Z 1007b028 f i libucrt:argv_parsing.obj
 0001:0007a03c       ??0?$__crt_unique_heap_ptr@PADU__crt_internal_free_policy@@@@QAE@QAPAD@Z 1007b03c f i libucrt:argv_parsing.obj
 0001:0007a050       ??0?$__crt_unique_heap_ptr@PA_WU__crt_internal_free_policy@@@@QAE@QAPA_W@Z 1007b050 f i libucrt:argv_parsing.obj
 0001:0007a064       ??1?$__crt_unique_heap_ptr@EU__crt_internal_free_policy@@@@QAE@XZ 1007b064 f i libucrt:argv_parsing.obj
 0001:0007a07a       ??1?$__crt_unique_heap_ptr@PADU__crt_internal_free_policy@@@@QAE@XZ 1007b07a f i libucrt:argv_parsing.obj
 0001:0007a090       ??1?$__crt_unique_heap_ptr@PA_WU__crt_internal_free_policy@@@@QAE@XZ 1007b090 f i libucrt:argv_parsing.obj
 0001:0007a0a6       ??B?$__crt_unique_heap_ptr@EU__crt_internal_free_policy@@@@QBE_NXZ 1007b0a6 f i libucrt:argv_parsing.obj
 0001:0007a0e3       ?detach@?$__crt_unique_heap_ptr@EU__crt_internal_free_policy@@@@QAEPAEXZ 1007b0e3 f i libucrt:argv_parsing.obj
 0001:0007a0e9       ?detach@?$__crt_unique_heap_ptr@PADU__crt_internal_free_policy@@@@QAEPAPADXZ 1007b0e9 f i libucrt:argv_parsing.obj
 0001:0007a0ef       ?detach@?$__crt_unique_heap_ptr@PA_WU__crt_internal_free_policy@@@@QAEPAPA_WXZ 1007b0ef f i libucrt:argv_parsing.obj
 0001:0007a117       ?get@?$__crt_unique_heap_ptr@EU__crt_internal_free_policy@@@@QBEPAEXZ 1007b117 f i libucrt:argv_parsing.obj
 0001:0007a11a       ?get@?$__crt_unique_heap_ptr@PADU__crt_internal_free_policy@@@@QBEPAPADXZ 1007b11a f i libucrt:argv_parsing.obj
 0001:0007a11d       ?get@?$__crt_unique_heap_ptr@PA_WU__crt_internal_free_policy@@@@QBEPAPA_WXZ 1007b11d f i libucrt:argv_parsing.obj
 0001:0007a120       ?get_address_of@?$__crt_unique_heap_ptr@PADU__crt_internal_free_policy@@@@QAEPAPAPADXZ 1007b120 f i libucrt:argv_parsing.obj
 0001:0007a123       ?get_address_of@?$__crt_unique_heap_ptr@PA_WU__crt_internal_free_policy@@@@QAEPAPAPA_WXZ 1007b123 f i libucrt:argv_parsing.obj
 0001:0007a13e       ?is_valid@?$__crt_unique_heap_ptr@EU__crt_internal_free_policy@@@@QBE_NXZ 1007b13e f i libucrt:argv_parsing.obj
 0001:0007a145       ?release@?$__crt_unique_heap_ptr@EU__crt_internal_free_policy@@@@QAEXXZ 1007b145 f i libucrt:argv_parsing.obj
 0001:0007a15b       ?release@?$__crt_unique_heap_ptr@PADU__crt_internal_free_policy@@@@QAEXXZ 1007b15b f i libucrt:argv_parsing.obj
 0001:0007a171       ?release@?$__crt_unique_heap_ptr@PA_WU__crt_internal_free_policy@@@@QAEXXZ 1007b171 f i libucrt:argv_parsing.obj
 0001:0007a1a6       ___acrt_allocate_buffer_for_argv 1007b1a6 f   libucrt:argv_parsing.obj
 0001:0007a208       __configure_narrow_argv    1007b208 f   libucrt:argv_parsing.obj
 0001:0007a215       __configure_wide_argv      1007b215 f   libucrt:argv_parsing.obj
 0001:0007a222       __set_pgmptr               1007b222 f i libucrt:argv_parsing.obj
 0001:0007a234       __set_wpgmptr              1007b234 f i libucrt:argv_parsing.obj
 0001:0007a246       ??$?R_W@__crt_internal_free_policy@@QBEXQB_W@Z 1007b246 f i libucrt:environment_initialization.obj
 0001:0007a72c       ??$get_environment_from_os@$$V@?$__crt_char_traits@D@@SAPADXZ 1007b72c f i libucrt:environment_initialization.obj
 0001:0007a731       ??$get_environment_from_os@$$V@?$__crt_char_traits@_W@@SAPA_WXZ 1007b731 f i libucrt:environment_initialization.obj
 0001:0007a875       ??$set_variable_in_environment_nolock@PADH@?$__crt_char_traits@D@@SAH$$QAPAD$$QAH@Z 1007b875 f i libucrt:environment_initialization.obj
 0001:0007a893       ??$set_variable_in_environment_nolock@PA_WH@?$__crt_char_traits@_W@@SAH$$QAPA_W$$QAH@Z 1007b893 f i libucrt:environment_initialization.obj
 0001:0007a8b1       ??$tcscpy_s@PADABIAAPAD@?$__crt_char_traits@D@@SAH$$QAPADABIAAPAD@Z 1007b8b1 f i libucrt:environment_initialization.obj
 0001:0007a8d6       ??$tcscpy_s@PA_WABIAAPA_W@?$__crt_char_traits@_W@@SAH$$QAPA_WABIAAPA_W@Z 1007b8d6 f i libucrt:environment_initialization.obj
 0001:0007a8fb       ??$tcslen@AAPAD@?$__crt_char_traits@D@@SAIAAPAD@Z 1007b8fb f i libucrt:environment_initialization.obj
 0001:0007a919       ??$tcslen@AAPA_W@?$__crt_char_traits@_W@@SAIAAPA_W@Z 1007b919 f i libucrt:environment_initialization.obj
 0001:0007a93e       ??$uninitialize@A6AXAAPAPAD@Z@?$dual_state_global@PAPAD@__crt_state_management@@QAEXA6AXAAPAPAD@Z@Z 1007b93e f i libucrt:environment_initialization.obj
 0001:0007a971       ??$uninitialize@A6AXAAPAPA_W@Z@?$dual_state_global@PAPA_W@__crt_state_management@@QAEXA6AXAAPAPA_W@Z@Z 1007b971 f i libucrt:environment_initialization.obj
 0001:0007a9e6       ??0?$__crt_unique_heap_ptr@_WU__crt_internal_free_policy@@@@QAE@QA_W@Z 1007b9e6 f i libucrt:environment_initialization.obj
 0001:0007a9fa       ??1?$__crt_unique_heap_ptr@_WU__crt_internal_free_policy@@@@QAE@XZ 1007b9fa f i libucrt:environment_initialization.obj
 0001:0007aa10       ??B?$__crt_unique_heap_ptr@PADU__crt_internal_free_policy@@@@QBE_NXZ 1007ba10 f i libucrt:environment_initialization.obj
 0001:0007aa17       ??B?$__crt_unique_heap_ptr@PA_WU__crt_internal_free_policy@@@@QBE_NXZ 1007ba17 f i libucrt:environment_initialization.obj
 0001:0007aa1e       ??B?$__crt_unique_heap_ptr@_WU__crt_internal_free_policy@@@@QBE_NXZ 1007ba1e f i libucrt:environment_initialization.obj
 0001:0007aa25       ?__crt_compute_required_transform_buffer_count@@YAIIQBD@Z 1007ba25 f i libucrt:environment_initialization.obj
 0001:0007aa48       ?__crt_compute_required_transform_buffer_count@@YAIIQB_W@Z 1007ba48 f i libucrt:environment_initialization.obj
 0001:0007aa6d       ?__crt_transform_string@@YAIIQBDQA_WI@Z 1007ba6d f i libucrt:environment_initialization.obj
 0001:0007aa93       ?__crt_transform_string@@YAIIQB_WQADI@Z 1007ba93 f i libucrt:environment_initialization.obj
 0001:0007aabd       ?detach@?$__crt_unique_heap_ptr@DU__crt_internal_free_policy@@@@QAEPADXZ 1007babd f i libucrt:environment_initialization.obj
 0001:0007aac3       ?detach@?$__crt_unique_heap_ptr@_WU__crt_internal_free_policy@@@@QAEPA_WXZ 1007bac3 f i libucrt:environment_initialization.obj
 0001:0007aac9       ?get@?$__crt_unique_heap_ptr@_WU__crt_internal_free_policy@@@@QBEPA_WXZ 1007bac9 f i libucrt:environment_initialization.obj
 0001:0007aaf0       ?initialize@?$dual_state_global@PAPAD@__crt_state_management@@QAEXQAPAD@Z 1007baf0 f i libucrt:environment_initialization.obj
 0001:0007ab1f       ?initialize@?$dual_state_global@PAPA_W@__crt_state_management@@QAEXQAPA_W@Z 1007bb1f f i libucrt:environment_initialization.obj
 0001:0007ab4e       ?is_valid@?$__crt_unique_heap_ptr@PADU__crt_internal_free_policy@@@@QBE_NXZ 1007bb4e f i libucrt:environment_initialization.obj
 0001:0007ab55       ?is_valid@?$__crt_unique_heap_ptr@PA_WU__crt_internal_free_policy@@@@QBE_NXZ 1007bb55 f i libucrt:environment_initialization.obj
 0001:0007ab5c       ?is_valid@?$__crt_unique_heap_ptr@_WU__crt_internal_free_policy@@@@QBE_NXZ 1007bb5c f i libucrt:environment_initialization.obj
 0001:0007ab6b       ?release@?$__crt_unique_heap_ptr@_WU__crt_internal_free_policy@@@@QAEXXZ 1007bb6b f i libucrt:environment_initialization.obj
 0001:0007ab81       ?value@?$dual_state_global@PAPAD@__crt_state_management@@QAEAAPAPADXZ 1007bb81 f i libucrt:environment_initialization.obj
 0001:0007ab84       ?value@?$dual_state_global@PAPA_W@__crt_state_management@@QAEAAPAPA_WXZ 1007bb84 f i libucrt:environment_initialization.obj
 0001:0007ab87       ___dcrt_get_or_create_narrow_environment_nolock 1007bb87 f   libucrt:environment_initialization.obj
 0001:0007ab8c       ___dcrt_get_or_create_wide_environment_nolock 1007bb8c f   libucrt:environment_initialization.obj
 0001:0007ab91       ___dcrt_uninitialize_environments_nolock 1007bb91 f   libucrt:environment_initialization.obj
 0001:0007abd5       ___p__environ              1007bbd5 f   libucrt:environment_initialization.obj
 0001:0007abdb       ___p__wenviron             1007bbdb f   libucrt:environment_initialization.obj
 0001:0007abe1       __get_initial_narrow_environment 1007bbe1 f   libucrt:environment_initialization.obj
 0001:0007abfa       __get_initial_wide_environment 1007bbfa f   libucrt:environment_initialization.obj
 0001:0007ac13       __initialize_narrow_environment 1007bc13 f   libucrt:environment_initialization.obj
 0001:0007ac18       __initialize_wide_environment 1007bc18 f   libucrt:environment_initialization.obj
 0001:0007ac1d       __invoke_watson_if_error   1007bc1d f i libucrt:environment_initialization.obj
 0001:0007ac47       ??$?BP6AXXZ@__crt_fast_encoded_nullptr_t@@QBEPAP6AXXZXZ 1007bc47 f i libucrt:onexit.obj
 0001:0007ac4d       ??$?RP6AXXZ@__crt_internal_free_policy@@QBEXQBQ6AXXZ@Z 1007bc4d f i libucrt:onexit.obj
 0001:0007ad91       ??$__crt_fast_encode_pointer@P6AHXZ@@YAP6AHXZQ6AHXZ@Z 1007bd91 f i libucrt:onexit.obj
 0001:0007ae3e       ??0?$__crt_unique_heap_ptr@P6AXXZU__crt_internal_free_policy@@@@QAE@QAP6AXXZ@Z 1007be3e f i libucrt:onexit.obj
 0001:0007ae52       ??1?$__crt_unique_heap_ptr@P6AXXZU__crt_internal_free_policy@@@@QAE@XZ 1007be52 f i libucrt:onexit.obj
 0001:0007ae68       ??1scoped_global_state_reset@__crt_state_management@@QAE@XZ 1007be68 f i libucrt:onexit.obj
 0001:0007b11f       ?detach@?$__crt_unique_heap_ptr@P6AXXZU__crt_internal_free_policy@@@@QAEPAP6AXXZXZ 1007c11f f i libucrt:onexit.obj
 0001:0007b125       ?release@?$__crt_unique_heap_ptr@P6AXXZU__crt_internal_free_policy@@@@QAEXXZ 1007c125 f i libucrt:onexit.obj
 0001:0007b13b       __crt_at_quick_exit        1007c13b f   libucrt:onexit.obj
 0001:0007b156       __crt_atexit               1007c156 f   libucrt:onexit.obj
 0001:0007b171       __execute_onexit_table     1007c171 f   libucrt:onexit.obj
 0001:0007b1ab       __initialize_onexit_table  1007c1ab f   libucrt:onexit.obj
 0001:0007b1de       __register_onexit_function 1007c1de f   libucrt:onexit.obj
 0001:0007b396       ?__acrt_stdio_is_initialized@@YA_NXZ 1007c396 f i libucrt:initialization.obj
 0001:0007b3a3       ?initialize@?$dual_state_global@PAU__crt_locale_data@@@__crt_state_management@@QAEXQAU__crt_locale_data@@@Z 1007c3a3 f i libucrt:initialization.obj
 0001:0007b3d2       ___acrt_initialize         1007c3d2 f   libucrt:initialization.obj
 0001:0007b3e8       ___acrt_thread_attach      1007c3e8 f   libucrt:initialization.obj
 0001:0007b3f5       ___acrt_thread_detach      1007c3f5 f   libucrt:initialization.obj
 0001:0007b3ff       ___acrt_uninitialize       1007c3ff f   libucrt:initialization.obj
 0001:0007b43b       ___acrt_uninitialize_critical 1007c43b f   libucrt:initialization.obj
 0001:0007b451       ___acrt_initialize_locks   1007c451 f   libucrt:locks.obj
 0001:0007b4a2       ___acrt_lock               1007c4a2 f   libucrt:locks.obj
 0001:0007b4be       ___acrt_uninitialize_locks 1007c4be f   libucrt:locks.obj
 0001:0007b4fb       ___acrt_unlock             1007c4fb f   libucrt:locks.obj
 0001:0007b517       __lock_locales             1007c517 f   libucrt:locks.obj
 0001:0007b528       __unlock_locales           1007c528 f   libucrt:locks.obj
 0001:0007b533       ___pctype_func             1007c533 f   libucrt:ctype.obj
 0001:0007b562       ___pwctype_func            1007c562 f   libucrt:ctype.obj
 0001:0007b568       __wcsdup                   1007c568 f   libucrt:wcsdup.obj
 0001:0007b5de       ??$?RG@__crt_internal_free_policy@@QBEXQBG@Z 1007c5de f i libucrt:initctype.obj
 0001:0007b5f4       ??$?RJ@__crt_internal_free_policy@@QBEXQBJ@Z 1007c5f4 f i libucrt:initctype.obj
 0001:0007b60a       ??0?$__crt_unique_heap_ptr@GU__crt_internal_free_policy@@@@QAE@QAG@Z 1007c60a f i libucrt:initctype.obj
 0001:0007b61e       ??0?$__crt_unique_heap_ptr@JU__crt_internal_free_policy@@@@QAE@QAJ@Z 1007c61e f i libucrt:initctype.obj
 0001:0007b632       ??1?$__crt_unique_heap_ptr@GU__crt_internal_free_policy@@@@QAE@XZ 1007c632 f i libucrt:initctype.obj
 0001:0007b648       ??1?$__crt_unique_heap_ptr@JU__crt_internal_free_policy@@@@QAE@XZ 1007c648 f i libucrt:initctype.obj
 0001:0007b65e       ?detach@?$__crt_unique_heap_ptr@GU__crt_internal_free_policy@@@@QAEPAGXZ 1007c65e f i libucrt:initctype.obj
 0001:0007b664       ?detach@?$__crt_unique_heap_ptr@JU__crt_internal_free_policy@@@@QAEPAJXZ 1007c664 f i libucrt:initctype.obj
 0001:0007b66a       ?release@?$__crt_unique_heap_ptr@GU__crt_internal_free_policy@@@@QAEXXZ 1007c66a f i libucrt:initctype.obj
 0001:0007b680       ?release@?$__crt_unique_heap_ptr@JU__crt_internal_free_policy@@@@QAEXXZ 1007c680 f i libucrt:initctype.obj
 0001:0007b696       ____lc_codepage_func       1007c696 f   libucrt:initctype.obj
 0001:0007b6c6       ____lc_collate_cp_func     1007c6c6 f   libucrt:initctype.obj
 0001:0007b6f6       ____lc_locale_name_func    1007c6f6 f   libucrt:initctype.obj
 0001:0007b729       ____mb_cur_max_func        1007c729 f   libucrt:initctype.obj
 0001:0007b759       ____mb_cur_max_l_func      1007c759 f   libucrt:initctype.obj
 0001:0007b778       ___acrt_locale_initialize_ctype 1007c778 f   libucrt:initctype.obj
 0001:0007bf77       __invoke_watson_if_oneof   1007cf77 f i libucrt:setlocale.obj
 0001:0007c073       _setlocale                 1007d073 f   libucrt:setlocale.obj
 0001:0007c0bb       ___strncnt                 1007d0bb f   libucrt:strncnt.obj
 0001:0007c0de       ??$assemble_floating_point_ind@M@__crt_strtox@@YAXAAM@Z 1007d0de f i libucrt:strtod.obj
 0001:0007c0f2       ??$assemble_floating_point_ind@N@__crt_strtox@@YAXAAN@Z 1007d0f2 f i libucrt:strtod.obj
 0001:0007c10b       ??$assemble_floating_point_infinity@M@__crt_strtox@@YAX_NAAM@Z 1007d10b f i libucrt:strtod.obj
 0001:0007c12a       ??$assemble_floating_point_infinity@N@__crt_strtox@@YAX_NAAN@Z 1007d12a f i libucrt:strtod.obj
 0001:0007c14e       ??$assemble_floating_point_qnan@M@__crt_strtox@@YAX_NAAM@Z 1007d14e f i libucrt:strtod.obj
 0001:0007c16d       ??$assemble_floating_point_qnan@N@__crt_strtox@@YAX_NAAN@Z 1007d16d f i libucrt:strtod.obj
 0001:0007c191       ??$assemble_floating_point_snan@M@__crt_strtox@@YAX_NAAM@Z 1007d191 f i libucrt:strtod.obj
 0001:0007c1b0       ??$assemble_floating_point_snan@N@__crt_strtox@@YAX_NAAN@Z 1007d1b0 f i libucrt:strtod.obj
 0001:0007c1d9       ??$assemble_floating_point_value_t@M@__crt_strtox@@YA?AW4SLD_STATUS@@_NH_KAAM@Z 1007d1d9 f i libucrt:strtod.obj
 0001:0007c215       ??$assemble_floating_point_value_t@N@__crt_strtox@@YA?AW4SLD_STATUS@@_NH_KAAN@Z 1007d215 f i libucrt:strtod.obj
 0001:0007c267       ??$assemble_floating_point_zero@M@__crt_strtox@@YAX_NAAM@Z 1007d267 f i libucrt:strtod.obj
 0001:0007c27e       ??$assemble_floating_point_zero@N@__crt_strtox@@YAX_NAAN@Z 1007d27e f i libucrt:strtod.obj
 0001:0007c560       ??$convert_decimal_string_to_floating_type@M@__crt_strtox@@YA?AW4SLD_STATUS@@ABUfloating_point_string@0@AAM@Z 1007d560 f i libucrt:strtod.obj
 0001:0007c58b       ??$convert_decimal_string_to_floating_type@N@__crt_strtox@@YA?AW4SLD_STATUS@@ABUfloating_point_string@0@AAN@Z 1007d58b f i libucrt:strtod.obj
 0001:0007c5b6       ??$convert_hexadecimal_string_to_floating_type@M@__crt_strtox@@YA?AW4SLD_STATUS@@ABUfloating_point_string@0@AAM@Z 1007d5b6 f i libucrt:strtod.obj
 0001:0007c5e1       ??$convert_hexadecimal_string_to_floating_type@N@__crt_strtox@@YA?AW4SLD_STATUS@@ABUfloating_point_string@0@AAN@Z 1007d5e1 f i libucrt:strtod.obj
 0001:0007c60c       ??$parse_floating_point@V?$c_string_character_source@D@__crt_strtox@@M@__crt_strtox@@YA?AW4SLD_STATUS@@QAU__crt_locale_pointers@@V?$c_string_character_source@D@0@QAM@Z 1007d60c f i libucrt:strtod.obj
 0001:0007c69f       ??$parse_floating_point@V?$c_string_character_source@D@__crt_strtox@@N@__crt_strtox@@YA?AW4SLD_STATUS@@QAU__crt_locale_pointers@@V?$c_string_character_source@D@0@QAN@Z 1007d69f f i libucrt:strtod.obj
 0001:0007c732       ??$parse_floating_point@V?$c_string_character_source@_W@__crt_strtox@@M@__crt_strtox@@YA?AW4SLD_STATUS@@QAU__crt_locale_pointers@@V?$c_string_character_source@_W@0@QAM@Z 1007d732 f i libucrt:strtod.obj
 0001:0007c7c5       ??$parse_floating_point@V?$c_string_character_source@_W@__crt_strtox@@N@__crt_strtox@@YA?AW4SLD_STATUS@@QAU__crt_locale_pointers@@V?$c_string_character_source@_W@0@QAN@Z 1007d7c5 f i libucrt:strtod.obj
 0001:0007c858       ??$parse_floating_point_from_source@V?$c_string_character_source@D@__crt_strtox@@@__crt_strtox@@YA?AW4floating_point_parse_result@0@QAU__crt_locale_pointers@@AAV?$c_string_character_source@D@0@AAUfloating_point_string@0@@Z 1007d858 f i libucrt:strtod.obj
 0001:0007cd4c       ??$parse_floating_point_from_source@V?$c_string_character_source@_W@__crt_strtox@@@__crt_strtox@@YA?AW4floating_point_parse_result@0@QAU__crt_locale_pointers@@AAV?$c_string_character_source@_W@0@AAUfloating_point_string@0@@Z 1007dd4c f i libucrt:strtod.obj
 0001:0007dd96       ??$parse_floating_point_possible_infinity@DV?$c_string_character_source@D@__crt_strtox@@PBD@__crt_strtox@@YA?AW4floating_point_parse_result@0@AADAAV?$c_string_character_source@D@0@PBD@Z 1007ed96 f i libucrt:strtod.obj
 0001:0007de63       ??$parse_floating_point_possible_infinity@_WV?$c_string_character_source@_W@__crt_strtox@@PB_W@__crt_strtox@@YA?AW4floating_point_parse_result@0@AA_WAAV?$c_string_character_source@_W@0@PB_W@Z 1007ee63 f i libucrt:strtod.obj
 0001:0007df72       ??$parse_floating_point_possible_nan@DV?$c_string_character_source@D@__crt_strtox@@PBD@__crt_strtox@@YA?AW4floating_point_parse_result@0@AADAAV?$c_string_character_source@D@0@PBD@Z 1007ef72 f i libucrt:strtod.obj
 0001:0007e0c7       ??$parse_floating_point_possible_nan@_WV?$c_string_character_source@_W@__crt_strtox@@PB_W@__crt_strtox@@YA?AW4floating_point_parse_result@0@AA_WAAV?$c_string_character_source@_W@0@PB_W@Z 1007f0c7 f i libucrt:strtod.obj
 0001:0007e26b       ??$parse_floating_point_possible_nan_is_ind@DV?$c_string_character_source@D@__crt_strtox@@@__crt_strtox@@YA_NAADAAV?$c_string_character_source@D@0@@Z 1007f26b f i libucrt:strtod.obj
 0001:0007e2b6       ??$parse_floating_point_possible_nan_is_ind@_WV?$c_string_character_source@_W@__crt_strtox@@@__crt_strtox@@YA_NAA_WAAV?$c_string_character_source@_W@0@@Z 1007f2b6 f i libucrt:strtod.obj
 0001:0007e30e       ??$parse_floating_point_possible_nan_is_snan@DV?$c_string_character_source@D@__crt_strtox@@@__crt_strtox@@YA_NAADAAV?$c_string_character_source@D@0@@Z 1007f30e f i libucrt:strtod.obj
 0001:0007e359       ??$parse_floating_point_possible_nan_is_snan@_WV?$c_string_character_source@_W@__crt_strtox@@@__crt_strtox@@YA_NAA_WAAV?$c_string_character_source@_W@0@@Z 1007f359 f i libucrt:strtod.obj
 0001:0007e3b1       ??$parse_floating_point_write_result@M@__crt_strtox@@YA?AW4SLD_STATUS@@W4floating_point_parse_result@0@ABUfloating_point_string@0@QAM@Z 1007f3b1 f i libucrt:strtod.obj
 0001:0007e578       ??$parse_floating_point_write_result@N@__crt_strtox@@YA?AW4SLD_STATUS@@W4floating_point_parse_result@0@ABUfloating_point_string@0@QAN@Z 1007f578 f i libucrt:strtod.obj
 0001:0007e6e5       ??$parse_next_characters_from_source@DV?$c_string_character_source@D@__crt_strtox@@@__crt_strtox@@YA_NQBD0IAADAAV?$c_string_character_source@D@0@@Z 1007f6e5 f i libucrt:strtod.obj
 0001:0007e740       ??$parse_next_characters_from_source@_WV?$c_string_character_source@_W@__crt_strtox@@@__crt_strtox@@YA_NQB_W0IAA_WAAV?$c_string_character_source@_W@0@@Z 1007f740 f i libucrt:strtod.obj
 0001:0007e880       ??0big_integer@__crt_strtox@@QAE@ABU01@@Z 1007f880 f i libucrt:strtod.obj
 0001:0007e8c0       ??0big_integer@__crt_strtox@@QAE@XZ 1007f8c0 f i libucrt:strtod.obj
 0001:0007e8cb       ??0floating_point_value@__crt_strtox@@QAE@QAM@Z 1007f8cb f i libucrt:strtod.obj
 0001:0007e8e4       ??0floating_point_value@__crt_strtox@@QAE@QAN@Z 1007f8e4 f i libucrt:strtod.obj
 0001:0007e900       ??4big_integer@__crt_strtox@@QAEAAU01@ABU01@@Z 1007f900 f i libucrt:strtod.obj
 0001:0007e940       ??M__crt_strtox@@YA_NABUbig_integer@0@0@Z 1007f940 f i libucrt:strtod.obj
 0001:0007eacd       ?accumulate_decimal_digits_into_big_integer@__crt_strtox@@YAXQBE0AAUbig_integer@1@@Z 1007facd f i libucrt:strtod.obj
 0001:0007f280       ?add@__crt_strtox@@YA_NAAUbig_integer@1@I@Z 10080280 f i libucrt:strtod.obj
 0001:0007f320       ?add_carry@__crt_strtox@@YAIAAIII@Z 10080320 f i libucrt:strtod.obj
 0001:0007f350       ?add_multiply_carry@__crt_strtox@@YAIAAIIII@Z 10080350 f i libucrt:strtod.obj
 0001:0007f37d       ?as_double@floating_point_value@__crt_strtox@@QBEAANXZ 1008037d f i libucrt:strtod.obj
 0001:0007f3ab       ?as_float@floating_point_value@__crt_strtox@@QBEAAMXZ 100803ab f i libucrt:strtod.obj
 0001:0007f3d9       ?assemble_floating_point_infinity@__crt_strtox@@YAX_NABVfloating_point_value@1@@Z 100803d9 f i libucrt:strtod.obj
 0001:0007f429       ?assemble_floating_point_value@__crt_strtox@@YA?AW4SLD_STATUS@@_KH_N1ABVfloating_point_value@1@@Z 10080429 f i libucrt:strtod.obj
 0001:0007f837       ?assemble_floating_point_value_from_big_integer@__crt_strtox@@YA?AW4SLD_STATUS@@ABUbig_integer@1@I_N1ABVfloating_point_value@1@@Z 10080837 f i libucrt:strtod.obj
 0001:0007fa32       ?assemble_floating_point_zero@__crt_strtox@@YAX_NABVfloating_point_value@1@@Z 10080a32 f i libucrt:strtod.obj
 0001:0007fa80       ?bit_scan_reverse@__crt_strtox@@YAIABUbig_integer@1@@Z 10080a80 f i libucrt:strtod.obj
 0001:0007fad0       ?bit_scan_reverse@__crt_strtox@@YAII@Z 10080ad0 f i libucrt:strtod.obj
 0001:0007fb00       ?bit_scan_reverse@__crt_strtox@@YAI_K@Z 10080b00 f i libucrt:strtod.obj
 0001:0007fb58       ?convert_decimal_string_to_floating_type_common@__crt_strtox@@YA?AW4SLD_STATUS@@ABUfloating_point_string@1@ABVfloating_point_value@1@@Z 10080b58 f i libucrt:strtod.obj
 0001:0008201c       ?convert_hexadecimal_string_to_floating_type_common@__crt_strtox@@YA?AW4SLD_STATUS@@ABUfloating_point_string@1@ABVfloating_point_value@1@@Z 1008301c f i libucrt:strtod.obj
 0001:000820f0       ?count_sequential_high_zeroes@__crt_strtox@@YAII@Z 100830f0 f i libucrt:strtod.obj
 0001:00082111       ?denormal_mantissa_mask@floating_point_value@__crt_strtox@@QBE_KXZ 10083111 f i libucrt:strtod.obj
 0001:00082130       ?divide@__crt_strtox@@YA_KAAUbig_integer@1@ABU21@@Z 10083130 f i libucrt:strtod.obj
 0001:000826ee       ?exponent_bias@floating_point_value@__crt_strtox@@QBEHXZ 100836ee f i libucrt:strtod.obj
 0001:00082704       ?is_digit_or_nondigit@__crt_strtox@@YA_NH@Z 10083704 f i libucrt:strtod.obj
 0001:0008273c       ?is_double@floating_point_value@__crt_strtox@@QBE_NXZ 1008373c f i libucrt:strtod.obj
 0001:00082740       ?make_big_integer@__crt_strtox@@YA?AUbig_integer@1@_K@Z 10083740 f i libucrt:strtod.obj
 0001:00082768       ?mantissa_bits@floating_point_value@__crt_strtox@@QBEHXZ 10083768 f i libucrt:strtod.obj
 0001:0008277c       ?maximum_binary_exponent@floating_point_value@__crt_strtox@@QBEHXZ 1008377c f i libucrt:strtod.obj
 0001:00082792       ?minimum_binary_exponent@floating_point_value@__crt_strtox@@QBEHXZ 10083792 f i libucrt:strtod.obj
 0001:000827b0       ?multiply@__crt_strtox@@YA_NAAUbig_integer@1@ABU21@@Z 100837b0 f i libucrt:strtod.obj
 0001:00082bc0       ?multiply@__crt_strtox@@YA_NAAUbig_integer@1@I@Z 10083bc0 f i libucrt:strtod.obj
 0001:00082cc0       ?multiply_64_32@__crt_strtox@@YA_K_KI@Z 10083cc0 f i libucrt:strtod.obj
 0001:00082ce0       ?multiply_by_power_of_ten@__crt_strtox@@YA_NAAUbig_integer@1@I@Z 10083ce0 f i libucrt:strtod.obj
 0001:00083350       ?multiply_core@__crt_strtox@@YAIQAIII@Z 10084350 f i libucrt:strtod.obj
 0001:0008339d       ?normal_mantissa_mask@floating_point_value@__crt_strtox@@QBE_KXZ 1008439d f i libucrt:strtod.obj
 0001:000833b9       ?right_shift_with_rounding@__crt_strtox@@YA_K_N_KI0@Z 100843b9 f i libucrt:strtod.obj
 0001:000834e0       ?shift_left@__crt_strtox@@YA_NAAUbig_integer@1@I@Z 100844e0 f i libucrt:strtod.obj
 0001:0008368b       ?should_round_up@__crt_strtox@@YA_N_N000@Z 1008468b f i libucrt:strtod.obj
 0001:000836eb       __strtod_l                 100846eb f   libucrt:strtod.obj
 0001:000836f8       __strtof_l                 100846f8 f   libucrt:strtod.obj
 0001:00083705       __strtold_l                10084705 f   libucrt:strtod.obj
 0001:00083712       __wcstod_l                 10084712 f   libucrt:strtod.obj
 0001:0008371f       __wcstof_l                 1008471f f   libucrt:strtod.obj
 0001:0008372c       __wcstold_l                1008472c f   libucrt:strtod.obj
 0001:000837da       _strtod                    100847da f   libucrt:strtod.obj
 0001:000837f6       _strtof                    100847f6 f   libucrt:strtod.obj
 0001:00083812       _strtold                   10084812 f   libucrt:strtod.obj
 0001:0008382e       _wcstod                    1008482e f   libucrt:strtod.obj
 0001:0008384a       _wcstof                    1008484a f   libucrt:strtod.obj
 0001:00083866       _wcstold                   10084866 f   libucrt:strtod.obj
 0001:00083890       __CIpow                    10084890 f   libucrt:pow_impl.obj
 0001:000838cb       __CIpow_default            100848cb f   libucrt:pow_impl.obj
 0001:000838e4       __pow_default              100848e4     libucrt:pow_impl.obj
 0001:00083b6b       __set_abort_behavior       10084b6b f   libucrt:abort.obj
 0001:00083b94       _abort                     10084b94 f   libucrt:abort.obj
 0001:00083c61       _wcscpy_s                  10084c61 f   libucrt:wcscpy_s.obj
 0001:000846d7       ??1?$__crt_simd_cleanup_guard@$00@@QAE@XZ 100856d7 f i libucrt:strnlen.obj
 0001:000846db       ??1?$__crt_simd_cleanup_guard@$0A@@@QAE@XZ 100856db f i libucrt:strnlen.obj
 0001:000846de       ?compare_equals@?$__crt_simd_traits@$00E@@SA?AT__m256i@@T2@0@Z 100856de f i libucrt:strnlen.obj
 0001:000846e3       ?compare_equals@?$__crt_simd_traits@$00G@@SA?AT__m256i@@T2@0@Z 100856e3 f i libucrt:strnlen.obj
 0001:000846e8       ?compare_equals@?$__crt_simd_traits@$0A@E@@SA?AT__m128i@@T2@0@Z 100856e8 f i libucrt:strnlen.obj
 0001:000846ed       ?compare_equals@?$__crt_simd_traits@$0A@G@@SA?AT__m128i@@T2@0@Z 100856ed f i libucrt:strnlen.obj
 0001:000846f2       ?compute_byte_mask@?$__crt_simd_pack_traits@$00@@SAHT__m256i@@@Z 100856f2 f i libucrt:strnlen.obj
 0001:000846f7       ?compute_byte_mask@?$__crt_simd_pack_traits@$0A@@@SAHT__m128i@@@Z 100856f7 f i libucrt:strnlen.obj
 0001:000846fc       ?get_zero_pack@?$__crt_simd_pack_traits@$00@@SA?AT__m256i@@XZ 100856fc f i libucrt:strnlen.obj
 0001:00084701       ?get_zero_pack@?$__crt_simd_pack_traits@$0A@@@SA?AT__m128i@@XZ 10085701 f i libucrt:strnlen.obj
